
main_project_CM7.elf:     file format elf32-littlearm

Sections:
Idx Name          Size      VMA       LMA       File off  Algn
  0 .isr_vector   00000298  08000000  08000000  00010000  2**0
                  CONTENTS, ALLOC, LOAD, READONLY, DATA
  1 .text         00008650  080002a0  080002a0  000102a0  2**4
                  CONTENTS, ALLOC, LOAD, READONLY, CODE
  2 .rodata       000003a8  080088f0  080088f0  000188f0  2**3
                  CONTENTS, ALLOC, LOAD, READONLY, DATA
  3 .ARM          00000008  08008c98  08008c98  00018c98  2**2
                  CONTENTS, ALLOC, LOAD, READONLY, DATA
  4 .init_array   00000008  08008ca0  08008ca0  00018ca0  2**2
                  CONTENTS, ALLOC, LOAD, DATA
  5 .fini_array   00000004  08008ca8  08008ca8  00018ca8  2**2
                  CONTENTS, ALLOC, LOAD, DATA
  6 .data         000009c0  24000000  08008cac  00020000  2**3
                  CONTENTS, ALLOC, LOAD, DATA
  7 .bss          00013718  240009c0  0800966c  000209c0  2**2
                  ALLOC
  8 ._user_heap_stack 00000600  240140d8  0800966c  000240d8  2**0
                  ALLOC
  9 .ARM.attributes 0000002e  00000000  00000000  000209c0  2**0
                  CONTENTS, READONLY
 10 .comment      000000e9  00000000  00000000  000209ee  2**0
                  CONTENTS, READONLY
 11 .debug_info   000005f7  00000000  00000000  00020ad7  2**0
                  CONTENTS, READONLY, DEBUGGING
 12 .debug_abbrev 00000314  00000000  00000000  000210ce  2**0
                  CONTENTS, READONLY, DEBUGGING
 13 .debug_loc    000008d6  00000000  00000000  000213e2  2**0
                  CONTENTS, READONLY, DEBUGGING
 14 .debug_aranges 00000080  00000000  00000000  00021cb8  2**0
                  CONTENTS, READONLY, DEBUGGING
 15 .debug_ranges 00000058  00000000  00000000  00021d38  2**0
                  CONTENTS, READONLY, DEBUGGING
 16 .debug_line   000005e9  00000000  00000000  00021d90  2**0
                  CONTENTS, READONLY, DEBUGGING
 17 .debug_str    000003b8  00000000  00000000  00022379  2**0
                  CONTENTS, READONLY, DEBUGGING
 18 .debug_frame  00000c18  00000000  00000000  00022734  2**2
                  CONTENTS, READONLY, DEBUGGING

Disassembly of section .text:

080002a0 <__do_global_dtors_aux>:
 80002a0:	b510      	push	{r4, lr}
 80002a2:	4c05      	ldr	r4, [pc, #20]	; (80002b8 <__do_global_dtors_aux+0x18>)
 80002a4:	7823      	ldrb	r3, [r4, #0]
 80002a6:	b933      	cbnz	r3, 80002b6 <__do_global_dtors_aux+0x16>
 80002a8:	4b04      	ldr	r3, [pc, #16]	; (80002bc <__do_global_dtors_aux+0x1c>)
 80002aa:	b113      	cbz	r3, 80002b2 <__do_global_dtors_aux+0x12>
 80002ac:	4804      	ldr	r0, [pc, #16]	; (80002c0 <__do_global_dtors_aux+0x20>)
 80002ae:	f3af 8000 	nop.w
 80002b2:	2301      	movs	r3, #1
 80002b4:	7023      	strb	r3, [r4, #0]
 80002b6:	bd10      	pop	{r4, pc}
 80002b8:	240009c0 	.word	0x240009c0
 80002bc:	00000000 	.word	0x00000000
 80002c0:	080088d8 	.word	0x080088d8

080002c4 <frame_dummy>:
 80002c4:	b508      	push	{r3, lr}
 80002c6:	4b03      	ldr	r3, [pc, #12]	; (80002d4 <frame_dummy+0x10>)
 80002c8:	b11b      	cbz	r3, 80002d2 <frame_dummy+0xe>
 80002ca:	4903      	ldr	r1, [pc, #12]	; (80002d8 <frame_dummy+0x14>)
 80002cc:	4803      	ldr	r0, [pc, #12]	; (80002dc <frame_dummy+0x18>)
 80002ce:	f3af 8000 	nop.w
 80002d2:	bd08      	pop	{r3, pc}
 80002d4:	00000000 	.word	0x00000000
 80002d8:	240009c4 	.word	0x240009c4
 80002dc:	080088d8 	.word	0x080088d8

080002e0 <memchr>:
 80002e0:	f001 01ff 	and.w	r1, r1, #255	; 0xff
 80002e4:	2a10      	cmp	r2, #16
 80002e6:	db2b      	blt.n	8000340 <memchr+0x60>
 80002e8:	f010 0f07 	tst.w	r0, #7
 80002ec:	d008      	beq.n	8000300 <memchr+0x20>
 80002ee:	f810 3b01 	ldrb.w	r3, [r0], #1
 80002f2:	3a01      	subs	r2, #1
 80002f4:	428b      	cmp	r3, r1
 80002f6:	d02d      	beq.n	8000354 <memchr+0x74>
 80002f8:	f010 0f07 	tst.w	r0, #7
 80002fc:	b342      	cbz	r2, 8000350 <memchr+0x70>
 80002fe:	d1f6      	bne.n	80002ee <memchr+0xe>
 8000300:	b4f0      	push	{r4, r5, r6, r7}
 8000302:	ea41 2101 	orr.w	r1, r1, r1, lsl #8
 8000306:	ea41 4101 	orr.w	r1, r1, r1, lsl #16
 800030a:	f022 0407 	bic.w	r4, r2, #7
 800030e:	f07f 0700 	mvns.w	r7, #0
 8000312:	2300      	movs	r3, #0
 8000314:	e8f0 5602 	ldrd	r5, r6, [r0], #8
 8000318:	3c08      	subs	r4, #8
 800031a:	ea85 0501 	eor.w	r5, r5, r1
 800031e:	ea86 0601 	eor.w	r6, r6, r1
 8000322:	fa85 f547 	uadd8	r5, r5, r7
 8000326:	faa3 f587 	sel	r5, r3, r7
 800032a:	fa86 f647 	uadd8	r6, r6, r7
 800032e:	faa5 f687 	sel	r6, r5, r7
 8000332:	b98e      	cbnz	r6, 8000358 <memchr+0x78>
 8000334:	d1ee      	bne.n	8000314 <memchr+0x34>
 8000336:	bcf0      	pop	{r4, r5, r6, r7}
 8000338:	f001 01ff 	and.w	r1, r1, #255	; 0xff
 800033c:	f002 0207 	and.w	r2, r2, #7
 8000340:	b132      	cbz	r2, 8000350 <memchr+0x70>
 8000342:	f810 3b01 	ldrb.w	r3, [r0], #1
 8000346:	3a01      	subs	r2, #1
 8000348:	ea83 0301 	eor.w	r3, r3, r1
 800034c:	b113      	cbz	r3, 8000354 <memchr+0x74>
 800034e:	d1f8      	bne.n	8000342 <memchr+0x62>
 8000350:	2000      	movs	r0, #0
 8000352:	4770      	bx	lr
 8000354:	3801      	subs	r0, #1
 8000356:	4770      	bx	lr
 8000358:	2d00      	cmp	r5, #0
 800035a:	bf06      	itte	eq
 800035c:	4635      	moveq	r5, r6
 800035e:	3803      	subeq	r0, #3
 8000360:	3807      	subne	r0, #7
 8000362:	f015 0f01 	tst.w	r5, #1
 8000366:	d107      	bne.n	8000378 <memchr+0x98>
 8000368:	3001      	adds	r0, #1
 800036a:	f415 7f80 	tst.w	r5, #256	; 0x100
 800036e:	bf02      	ittt	eq
 8000370:	3001      	addeq	r0, #1
 8000372:	f415 3fc0 	tsteq.w	r5, #98304	; 0x18000
 8000376:	3001      	addeq	r0, #1
 8000378:	bcf0      	pop	{r4, r5, r6, r7}
 800037a:	3801      	subs	r0, #1
 800037c:	4770      	bx	lr
 800037e:	bf00      	nop

08000380 <strlen>:
 8000380:	4603      	mov	r3, r0
 8000382:	f813 2b01 	ldrb.w	r2, [r3], #1
 8000386:	2a00      	cmp	r2, #0
 8000388:	d1fb      	bne.n	8000382 <strlen+0x2>
 800038a:	1a18      	subs	r0, r3, r0
 800038c:	3801      	subs	r0, #1
 800038e:	4770      	bx	lr

08000390 <__aeabi_uldivmod>:
 8000390:	b953      	cbnz	r3, 80003a8 <__aeabi_uldivmod+0x18>
 8000392:	b94a      	cbnz	r2, 80003a8 <__aeabi_uldivmod+0x18>
 8000394:	2900      	cmp	r1, #0
 8000396:	bf08      	it	eq
 8000398:	2800      	cmpeq	r0, #0
 800039a:	bf1c      	itt	ne
 800039c:	f04f 31ff 	movne.w	r1, #4294967295
 80003a0:	f04f 30ff 	movne.w	r0, #4294967295
 80003a4:	f000 b972 	b.w	800068c <__aeabi_idiv0>
 80003a8:	f1ad 0c08 	sub.w	ip, sp, #8
 80003ac:	e96d ce04 	strd	ip, lr, [sp, #-16]!
 80003b0:	f000 f806 	bl	80003c0 <__udivmoddi4>
 80003b4:	f8dd e004 	ldr.w	lr, [sp, #4]
 80003b8:	e9dd 2302 	ldrd	r2, r3, [sp, #8]
 80003bc:	b004      	add	sp, #16
 80003be:	4770      	bx	lr

080003c0 <__udivmoddi4>:
 80003c0:	e92d 47f0 	stmdb	sp!, {r4, r5, r6, r7, r8, r9, sl, lr}
 80003c4:	9e08      	ldr	r6, [sp, #32]
 80003c6:	4604      	mov	r4, r0
 80003c8:	4688      	mov	r8, r1
 80003ca:	2b00      	cmp	r3, #0
 80003cc:	d14b      	bne.n	8000466 <__udivmoddi4+0xa6>
 80003ce:	428a      	cmp	r2, r1
 80003d0:	4615      	mov	r5, r2
 80003d2:	d967      	bls.n	80004a4 <__udivmoddi4+0xe4>
 80003d4:	fab2 f282 	clz	r2, r2
 80003d8:	b14a      	cbz	r2, 80003ee <__udivmoddi4+0x2e>
 80003da:	f1c2 0720 	rsb	r7, r2, #32
 80003de:	fa01 f302 	lsl.w	r3, r1, r2
 80003e2:	fa20 f707 	lsr.w	r7, r0, r7
 80003e6:	4095      	lsls	r5, r2
 80003e8:	ea47 0803 	orr.w	r8, r7, r3
 80003ec:	4094      	lsls	r4, r2
 80003ee:	ea4f 4e15 	mov.w	lr, r5, lsr #16
 80003f2:	0c23      	lsrs	r3, r4, #16
 80003f4:	fbb8 f7fe 	udiv	r7, r8, lr
 80003f8:	fa1f fc85 	uxth.w	ip, r5
 80003fc:	fb0e 8817 	mls	r8, lr, r7, r8
 8000400:	ea43 4308 	orr.w	r3, r3, r8, lsl #16
 8000404:	fb07 f10c 	mul.w	r1, r7, ip
 8000408:	4299      	cmp	r1, r3
 800040a:	d909      	bls.n	8000420 <__udivmoddi4+0x60>
 800040c:	18eb      	adds	r3, r5, r3
 800040e:	f107 30ff 	add.w	r0, r7, #4294967295
 8000412:	f080 811b 	bcs.w	800064c <__udivmoddi4+0x28c>
 8000416:	4299      	cmp	r1, r3
 8000418:	f240 8118 	bls.w	800064c <__udivmoddi4+0x28c>
 800041c:	3f02      	subs	r7, #2
 800041e:	442b      	add	r3, r5
 8000420:	1a5b      	subs	r3, r3, r1
 8000422:	b2a4      	uxth	r4, r4
 8000424:	fbb3 f0fe 	udiv	r0, r3, lr
 8000428:	fb0e 3310 	mls	r3, lr, r0, r3
 800042c:	ea44 4403 	orr.w	r4, r4, r3, lsl #16
 8000430:	fb00 fc0c 	mul.w	ip, r0, ip
 8000434:	45a4      	cmp	ip, r4
 8000436:	d909      	bls.n	800044c <__udivmoddi4+0x8c>
 8000438:	192c      	adds	r4, r5, r4
 800043a:	f100 33ff 	add.w	r3, r0, #4294967295
 800043e:	f080 8107 	bcs.w	8000650 <__udivmoddi4+0x290>
 8000442:	45a4      	cmp	ip, r4
 8000444:	f240 8104 	bls.w	8000650 <__udivmoddi4+0x290>
 8000448:	3802      	subs	r0, #2
 800044a:	442c      	add	r4, r5
 800044c:	ea40 4007 	orr.w	r0, r0, r7, lsl #16
 8000450:	eba4 040c 	sub.w	r4, r4, ip
 8000454:	2700      	movs	r7, #0
 8000456:	b11e      	cbz	r6, 8000460 <__udivmoddi4+0xa0>
 8000458:	40d4      	lsrs	r4, r2
 800045a:	2300      	movs	r3, #0
 800045c:	e9c6 4300 	strd	r4, r3, [r6]
 8000460:	4639      	mov	r1, r7
 8000462:	e8bd 87f0 	ldmia.w	sp!, {r4, r5, r6, r7, r8, r9, sl, pc}
 8000466:	428b      	cmp	r3, r1
 8000468:	d909      	bls.n	800047e <__udivmoddi4+0xbe>
 800046a:	2e00      	cmp	r6, #0
 800046c:	f000 80eb 	beq.w	8000646 <__udivmoddi4+0x286>
 8000470:	2700      	movs	r7, #0
 8000472:	e9c6 0100 	strd	r0, r1, [r6]
 8000476:	4638      	mov	r0, r7
 8000478:	4639      	mov	r1, r7
 800047a:	e8bd 87f0 	ldmia.w	sp!, {r4, r5, r6, r7, r8, r9, sl, pc}
 800047e:	fab3 f783 	clz	r7, r3
 8000482:	2f00      	cmp	r7, #0
 8000484:	d147      	bne.n	8000516 <__udivmoddi4+0x156>
 8000486:	428b      	cmp	r3, r1
 8000488:	d302      	bcc.n	8000490 <__udivmoddi4+0xd0>
 800048a:	4282      	cmp	r2, r0
 800048c:	f200 80fa 	bhi.w	8000684 <__udivmoddi4+0x2c4>
 8000490:	1a84      	subs	r4, r0, r2
 8000492:	eb61 0303 	sbc.w	r3, r1, r3
 8000496:	2001      	movs	r0, #1
 8000498:	4698      	mov	r8, r3
 800049a:	2e00      	cmp	r6, #0
 800049c:	d0e0      	beq.n	8000460 <__udivmoddi4+0xa0>
 800049e:	e9c6 4800 	strd	r4, r8, [r6]
 80004a2:	e7dd      	b.n	8000460 <__udivmoddi4+0xa0>
 80004a4:	b902      	cbnz	r2, 80004a8 <__udivmoddi4+0xe8>
 80004a6:	deff      	udf	#255	; 0xff
 80004a8:	fab2 f282 	clz	r2, r2
 80004ac:	2a00      	cmp	r2, #0
 80004ae:	f040 808f 	bne.w	80005d0 <__udivmoddi4+0x210>
 80004b2:	1b49      	subs	r1, r1, r5
 80004b4:	ea4f 4e15 	mov.w	lr, r5, lsr #16
 80004b8:	fa1f f885 	uxth.w	r8, r5
 80004bc:	2701      	movs	r7, #1
 80004be:	fbb1 fcfe 	udiv	ip, r1, lr
 80004c2:	0c23      	lsrs	r3, r4, #16
 80004c4:	fb0e 111c 	mls	r1, lr, ip, r1
 80004c8:	ea43 4301 	orr.w	r3, r3, r1, lsl #16
 80004cc:	fb08 f10c 	mul.w	r1, r8, ip
 80004d0:	4299      	cmp	r1, r3
 80004d2:	d907      	bls.n	80004e4 <__udivmoddi4+0x124>
 80004d4:	18eb      	adds	r3, r5, r3
 80004d6:	f10c 30ff 	add.w	r0, ip, #4294967295
 80004da:	d202      	bcs.n	80004e2 <__udivmoddi4+0x122>
 80004dc:	4299      	cmp	r1, r3
 80004de:	f200 80cd 	bhi.w	800067c <__udivmoddi4+0x2bc>
 80004e2:	4684      	mov	ip, r0
 80004e4:	1a59      	subs	r1, r3, r1
 80004e6:	b2a3      	uxth	r3, r4
 80004e8:	fbb1 f0fe 	udiv	r0, r1, lr
 80004ec:	fb0e 1410 	mls	r4, lr, r0, r1
 80004f0:	ea43 4404 	orr.w	r4, r3, r4, lsl #16
 80004f4:	fb08 f800 	mul.w	r8, r8, r0
 80004f8:	45a0      	cmp	r8, r4
 80004fa:	d907      	bls.n	800050c <__udivmoddi4+0x14c>
 80004fc:	192c      	adds	r4, r5, r4
 80004fe:	f100 33ff 	add.w	r3, r0, #4294967295
 8000502:	d202      	bcs.n	800050a <__udivmoddi4+0x14a>
 8000504:	45a0      	cmp	r8, r4
 8000506:	f200 80b6 	bhi.w	8000676 <__udivmoddi4+0x2b6>
 800050a:	4618      	mov	r0, r3
 800050c:	eba4 0408 	sub.w	r4, r4, r8
 8000510:	ea40 400c 	orr.w	r0, r0, ip, lsl #16
 8000514:	e79f      	b.n	8000456 <__udivmoddi4+0x96>
 8000516:	f1c7 0c20 	rsb	ip, r7, #32
 800051a:	40bb      	lsls	r3, r7
 800051c:	fa22 fe0c 	lsr.w	lr, r2, ip
 8000520:	ea4e 0e03 	orr.w	lr, lr, r3
 8000524:	fa01 f407 	lsl.w	r4, r1, r7
 8000528:	fa20 f50c 	lsr.w	r5, r0, ip
 800052c:	fa21 f30c 	lsr.w	r3, r1, ip
 8000530:	ea4f 481e 	mov.w	r8, lr, lsr #16
 8000534:	4325      	orrs	r5, r4
 8000536:	fbb3 f9f8 	udiv	r9, r3, r8
 800053a:	0c2c      	lsrs	r4, r5, #16
 800053c:	fb08 3319 	mls	r3, r8, r9, r3
 8000540:	fa1f fa8e 	uxth.w	sl, lr
 8000544:	ea44 4303 	orr.w	r3, r4, r3, lsl #16
 8000548:	fb09 f40a 	mul.w	r4, r9, sl
 800054c:	429c      	cmp	r4, r3
 800054e:	fa02 f207 	lsl.w	r2, r2, r7
 8000552:	fa00 f107 	lsl.w	r1, r0, r7
 8000556:	d90b      	bls.n	8000570 <__udivmoddi4+0x1b0>
 8000558:	eb1e 0303 	adds.w	r3, lr, r3
 800055c:	f109 30ff 	add.w	r0, r9, #4294967295
 8000560:	f080 8087 	bcs.w	8000672 <__udivmoddi4+0x2b2>
 8000564:	429c      	cmp	r4, r3
 8000566:	f240 8084 	bls.w	8000672 <__udivmoddi4+0x2b2>
 800056a:	f1a9 0902 	sub.w	r9, r9, #2
 800056e:	4473      	add	r3, lr
 8000570:	1b1b      	subs	r3, r3, r4
 8000572:	b2ad      	uxth	r5, r5
 8000574:	fbb3 f0f8 	udiv	r0, r3, r8
 8000578:	fb08 3310 	mls	r3, r8, r0, r3
 800057c:	ea45 4403 	orr.w	r4, r5, r3, lsl #16
 8000580:	fb00 fa0a 	mul.w	sl, r0, sl
 8000584:	45a2      	cmp	sl, r4
 8000586:	d908      	bls.n	800059a <__udivmoddi4+0x1da>
 8000588:	eb1e 0404 	adds.w	r4, lr, r4
 800058c:	f100 33ff 	add.w	r3, r0, #4294967295
 8000590:	d26b      	bcs.n	800066a <__udivmoddi4+0x2aa>
 8000592:	45a2      	cmp	sl, r4
 8000594:	d969      	bls.n	800066a <__udivmoddi4+0x2aa>
 8000596:	3802      	subs	r0, #2
 8000598:	4474      	add	r4, lr
 800059a:	ea40 4009 	orr.w	r0, r0, r9, lsl #16
 800059e:	fba0 8902 	umull	r8, r9, r0, r2
 80005a2:	eba4 040a 	sub.w	r4, r4, sl
 80005a6:	454c      	cmp	r4, r9
 80005a8:	46c2      	mov	sl, r8
 80005aa:	464b      	mov	r3, r9
 80005ac:	d354      	bcc.n	8000658 <__udivmoddi4+0x298>
 80005ae:	d051      	beq.n	8000654 <__udivmoddi4+0x294>
 80005b0:	2e00      	cmp	r6, #0
 80005b2:	d069      	beq.n	8000688 <__udivmoddi4+0x2c8>
 80005b4:	ebb1 050a 	subs.w	r5, r1, sl
 80005b8:	eb64 0403 	sbc.w	r4, r4, r3
 80005bc:	fa04 fc0c 	lsl.w	ip, r4, ip
 80005c0:	40fd      	lsrs	r5, r7
 80005c2:	40fc      	lsrs	r4, r7
 80005c4:	ea4c 0505 	orr.w	r5, ip, r5
 80005c8:	e9c6 5400 	strd	r5, r4, [r6]
 80005cc:	2700      	movs	r7, #0
 80005ce:	e747      	b.n	8000460 <__udivmoddi4+0xa0>
 80005d0:	f1c2 0320 	rsb	r3, r2, #32
 80005d4:	fa20 f703 	lsr.w	r7, r0, r3
 80005d8:	4095      	lsls	r5, r2
 80005da:	fa01 f002 	lsl.w	r0, r1, r2
 80005de:	fa21 f303 	lsr.w	r3, r1, r3
 80005e2:	ea4f 4e15 	mov.w	lr, r5, lsr #16
 80005e6:	4338      	orrs	r0, r7
 80005e8:	0c01      	lsrs	r1, r0, #16
 80005ea:	fbb3 f7fe 	udiv	r7, r3, lr
 80005ee:	fa1f f885 	uxth.w	r8, r5
 80005f2:	fb0e 3317 	mls	r3, lr, r7, r3
 80005f6:	ea41 4103 	orr.w	r1, r1, r3, lsl #16
 80005fa:	fb07 f308 	mul.w	r3, r7, r8
 80005fe:	428b      	cmp	r3, r1
 8000600:	fa04 f402 	lsl.w	r4, r4, r2
 8000604:	d907      	bls.n	8000616 <__udivmoddi4+0x256>
 8000606:	1869      	adds	r1, r5, r1
 8000608:	f107 3cff 	add.w	ip, r7, #4294967295
 800060c:	d22f      	bcs.n	800066e <__udivmoddi4+0x2ae>
 800060e:	428b      	cmp	r3, r1
 8000610:	d92d      	bls.n	800066e <__udivmoddi4+0x2ae>
 8000612:	3f02      	subs	r7, #2
 8000614:	4429      	add	r1, r5
 8000616:	1acb      	subs	r3, r1, r3
 8000618:	b281      	uxth	r1, r0
 800061a:	fbb3 f0fe 	udiv	r0, r3, lr
 800061e:	fb0e 3310 	mls	r3, lr, r0, r3
 8000622:	ea41 4103 	orr.w	r1, r1, r3, lsl #16
 8000626:	fb00 f308 	mul.w	r3, r0, r8
 800062a:	428b      	cmp	r3, r1
 800062c:	d907      	bls.n	800063e <__udivmoddi4+0x27e>
 800062e:	1869      	adds	r1, r5, r1
 8000630:	f100 3cff 	add.w	ip, r0, #4294967295
 8000634:	d217      	bcs.n	8000666 <__udivmoddi4+0x2a6>
 8000636:	428b      	cmp	r3, r1
 8000638:	d915      	bls.n	8000666 <__udivmoddi4+0x2a6>
 800063a:	3802      	subs	r0, #2
 800063c:	4429      	add	r1, r5
 800063e:	1ac9      	subs	r1, r1, r3
 8000640:	ea40 4707 	orr.w	r7, r0, r7, lsl #16
 8000644:	e73b      	b.n	80004be <__udivmoddi4+0xfe>
 8000646:	4637      	mov	r7, r6
 8000648:	4630      	mov	r0, r6
 800064a:	e709      	b.n	8000460 <__udivmoddi4+0xa0>
 800064c:	4607      	mov	r7, r0
 800064e:	e6e7      	b.n	8000420 <__udivmoddi4+0x60>
 8000650:	4618      	mov	r0, r3
 8000652:	e6fb      	b.n	800044c <__udivmoddi4+0x8c>
 8000654:	4541      	cmp	r1, r8
 8000656:	d2ab      	bcs.n	80005b0 <__udivmoddi4+0x1f0>
 8000658:	ebb8 0a02 	subs.w	sl, r8, r2
 800065c:	eb69 020e 	sbc.w	r2, r9, lr
 8000660:	3801      	subs	r0, #1
 8000662:	4613      	mov	r3, r2
 8000664:	e7a4      	b.n	80005b0 <__udivmoddi4+0x1f0>
 8000666:	4660      	mov	r0, ip
 8000668:	e7e9      	b.n	800063e <__udivmoddi4+0x27e>
 800066a:	4618      	mov	r0, r3
 800066c:	e795      	b.n	800059a <__udivmoddi4+0x1da>
 800066e:	4667      	mov	r7, ip
 8000670:	e7d1      	b.n	8000616 <__udivmoddi4+0x256>
 8000672:	4681      	mov	r9, r0
 8000674:	e77c      	b.n	8000570 <__udivmoddi4+0x1b0>
 8000676:	3802      	subs	r0, #2
 8000678:	442c      	add	r4, r5
 800067a:	e747      	b.n	800050c <__udivmoddi4+0x14c>
 800067c:	f1ac 0c02 	sub.w	ip, ip, #2
 8000680:	442b      	add	r3, r5
 8000682:	e72f      	b.n	80004e4 <__udivmoddi4+0x124>
 8000684:	4638      	mov	r0, r7
 8000686:	e708      	b.n	800049a <__udivmoddi4+0xda>
 8000688:	4637      	mov	r7, r6
 800068a:	e6e9      	b.n	8000460 <__udivmoddi4+0xa0>

0800068c <__aeabi_idiv0>:
 800068c:	4770      	bx	lr
 800068e:	bf00      	nop

08000690 <SystemInit>:
 8000690:	491d      	ldr	r1, [pc, #116]	; (8000708 <SystemInit+0x78>)
 8000692:	2200      	movs	r2, #0
 8000694:	4b1d      	ldr	r3, [pc, #116]	; (800070c <SystemInit+0x7c>)
 8000696:	481e      	ldr	r0, [pc, #120]	; (8000710 <SystemInit+0x80>)
 8000698:	b470      	push	{r4, r5, r6}
 800069a:	f8d1 4088 	ldr.w	r4, [r1, #136]	; 0x88
 800069e:	4d1d      	ldr	r5, [pc, #116]	; (8000714 <SystemInit+0x84>)
 80006a0:	f444 0470 	orr.w	r4, r4, #15728640	; 0xf00000
 80006a4:	4e1c      	ldr	r6, [pc, #112]	; (8000718 <SystemInit+0x88>)
 80006a6:	f8c1 4088 	str.w	r4, [r1, #136]	; 0x88
 80006aa:	690c      	ldr	r4, [r1, #16]
 80006ac:	f044 0404 	orr.w	r4, r4, #4
 80006b0:	610c      	str	r4, [r1, #16]
 80006b2:	681c      	ldr	r4, [r3, #0]
 80006b4:	4919      	ldr	r1, [pc, #100]	; (800071c <SystemInit+0x8c>)
 80006b6:	f044 0401 	orr.w	r4, r4, #1
 80006ba:	601c      	str	r4, [r3, #0]
 80006bc:	611a      	str	r2, [r3, #16]
 80006be:	681c      	ldr	r4, [r3, #0]
 80006c0:	4020      	ands	r0, r4
 80006c2:	6018      	str	r0, [r3, #0]
 80006c4:	619a      	str	r2, [r3, #24]
 80006c6:	61da      	str	r2, [r3, #28]
 80006c8:	621a      	str	r2, [r3, #32]
 80006ca:	629a      	str	r2, [r3, #40]	; 0x28
 80006cc:	62da      	str	r2, [r3, #44]	; 0x2c
 80006ce:	631a      	str	r2, [r3, #48]	; 0x30
 80006d0:	635a      	str	r2, [r3, #52]	; 0x34
 80006d2:	639a      	str	r2, [r3, #56]	; 0x38
 80006d4:	63da      	str	r2, [r3, #60]	; 0x3c
 80006d6:	641a      	str	r2, [r3, #64]	; 0x40
 80006d8:	645a      	str	r2, [r3, #68]	; 0x44
 80006da:	6818      	ldr	r0, [r3, #0]
 80006dc:	f420 2080 	bic.w	r0, r0, #262144	; 0x40000
 80006e0:	6018      	str	r0, [r3, #0]
 80006e2:	661a      	str	r2, [r3, #96]	; 0x60
 80006e4:	6a6b      	ldr	r3, [r5, #36]	; 0x24
 80006e6:	f443 4380 	orr.w	r3, r3, #16384	; 0x4000
 80006ea:	626b      	str	r3, [r5, #36]	; 0x24
 80006ec:	6833      	ldr	r3, [r6, #0]
 80006ee:	4019      	ands	r1, r3
 80006f0:	f1b1 5f00 	cmp.w	r1, #536870912	; 0x20000000
 80006f4:	d202      	bcs.n	80006fc <SystemInit+0x6c>
 80006f6:	4b0a      	ldr	r3, [pc, #40]	; (8000720 <SystemInit+0x90>)
 80006f8:	2201      	movs	r2, #1
 80006fa:	601a      	str	r2, [r3, #0]
 80006fc:	4b02      	ldr	r3, [pc, #8]	; (8000708 <SystemInit+0x78>)
 80006fe:	f04f 6200 	mov.w	r2, #134217728	; 0x8000000
 8000702:	bc70      	pop	{r4, r5, r6}
 8000704:	609a      	str	r2, [r3, #8]
 8000706:	4770      	bx	lr
 8000708:	e000ed00 	.word	0xe000ed00
 800070c:	58024400 	.word	0x58024400
 8000710:	eaf6ed7f 	.word	0xeaf6ed7f
 8000714:	580000c0 	.word	0x580000c0
 8000718:	5c001000 	.word	0x5c001000
 800071c:	ffff0000 	.word	0xffff0000
 8000720:	51008108 	.word	0x51008108

08000724 <inst_absolute>:
 8000724:	4b17      	ldr	r3, [pc, #92]	; (8000784 <inst_absolute+0x60>)
 8000726:	881b      	ldrh	r3, [r3, #0]
 8000728:	b1f3      	cbz	r3, 8000768 <inst_absolute+0x44>
 800072a:	b540      	push	{r6, lr}
 800072c:	005e      	lsls	r6, r3, #1
 800072e:	ed2d 8b02 	vpush	{d8}
 8000732:	eb00 0686 	add.w	r6, r0, r6, lsl #2
 8000736:	b084      	sub	sp, #16
 8000738:	ed90 0a01 	vldr	s0, [r0, #4]
 800073c:	edd0 7a00 	vldr	s15, [r0]
 8000740:	ee20 0a00 	vmul.f32	s0, s0, s0
 8000744:	eea7 0aa7 	vfma.f32	s0, s15, s15
 8000748:	eeb5 0a40 	vcmp.f32	s0, #0.0
 800074c:	eeb1 8ac0 	vsqrt.f32	s16, s0
 8000750:	eef1 fa10 	vmrs	APSR_nzcv, fpscr
 8000754:	d409      	bmi.n	800076a <inst_absolute+0x46>
 8000756:	3008      	adds	r0, #8
 8000758:	eca1 8a01 	vstmia	r1!, {s16}
 800075c:	4286      	cmp	r6, r0
 800075e:	d1eb      	bne.n	8000738 <inst_absolute+0x14>
 8000760:	b004      	add	sp, #16
 8000762:	ecbd 8b02 	vpop	{d8}
 8000766:	bd40      	pop	{r6, pc}
 8000768:	4770      	bx	lr
 800076a:	3008      	adds	r0, #8
 800076c:	9102      	str	r1, [sp, #8]
 800076e:	9001      	str	r0, [sp, #4]
 8000770:	9003      	str	r0, [sp, #12]
 8000772:	f004 fd41 	bl	80051f8 <sqrtf>
 8000776:	9801      	ldr	r0, [sp, #4]
 8000778:	9902      	ldr	r1, [sp, #8]
 800077a:	42b0      	cmp	r0, r6
 800077c:	eca1 8a01 	vstmia	r1!, {s16}
 8000780:	d1da      	bne.n	8000738 <inst_absolute+0x14>
 8000782:	e7ed      	b.n	8000760 <inst_absolute+0x3c>
 8000784:	08008900 	.word	0x08008900

08000788 <inst_phase>:
 8000788:	4b0a      	ldr	r3, [pc, #40]	; (80007b4 <inst_phase+0x2c>)
 800078a:	881b      	ldrh	r3, [r3, #0]
 800078c:	b18b      	cbz	r3, 80007b2 <inst_phase+0x2a>
 800078e:	b570      	push	{r4, r5, r6, lr}
 8000790:	005e      	lsls	r6, r3, #1
 8000792:	4604      	mov	r4, r0
 8000794:	460d      	mov	r5, r1
 8000796:	eb00 0686 	add.w	r6, r0, r6, lsl #2
 800079a:	edd4 0a00 	vldr	s1, [r4]
 800079e:	3408      	adds	r4, #8
 80007a0:	ed14 0a01 	vldr	s0, [r4, #-4]
 80007a4:	f004 fd24 	bl	80051f0 <atan2f>
 80007a8:	42a6      	cmp	r6, r4
 80007aa:	eca5 0a01 	vstmia	r5!, {s0}
 80007ae:	d1f4      	bne.n	800079a <inst_phase+0x12>
 80007b0:	bd70      	pop	{r4, r5, r6, pc}
 80007b2:	4770      	bx	lr
 80007b4:	08008900 	.word	0x08008900

080007b8 <unwrap>:
 80007b8:	4b2b      	ldr	r3, [pc, #172]	; (8000868 <unwrap+0xb0>)
 80007ba:	b4f0      	push	{r4, r5, r6, r7}
 80007bc:	881f      	ldrh	r7, [r3, #0]
 80007be:	2f01      	cmp	r7, #1
 80007c0:	d947      	bls.n	8000852 <unwrap+0x9a>
 80007c2:	eb00 0587 	add.w	r5, r0, r7, lsl #2
 80007c6:	4603      	mov	r3, r0
 80007c8:	460c      	mov	r4, r1
 80007ca:	2200      	movs	r2, #0
 80007cc:	3d04      	subs	r5, #4
 80007ce:	ed9f 5a27 	vldr	s10, [pc, #156]	; 800086c <unwrap+0xb4>
 80007d2:	ed9f 4b21 	vldr	d4, [pc, #132]	; 8000858 <unwrap+0xa0>
 80007d6:	ed9f 3b22 	vldr	d3, [pc, #136]	; 8000860 <unwrap+0xa8>
 80007da:	ee24 6b03 	vmul.f64	d6, d4, d3
 80007de:	ed93 7a00 	vldr	s14, [r3]
 80007e2:	eeb7 7ac7 	vcvt.f64.f32	d7, s14
 80007e6:	ee37 7b06 	vadd.f64	d7, d7, d6
 80007ea:	eeb7 7bc7 	vcvt.f32.f64	s14, d7
 80007ee:	eca4 7a01 	vstmia	r4!, {s14}
 80007f2:	edd3 5a01 	vldr	s11, [r3, #4]
 80007f6:	ecb3 7a01 	vldmia	r3!, {s14}
 80007fa:	ee75 7ac7 	vsub.f32	s15, s11, s14
 80007fe:	eef0 7ae7 	vabs.f32	s15, s15
 8000802:	eef4 7ac5 	vcmpe.f32	s15, s10
 8000806:	eef1 fa10 	vmrs	APSR_nzcv, fpscr
 800080a:	dd0e      	ble.n	800082a <unwrap+0x72>
 800080c:	eef4 5ac7 	vcmpe.f32	s11, s14
 8000810:	1e56      	subs	r6, r2, #1
 8000812:	3201      	adds	r2, #1
 8000814:	eef1 fa10 	vmrs	APSR_nzcv, fpscr
 8000818:	bf4c      	ite	mi
 800081a:	b292      	uxthmi	r2, r2
 800081c:	b2b2      	uxthpl	r2, r6
 800081e:	ee07 2a90 	vmov	s15, r2
 8000822:	eeb8 4be7 	vcvt.f64.s32	d4, s15
 8000826:	ee24 6b03 	vmul.f64	d6, d4, d3
 800082a:	429d      	cmp	r5, r3
 800082c:	d1d5      	bne.n	80007da <unwrap+0x22>
 800082e:	f06f 4340 	mvn.w	r3, #3221225472	; 0xc0000000
 8000832:	443b      	add	r3, r7
 8000834:	009b      	lsls	r3, r3, #2
 8000836:	4418      	add	r0, r3
 8000838:	440b      	add	r3, r1
 800083a:	ed90 7a00 	vldr	s14, [r0]
 800083e:	eeb7 7ac7 	vcvt.f64.f32	d7, s14
 8000842:	bcf0      	pop	{r4, r5, r6, r7}
 8000844:	ee37 6b06 	vadd.f64	d6, d7, d6
 8000848:	eeb7 6bc6 	vcvt.f32.f64	s12, d6
 800084c:	ed83 6a00 	vstr	s12, [r3]
 8000850:	4770      	bx	lr
 8000852:	ed9f 6b01 	vldr	d6, [pc, #4]	; 8000858 <unwrap+0xa0>
 8000856:	e7ea      	b.n	800082e <unwrap+0x76>
	...
 8000860:	54442d18 	.word	0x54442d18
 8000864:	401921fb 	.word	0x401921fb
 8000868:	08008900 	.word	0x08008900
 800086c:	40490fdb 	.word	0x40490fdb

08000870 <inst_frequency>:
 8000870:	e92d 41f0 	stmdb	sp!, {r4, r5, r6, r7, r8, lr}
 8000874:	f5ad 5d00 	sub.w	sp, sp, #8192	; 0x2000
 8000878:	f44f 5280 	mov.w	r2, #4096	; 0x1000
 800087c:	4604      	mov	r4, r0
 800087e:	460d      	mov	r5, r1
 8000880:	4668      	mov	r0, sp
 8000882:	2100      	movs	r1, #0
 8000884:	f005 f90d 	bl	8005aa2 <memset>
 8000888:	f50d 5080 	add.w	r0, sp, #4096	; 0x1000
 800088c:	f44f 5280 	mov.w	r2, #4096	; 0x1000
 8000890:	2100      	movs	r1, #0
 8000892:	f005 f906 	bl	8005aa2 <memset>
 8000896:	4b58      	ldr	r3, [pc, #352]	; (80009f8 <inst_frequency+0x188>)
 8000898:	881e      	ldrh	r6, [r3, #0]
 800089a:	b17e      	cbz	r6, 80008bc <inst_frequency+0x4c>
 800089c:	ea4f 0846 	mov.w	r8, r6, lsl #1
 80008a0:	466f      	mov	r7, sp
 80008a2:	eb04 0888 	add.w	r8, r4, r8, lsl #2
 80008a6:	edd4 0a00 	vldr	s1, [r4]
 80008aa:	3408      	adds	r4, #8
 80008ac:	ed14 0a01 	vldr	s0, [r4, #-4]
 80008b0:	f004 fc9e 	bl	80051f0 <atan2f>
 80008b4:	45a0      	cmp	r8, r4
 80008b6:	eca7 0a01 	vstmia	r7!, {s0}
 80008ba:	d1f4      	bne.n	80008a6 <inst_frequency+0x36>
 80008bc:	1e74      	subs	r4, r6, #1
 80008be:	2c00      	cmp	r4, #0
 80008c0:	f340 808b 	ble.w	80009da <inst_frequency+0x16a>
 80008c4:	466b      	mov	r3, sp
 80008c6:	f50d 5180 	add.w	r1, sp, #4096	; 0x1000
 80008ca:	eb0d 0086 	add.w	r0, sp, r6, lsl #2
 80008ce:	2200      	movs	r2, #0
 80008d0:	ecb3 6a01 	vldmia	r3!, {s12}
 80008d4:	ed9f 5a49 	vldr	s10, [pc, #292]	; 80009fc <inst_frequency+0x18c>
 80008d8:	ed9f 3b43 	vldr	d3, [pc, #268]	; 80009e8 <inst_frequency+0x178>
 80008dc:	ed9f 2b44 	vldr	d2, [pc, #272]	; 80009f0 <inst_frequency+0x180>
 80008e0:	ecf3 5a01 	vldmia	r3!, {s11}
 80008e4:	ee23 4b02 	vmul.f64	d4, d3, d2
 80008e8:	ee75 6ac6 	vsub.f32	s13, s11, s12
 80008ec:	eeb7 7ac6 	vcvt.f64.f32	d7, s12
 80008f0:	eef0 6ae6 	vabs.f32	s13, s13
 80008f4:	ee37 7b04 	vadd.f64	d7, d7, d4
 80008f8:	eef4 6ac5 	vcmpe.f32	s13, s10
 80008fc:	eeb7 7bc7 	vcvt.f32.f64	s14, d7
 8000900:	eef1 fa10 	vmrs	APSR_nzcv, fpscr
 8000904:	eca1 7a01 	vstmia	r1!, {s14}
 8000908:	dd0e      	ble.n	8000928 <inst_frequency+0xb8>
 800090a:	eef4 5ac6 	vcmpe.f32	s11, s12
 800090e:	1e57      	subs	r7, r2, #1
 8000910:	3201      	adds	r2, #1
 8000912:	eef1 fa10 	vmrs	APSR_nzcv, fpscr
 8000916:	bf4c      	ite	mi
 8000918:	b292      	uxthmi	r2, r2
 800091a:	b2ba      	uxthpl	r2, r7
 800091c:	ee07 2a90 	vmov	s15, r2
 8000920:	eeb8 3be7 	vcvt.f64.s32	d3, s15
 8000924:	ee23 4b02 	vmul.f64	d4, d3, d2
 8000928:	4298      	cmp	r0, r3
 800092a:	eeb0 6a65 	vmov.f32	s12, s11
 800092e:	d1d7      	bne.n	80008e0 <inst_frequency+0x70>
 8000930:	f06f 4740 	mvn.w	r7, #3221225472	; 0xc0000000
 8000934:	f50d 5280 	add.w	r2, sp, #4096	; 0x1000
 8000938:	2e03      	cmp	r6, #3
 800093a:	4437      	add	r7, r6
 800093c:	ea4f 0787 	mov.w	r7, r7, lsl #2
 8000940:	eb0d 0307 	add.w	r3, sp, r7
 8000944:	443a      	add	r2, r7
 8000946:	ed93 7a00 	vldr	s14, [r3]
 800094a:	eeb7 7ac7 	vcvt.f64.f32	d7, s14
 800094e:	ee37 4b04 	vadd.f64	d4, d7, d4
 8000952:	eeb7 4bc4 	vcvt.f32.f64	s8, d4
 8000956:	ed82 4a00 	vstr	s8, [r2]
 800095a:	d943      	bls.n	80009e4 <inst_frequency+0x174>
 800095c:	3e04      	subs	r6, #4
 800095e:	f50d 5380 	add.w	r3, sp, #4096	; 0x1000
 8000962:	462a      	mov	r2, r5
 8000964:	ed9f 6a26 	vldr	s12, [pc, #152]	; 8000a00 <inst_frequency+0x190>
 8000968:	f026 0601 	bic.w	r6, r6, #1
 800096c:	edd3 6a00 	vldr	s13, [r3]
 8000970:	4619      	mov	r1, r3
 8000972:	2300      	movs	r3, #0
 8000974:	3602      	adds	r6, #2
 8000976:	edd1 7a01 	vldr	s15, [r1, #4]
 800097a:	3108      	adds	r1, #8
 800097c:	3302      	adds	r3, #2
 800097e:	3208      	adds	r2, #8
 8000980:	ee37 7ae6 	vsub.f32	s14, s15, s13
 8000984:	edd1 6a00 	vldr	s13, [r1]
 8000988:	429e      	cmp	r6, r3
 800098a:	ee76 7ae7 	vsub.f32	s15, s13, s15
 800098e:	ee27 7a06 	vmul.f32	s14, s14, s12
 8000992:	ee67 7a86 	vmul.f32	s15, s15, s12
 8000996:	ed02 7a02 	vstr	s14, [r2, #-8]
 800099a:	ed42 7a01 	vstr	s15, [r2, #-4]
 800099e:	d1ea      	bne.n	8000976 <inst_frequency+0x106>
 80009a0:	0099      	lsls	r1, r3, #2
 80009a2:	f50d 5280 	add.w	r2, sp, #4096	; 0x1000
 80009a6:	eddf 6a16 	vldr	s13, [pc, #88]	; 8000a00 <inst_frequency+0x190>
 80009aa:	1850      	adds	r0, r2, r1
 80009ac:	4429      	add	r1, r5
 80009ae:	4602      	mov	r2, r0
 80009b0:	edd0 7a01 	vldr	s15, [r0, #4]
 80009b4:	3301      	adds	r3, #1
 80009b6:	3004      	adds	r0, #4
 80009b8:	ed92 7a00 	vldr	s14, [r2]
 80009bc:	429c      	cmp	r4, r3
 80009be:	ee77 7ac7 	vsub.f32	s15, s15, s14
 80009c2:	ee67 7aa6 	vmul.f32	s15, s15, s13
 80009c6:	ece1 7a01 	vstmia	r1!, {s15}
 80009ca:	dcf0      	bgt.n	80009ae <inst_frequency+0x13e>
 80009cc:	443d      	add	r5, r7
 80009ce:	2300      	movs	r3, #0
 80009d0:	602b      	str	r3, [r5, #0]
 80009d2:	f50d 5d00 	add.w	sp, sp, #8192	; 0x2000
 80009d6:	e8bd 81f0 	ldmia.w	sp!, {r4, r5, r6, r7, r8, pc}
 80009da:	f06f 4740 	mvn.w	r7, #3221225472	; 0xc0000000
 80009de:	4437      	add	r7, r6
 80009e0:	00bf      	lsls	r7, r7, #2
 80009e2:	e7f3      	b.n	80009cc <inst_frequency+0x15c>
 80009e4:	2300      	movs	r3, #0
 80009e6:	e7db      	b.n	80009a0 <inst_frequency+0x130>
	...
 80009f0:	54442d18 	.word	0x54442d18
 80009f4:	401921fb 	.word	0x401921fb
 80009f8:	08008900 	.word	0x08008900
 80009fc:	40490fdb 	.word	0x40490fdb
 8000a00:	3e22f983 	.word	0x3e22f983

08000a04 <inst_centralized_normalized_absolute>:
 8000a04:	e92d 4ff0 	stmdb	sp!, {r4, r5, r6, r7, r8, r9, sl, fp, lr}
 8000a08:	4d38      	ldr	r5, [pc, #224]	; (8000aec <inst_centralized_normalized_absolute+0xe8>)
 8000a0a:	2300      	movs	r3, #0
 8000a0c:	2200      	movs	r2, #0
 8000a0e:	4604      	mov	r4, r0
 8000a10:	882f      	ldrh	r7, [r5, #0]
 8000a12:	460d      	mov	r5, r1
 8000a14:	00be      	lsls	r6, r7, #2
 8000a16:	ed2d 8b02 	vpush	{d8}
 8000a1a:	b085      	sub	sp, #20
 8000a1c:	4630      	mov	r0, r6
 8000a1e:	9301      	str	r3, [sp, #4]
 8000a20:	9302      	str	r3, [sp, #8]
 8000a22:	9203      	str	r2, [sp, #12]
 8000a24:	f004 fdec 	bl	8005600 <malloc>
 8000a28:	4680      	mov	r8, r0
 8000a2a:	4630      	mov	r0, r6
 8000a2c:	f004 fde8 	bl	8005600 <malloc>
 8000a30:	4681      	mov	r9, r0
 8000a32:	b1c7      	cbz	r7, 8000a66 <inst_centralized_normalized_absolute+0x62>
 8000a34:	ea4f 0b47 	mov.w	fp, r7, lsl #1
 8000a38:	46c2      	mov	sl, r8
 8000a3a:	eb04 0b8b 	add.w	fp, r4, fp, lsl #2
 8000a3e:	ed94 0a01 	vldr	s0, [r4, #4]
 8000a42:	3408      	adds	r4, #8
 8000a44:	ed54 7a02 	vldr	s15, [r4, #-8]
 8000a48:	ee20 0a00 	vmul.f32	s0, s0, s0
 8000a4c:	eea7 0aa7 	vfma.f32	s0, s15, s15
 8000a50:	eeb5 0a40 	vcmp.f32	s0, #0.0
 8000a54:	eeb1 8ac0 	vsqrt.f32	s16, s0
 8000a58:	eef1 fa10 	vmrs	APSR_nzcv, fpscr
 8000a5c:	d43e      	bmi.n	8000adc <inst_centralized_normalized_absolute+0xd8>
 8000a5e:	45a3      	cmp	fp, r4
 8000a60:	ecaa 8a01 	vstmia	sl!, {s16}
 8000a64:	d1eb      	bne.n	8000a3e <inst_centralized_normalized_absolute+0x3a>
 8000a66:	ab03      	add	r3, sp, #12
 8000a68:	aa02      	add	r2, sp, #8
 8000a6a:	4639      	mov	r1, r7
 8000a6c:	4640      	mov	r0, r8
 8000a6e:	f004 fb59 	bl	8005124 <arm_max_f32>
 8000a72:	b36f      	cbz	r7, 8000ad0 <inst_centralized_normalized_absolute+0xcc>
 8000a74:	eddd 6a02 	vldr	s13, [sp, #8]
 8000a78:	4643      	mov	r3, r8
 8000a7a:	464c      	mov	r4, r9
 8000a7c:	eb06 0108 	add.w	r1, r6, r8
 8000a80:	464a      	mov	r2, r9
 8000a82:	ecb3 7a01 	vldmia	r3!, {s14}
 8000a86:	eec7 7a26 	vdiv.f32	s15, s14, s13
 8000a8a:	4299      	cmp	r1, r3
 8000a8c:	ece2 7a01 	vstmia	r2!, {s15}
 8000a90:	d1f7      	bne.n	8000a82 <inst_centralized_normalized_absolute+0x7e>
 8000a92:	4639      	mov	r1, r7
 8000a94:	aa01      	add	r2, sp, #4
 8000a96:	4648      	mov	r0, r9
 8000a98:	444e      	add	r6, r9
 8000a9a:	f004 fb0d 	bl	80050b8 <arm_mean_f32>
 8000a9e:	eef7 6a00 	vmov.f32	s13, #112	; 0x3f800000  1.0
 8000aa2:	ed9d 6a01 	vldr	s12, [sp, #4]
 8000aa6:	ecb4 7a01 	vldmia	r4!, {s14}
 8000aaa:	eec7 7a06 	vdiv.f32	s15, s14, s12
 8000aae:	42a6      	cmp	r6, r4
 8000ab0:	ee77 7ae6 	vsub.f32	s15, s15, s13
 8000ab4:	ece5 7a01 	vstmia	r5!, {s15}
 8000ab8:	d1f5      	bne.n	8000aa6 <inst_centralized_normalized_absolute+0xa2>
 8000aba:	4640      	mov	r0, r8
 8000abc:	f004 fda8 	bl	8005610 <free>
 8000ac0:	4648      	mov	r0, r9
 8000ac2:	b005      	add	sp, #20
 8000ac4:	ecbd 8b02 	vpop	{d8}
 8000ac8:	e8bd 4ff0 	ldmia.w	sp!, {r4, r5, r6, r7, r8, r9, sl, fp, lr}
 8000acc:	f004 bda0 	b.w	8005610 <free>
 8000ad0:	4639      	mov	r1, r7
 8000ad2:	aa01      	add	r2, sp, #4
 8000ad4:	4648      	mov	r0, r9
 8000ad6:	f004 faef 	bl	80050b8 <arm_mean_f32>
 8000ada:	e7ee      	b.n	8000aba <inst_centralized_normalized_absolute+0xb6>
 8000adc:	f004 fb8c 	bl	80051f8 <sqrtf>
 8000ae0:	45a3      	cmp	fp, r4
 8000ae2:	ecaa 8a01 	vstmia	sl!, {s16}
 8000ae6:	d1aa      	bne.n	8000a3e <inst_centralized_normalized_absolute+0x3a>
 8000ae8:	e7bd      	b.n	8000a66 <inst_centralized_normalized_absolute+0x62>
 8000aea:	bf00      	nop
 8000aec:	08008900 	.word	0x08008900

08000af0 <mean_of_squared>:
 8000af0:	4b0a      	ldr	r3, [pc, #40]	; (8000b1c <mean_of_squared+0x2c>)
 8000af2:	b530      	push	{r4, r5, lr}
 8000af4:	881c      	ldrh	r4, [r3, #0]
 8000af6:	b083      	sub	sp, #12
 8000af8:	460d      	mov	r5, r1
 8000afa:	aa01      	add	r2, sp, #4
 8000afc:	4621      	mov	r1, r4
 8000afe:	f004 faa1 	bl	8005044 <arm_power_f32>
 8000b02:	ee07 4a90 	vmov	s15, r4
 8000b06:	eddd 6a01 	vldr	s13, [sp, #4]
 8000b0a:	eef8 7a67 	vcvt.f32.u32	s15, s15
 8000b0e:	ee86 7aa7 	vdiv.f32	s14, s13, s15
 8000b12:	ed85 7a00 	vstr	s14, [r5]
 8000b16:	b003      	add	sp, #12
 8000b18:	bd30      	pop	{r4, r5, pc}
 8000b1a:	bf00      	nop
 8000b1c:	08008900 	.word	0x08008900

08000b20 <std_dev>:
 8000b20:	4b02      	ldr	r3, [pc, #8]	; (8000b2c <std_dev+0xc>)
 8000b22:	460a      	mov	r2, r1
 8000b24:	8819      	ldrh	r1, [r3, #0]
 8000b26:	f004 ba15 	b.w	8004f54 <arm_std_f32>
 8000b2a:	bf00      	nop
 8000b2c:	08008900 	.word	0x08008900

08000b30 <MX_GPIO_Init>:
 8000b30:	b5f0      	push	{r4, r5, r6, r7, lr}
 8000b32:	4b3e      	ldr	r3, [pc, #248]	; (8000c2c <MX_GPIO_Init+0xfc>)
 8000b34:	b08d      	sub	sp, #52	; 0x34
 8000b36:	2400      	movs	r4, #0
 8000b38:	2501      	movs	r5, #1
 8000b3a:	4f3d      	ldr	r7, [pc, #244]	; (8000c30 <MX_GPIO_Init+0x100>)
 8000b3c:	f244 0101 	movw	r1, #16385	; 0x4001
 8000b40:	9408      	str	r4, [sp, #32]
 8000b42:	4622      	mov	r2, r4
 8000b44:	9407      	str	r4, [sp, #28]
 8000b46:	940b      	str	r4, [sp, #44]	; 0x2c
 8000b48:	4e3a      	ldr	r6, [pc, #232]	; (8000c34 <MX_GPIO_Init+0x104>)
 8000b4a:	e9cd 4409 	strd	r4, r4, [sp, #36]	; 0x24
 8000b4e:	f8d3 00e0 	ldr.w	r0, [r3, #224]	; 0xe0
 8000b52:	f040 0004 	orr.w	r0, r0, #4
 8000b56:	f8c3 00e0 	str.w	r0, [r3, #224]	; 0xe0
 8000b5a:	f8d3 00e0 	ldr.w	r0, [r3, #224]	; 0xe0
 8000b5e:	f000 0004 	and.w	r0, r0, #4
 8000b62:	9001      	str	r0, [sp, #4]
 8000b64:	9801      	ldr	r0, [sp, #4]
 8000b66:	f8d3 00e0 	ldr.w	r0, [r3, #224]	; 0xe0
 8000b6a:	f040 0080 	orr.w	r0, r0, #128	; 0x80
 8000b6e:	f8c3 00e0 	str.w	r0, [r3, #224]	; 0xe0
 8000b72:	f8d3 00e0 	ldr.w	r0, [r3, #224]	; 0xe0
 8000b76:	f000 0080 	and.w	r0, r0, #128	; 0x80
 8000b7a:	9002      	str	r0, [sp, #8]
 8000b7c:	9802      	ldr	r0, [sp, #8]
 8000b7e:	f8d3 00e0 	ldr.w	r0, [r3, #224]	; 0xe0
 8000b82:	f040 0002 	orr.w	r0, r0, #2
 8000b86:	f8c3 00e0 	str.w	r0, [r3, #224]	; 0xe0
 8000b8a:	f8d3 00e0 	ldr.w	r0, [r3, #224]	; 0xe0
 8000b8e:	f000 0002 	and.w	r0, r0, #2
 8000b92:	9003      	str	r0, [sp, #12]
 8000b94:	9803      	ldr	r0, [sp, #12]
 8000b96:	f8d3 00e0 	ldr.w	r0, [r3, #224]	; 0xe0
 8000b9a:	f040 0008 	orr.w	r0, r0, #8
 8000b9e:	f8c3 00e0 	str.w	r0, [r3, #224]	; 0xe0
 8000ba2:	f8d3 00e0 	ldr.w	r0, [r3, #224]	; 0xe0
 8000ba6:	f000 0008 	and.w	r0, r0, #8
 8000baa:	9004      	str	r0, [sp, #16]
 8000bac:	9804      	ldr	r0, [sp, #16]
 8000bae:	f8d3 00e0 	ldr.w	r0, [r3, #224]	; 0xe0
 8000bb2:	4328      	orrs	r0, r5
 8000bb4:	f8c3 00e0 	str.w	r0, [r3, #224]	; 0xe0
 8000bb8:	f8d3 00e0 	ldr.w	r0, [r3, #224]	; 0xe0
 8000bbc:	4028      	ands	r0, r5
 8000bbe:	9005      	str	r0, [sp, #20]
 8000bc0:	9805      	ldr	r0, [sp, #20]
 8000bc2:	f8d3 00e0 	ldr.w	r0, [r3, #224]	; 0xe0
 8000bc6:	f040 0010 	orr.w	r0, r0, #16
 8000bca:	f8c3 00e0 	str.w	r0, [r3, #224]	; 0xe0
 8000bce:	4638      	mov	r0, r7
 8000bd0:	f8d3 30e0 	ldr.w	r3, [r3, #224]	; 0xe0
 8000bd4:	f003 0310 	and.w	r3, r3, #16
 8000bd8:	9306      	str	r3, [sp, #24]
 8000bda:	9b06      	ldr	r3, [sp, #24]
 8000bdc:	f001 f8c6 	bl	8001d6c <HAL_GPIO_WritePin>
 8000be0:	4622      	mov	r2, r4
 8000be2:	4630      	mov	r0, r6
 8000be4:	2102      	movs	r1, #2
 8000be6:	f001 f8c1 	bl	8001d6c <HAL_GPIO_WritePin>
 8000bea:	f244 0301 	movw	r3, #16385	; 0x4001
 8000bee:	4638      	mov	r0, r7
 8000bf0:	a907      	add	r1, sp, #28
 8000bf2:	2702      	movs	r7, #2
 8000bf4:	9409      	str	r4, [sp, #36]	; 0x24
 8000bf6:	940a      	str	r4, [sp, #40]	; 0x28
 8000bf8:	e9cd 3507 	strd	r3, r5, [sp, #28]
 8000bfc:	f000 ff98 	bl	8001b30 <HAL_GPIO_Init>
 8000c00:	f44f 52c8 	mov.w	r2, #6400	; 0x1900
 8000c04:	230a      	movs	r3, #10
 8000c06:	a907      	add	r1, sp, #28
 8000c08:	480b      	ldr	r0, [pc, #44]	; (8000c38 <MX_GPIO_Init+0x108>)
 8000c0a:	9207      	str	r2, [sp, #28]
 8000c0c:	930b      	str	r3, [sp, #44]	; 0x2c
 8000c0e:	9708      	str	r7, [sp, #32]
 8000c10:	e9cd 4409 	strd	r4, r4, [sp, #36]	; 0x24
 8000c14:	f000 ff8c 	bl	8001b30 <HAL_GPIO_Init>
 8000c18:	a907      	add	r1, sp, #28
 8000c1a:	4630      	mov	r0, r6
 8000c1c:	e9cd 7507 	strd	r7, r5, [sp, #28]
 8000c20:	e9cd 4409 	strd	r4, r4, [sp, #36]	; 0x24
 8000c24:	f000 ff84 	bl	8001b30 <HAL_GPIO_Init>
 8000c28:	b00d      	add	sp, #52	; 0x34
 8000c2a:	bdf0      	pop	{r4, r5, r6, r7, pc}
 8000c2c:	58024400 	.word	0x58024400
 8000c30:	58020400 	.word	0x58020400
 8000c34:	58021000 	.word	0x58021000
 8000c38:	58020000 	.word	0x58020000

08000c3c <SystemClock_Config>:
 8000c3c:	b5f0      	push	{r4, r5, r6, r7, lr}
 8000c3e:	b0cd      	sub	sp, #308	; 0x134
 8000c40:	224c      	movs	r2, #76	; 0x4c
 8000c42:	2100      	movs	r1, #0
 8000c44:	a80a      	add	r0, sp, #40	; 0x28
 8000c46:	f004 ff2c 	bl	8005aa2 <memset>
 8000c4a:	2220      	movs	r2, #32
 8000c4c:	2100      	movs	r1, #0
 8000c4e:	a802      	add	r0, sp, #8
 8000c50:	f004 ff27 	bl	8005aa2 <memset>
 8000c54:	22bc      	movs	r2, #188	; 0xbc
 8000c56:	2100      	movs	r1, #0
 8000c58:	a81d      	add	r0, sp, #116	; 0x74
 8000c5a:	f004 ff22 	bl	8005aa2 <memset>
 8000c5e:	2004      	movs	r0, #4
 8000c60:	f001 f89e 	bl	8001da0 <HAL_PWREx_ConfigSupply>
 8000c64:	4924      	ldr	r1, [pc, #144]	; (8000cf8 <SystemClock_Config+0xbc>)
 8000c66:	2200      	movs	r2, #0
 8000c68:	4b24      	ldr	r3, [pc, #144]	; (8000cfc <SystemClock_Config+0xc0>)
 8000c6a:	9201      	str	r2, [sp, #4]
 8000c6c:	461a      	mov	r2, r3
 8000c6e:	6ac8      	ldr	r0, [r1, #44]	; 0x2c
 8000c70:	f020 0001 	bic.w	r0, r0, #1
 8000c74:	62c8      	str	r0, [r1, #44]	; 0x2c
 8000c76:	6ac9      	ldr	r1, [r1, #44]	; 0x2c
 8000c78:	f001 0101 	and.w	r1, r1, #1
 8000c7c:	9101      	str	r1, [sp, #4]
 8000c7e:	6999      	ldr	r1, [r3, #24]
 8000c80:	f441 4140 	orr.w	r1, r1, #49152	; 0xc000
 8000c84:	6199      	str	r1, [r3, #24]
 8000c86:	699b      	ldr	r3, [r3, #24]
 8000c88:	f403 4340 	and.w	r3, r3, #49152	; 0xc000
 8000c8c:	9301      	str	r3, [sp, #4]
 8000c8e:	9b01      	ldr	r3, [sp, #4]
 8000c90:	6993      	ldr	r3, [r2, #24]
 8000c92:	049b      	lsls	r3, r3, #18
 8000c94:	d5fc      	bpl.n	8000c90 <SystemClock_Config+0x54>
 8000c96:	2540      	movs	r5, #64	; 0x40
 8000c98:	2001      	movs	r0, #1
 8000c9a:	2402      	movs	r4, #2
 8000c9c:	2600      	movs	r6, #0
 8000c9e:	2104      	movs	r1, #4
 8000ca0:	2232      	movs	r2, #50	; 0x32
 8000ca2:	230c      	movs	r3, #12
 8000ca4:	940a      	str	r4, [sp, #40]	; 0x28
 8000ca6:	9115      	str	r1, [sp, #84]	; 0x54
 8000ca8:	2703      	movs	r7, #3
 8000caa:	9216      	str	r2, [sp, #88]	; 0x58
 8000cac:	931a      	str	r3, [sp, #104]	; 0x68
 8000cae:	9413      	str	r4, [sp, #76]	; 0x4c
 8000cb0:	9417      	str	r4, [sp, #92]	; 0x5c
 8000cb2:	9614      	str	r6, [sp, #80]	; 0x50
 8000cb4:	e9cd 050d 	strd	r0, r5, [sp, #52]	; 0x34
 8000cb8:	a80a      	add	r0, sp, #40	; 0x28
 8000cba:	e9cd 4418 	strd	r4, r4, [sp, #96]	; 0x60
 8000cbe:	e9cd 661b 	strd	r6, r6, [sp, #108]	; 0x6c
 8000cc2:	f001 f8ad 	bl	8001e20 <HAL_RCC_OscConfig>
 8000cc6:	2208      	movs	r2, #8
 8000cc8:	f04f 0c3f 	mov.w	ip, #63	; 0x3f
 8000ccc:	f44f 6380 	mov.w	r3, #1024	; 0x400
 8000cd0:	4621      	mov	r1, r4
 8000cd2:	eb0d 0002 	add.w	r0, sp, r2
 8000cd6:	9205      	str	r2, [sp, #20]
 8000cd8:	9308      	str	r3, [sp, #32]
 8000cda:	9604      	str	r6, [sp, #16]
 8000cdc:	9509      	str	r5, [sp, #36]	; 0x24
 8000cde:	e9cd c702 	strd	ip, r7, [sp, #8]
 8000ce2:	e9cd 5506 	strd	r5, r5, [sp, #24]
 8000ce6:	f001 fc1f 	bl	8002528 <HAL_RCC_ClockConfig>
 8000cea:	a81d      	add	r0, sp, #116	; 0x74
 8000cec:	941d      	str	r4, [sp, #116]	; 0x74
 8000cee:	973a      	str	r7, [sp, #232]	; 0xe8
 8000cf0:	f002 f844 	bl	8002d7c <HAL_RCCEx_PeriphCLKConfig>
 8000cf4:	b04d      	add	sp, #308	; 0x134
 8000cf6:	bdf0      	pop	{r4, r5, r6, r7, pc}
 8000cf8:	58000400 	.word	0x58000400
 8000cfc:	58024800 	.word	0x58024800

08000d00 <clear_leds>:
 8000d00:	b510      	push	{r4, lr}
 8000d02:	4c09      	ldr	r4, [pc, #36]	; (8000d28 <clear_leds+0x28>)
 8000d04:	2200      	movs	r2, #0
 8000d06:	2101      	movs	r1, #1
 8000d08:	4620      	mov	r0, r4
 8000d0a:	f001 f82f 	bl	8001d6c <HAL_GPIO_WritePin>
 8000d0e:	2200      	movs	r2, #0
 8000d10:	2102      	movs	r1, #2
 8000d12:	4806      	ldr	r0, [pc, #24]	; (8000d2c <clear_leds+0x2c>)
 8000d14:	f001 f82a 	bl	8001d6c <HAL_GPIO_WritePin>
 8000d18:	4620      	mov	r0, r4
 8000d1a:	2200      	movs	r2, #0
 8000d1c:	f44f 4180 	mov.w	r1, #16384	; 0x4000
 8000d20:	e8bd 4010 	ldmia.w	sp!, {r4, lr}
 8000d24:	f001 b822 	b.w	8001d6c <HAL_GPIO_WritePin>
 8000d28:	58020400 	.word	0x58020400
 8000d2c:	58021000 	.word	0x58021000

08000d30 <blink_orange_slow>:
 8000d30:	b510      	push	{r4, lr}
 8000d32:	4c0a      	ldr	r4, [pc, #40]	; (8000d5c <blink_orange_slow+0x2c>)
 8000d34:	2200      	movs	r2, #0
 8000d36:	2102      	movs	r1, #2
 8000d38:	4620      	mov	r0, r4
 8000d3a:	f001 f817 	bl	8001d6c <HAL_GPIO_WritePin>
 8000d3e:	f44f 70fa 	mov.w	r0, #500	; 0x1f4
 8000d42:	f000 fd9f 	bl	8001884 <HAL_Delay>
 8000d46:	4620      	mov	r0, r4
 8000d48:	2201      	movs	r2, #1
 8000d4a:	2102      	movs	r1, #2
 8000d4c:	f001 f80e 	bl	8001d6c <HAL_GPIO_WritePin>
 8000d50:	f44f 70fa 	mov.w	r0, #500	; 0x1f4
 8000d54:	e8bd 4010 	ldmia.w	sp!, {r4, lr}
 8000d58:	f000 bd94 	b.w	8001884 <HAL_Delay>
 8000d5c:	58021000 	.word	0x58021000

08000d60 <transmit_features>:
 8000d60:	b5f8      	push	{r3, r4, r5, r6, r7, lr}
 8000d62:	4607      	mov	r7, r0
 8000d64:	4843      	ldr	r0, [pc, #268]	; (8000e74 <transmit_features+0x114>)
 8000d66:	460e      	mov	r6, r1
 8000d68:	f003 ffc8 	bl	8004cfc <UART_CheckIdleState>
 8000d6c:	b100      	cbz	r0, 8000d70 <transmit_features+0x10>
 8000d6e:	bdf8      	pop	{r3, r4, r5, r6, r7, pc}
 8000d70:	4c41      	ldr	r4, [pc, #260]	; (8000e78 <transmit_features+0x118>)
 8000d72:	2204      	movs	r2, #4
 8000d74:	4941      	ldr	r1, [pc, #260]	; (8000e7c <transmit_features+0x11c>)
 8000d76:	483f      	ldr	r0, [pc, #252]	; (8000e74 <transmit_features+0x114>)
 8000d78:	f003 f90e 	bl	8003f98 <HAL_UART_Transmit_IT>
 8000d7c:	7823      	ldrb	r3, [r4, #0]
 8000d7e:	2b01      	cmp	r3, #1
 8000d80:	d015      	beq.n	8000dae <transmit_features+0x4e>
 8000d82:	4d3f      	ldr	r5, [pc, #252]	; (8000e80 <transmit_features+0x120>)
 8000d84:	2200      	movs	r2, #0
 8000d86:	f44f 4180 	mov.w	r1, #16384	; 0x4000
 8000d8a:	4628      	mov	r0, r5
 8000d8c:	f000 ffee 	bl	8001d6c <HAL_GPIO_WritePin>
 8000d90:	2032      	movs	r0, #50	; 0x32
 8000d92:	f000 fd77 	bl	8001884 <HAL_Delay>
 8000d96:	2201      	movs	r2, #1
 8000d98:	f44f 4180 	mov.w	r1, #16384	; 0x4000
 8000d9c:	4628      	mov	r0, r5
 8000d9e:	f000 ffe5 	bl	8001d6c <HAL_GPIO_WritePin>
 8000da2:	2032      	movs	r0, #50	; 0x32
 8000da4:	f000 fd6e 	bl	8001884 <HAL_Delay>
 8000da8:	7823      	ldrb	r3, [r4, #0]
 8000daa:	2b01      	cmp	r3, #1
 8000dac:	d1ea      	bne.n	8000d84 <transmit_features+0x24>
 8000dae:	2300      	movs	r3, #0
 8000db0:	4639      	mov	r1, r7
 8000db2:	2204      	movs	r2, #4
 8000db4:	482f      	ldr	r0, [pc, #188]	; (8000e74 <transmit_features+0x114>)
 8000db6:	7023      	strb	r3, [r4, #0]
 8000db8:	f003 f8ee 	bl	8003f98 <HAL_UART_Transmit_IT>
 8000dbc:	7823      	ldrb	r3, [r4, #0]
 8000dbe:	2b01      	cmp	r3, #1
 8000dc0:	d015      	beq.n	8000dee <transmit_features+0x8e>
 8000dc2:	4d2f      	ldr	r5, [pc, #188]	; (8000e80 <transmit_features+0x120>)
 8000dc4:	2200      	movs	r2, #0
 8000dc6:	f44f 4180 	mov.w	r1, #16384	; 0x4000
 8000dca:	4628      	mov	r0, r5
 8000dcc:	f000 ffce 	bl	8001d6c <HAL_GPIO_WritePin>
 8000dd0:	2032      	movs	r0, #50	; 0x32
 8000dd2:	f000 fd57 	bl	8001884 <HAL_Delay>
 8000dd6:	2201      	movs	r2, #1
 8000dd8:	f44f 4180 	mov.w	r1, #16384	; 0x4000
 8000ddc:	4628      	mov	r0, r5
 8000dde:	f000 ffc5 	bl	8001d6c <HAL_GPIO_WritePin>
 8000de2:	2032      	movs	r0, #50	; 0x32
 8000de4:	f000 fd4e 	bl	8001884 <HAL_Delay>
 8000de8:	7823      	ldrb	r3, [r4, #0]
 8000dea:	2b01      	cmp	r3, #1
 8000dec:	d1ea      	bne.n	8000dc4 <transmit_features+0x64>
 8000dee:	2300      	movs	r3, #0
 8000df0:	4631      	mov	r1, r6
 8000df2:	2204      	movs	r2, #4
 8000df4:	481f      	ldr	r0, [pc, #124]	; (8000e74 <transmit_features+0x114>)
 8000df6:	7023      	strb	r3, [r4, #0]
 8000df8:	f003 f8ce 	bl	8003f98 <HAL_UART_Transmit_IT>
 8000dfc:	7823      	ldrb	r3, [r4, #0]
 8000dfe:	2b01      	cmp	r3, #1
 8000e00:	d015      	beq.n	8000e2e <transmit_features+0xce>
 8000e02:	4d1f      	ldr	r5, [pc, #124]	; (8000e80 <transmit_features+0x120>)
 8000e04:	2200      	movs	r2, #0
 8000e06:	f44f 4180 	mov.w	r1, #16384	; 0x4000
 8000e0a:	4628      	mov	r0, r5
 8000e0c:	f000 ffae 	bl	8001d6c <HAL_GPIO_WritePin>
 8000e10:	2032      	movs	r0, #50	; 0x32
 8000e12:	f000 fd37 	bl	8001884 <HAL_Delay>
 8000e16:	2201      	movs	r2, #1
 8000e18:	f44f 4180 	mov.w	r1, #16384	; 0x4000
 8000e1c:	4628      	mov	r0, r5
 8000e1e:	f000 ffa5 	bl	8001d6c <HAL_GPIO_WritePin>
 8000e22:	2032      	movs	r0, #50	; 0x32
 8000e24:	f000 fd2e 	bl	8001884 <HAL_Delay>
 8000e28:	7823      	ldrb	r3, [r4, #0]
 8000e2a:	2b01      	cmp	r3, #1
 8000e2c:	d1ea      	bne.n	8000e04 <transmit_features+0xa4>
 8000e2e:	2300      	movs	r3, #0
 8000e30:	2204      	movs	r2, #4
 8000e32:	4914      	ldr	r1, [pc, #80]	; (8000e84 <transmit_features+0x124>)
 8000e34:	480f      	ldr	r0, [pc, #60]	; (8000e74 <transmit_features+0x114>)
 8000e36:	7023      	strb	r3, [r4, #0]
 8000e38:	f003 f8ae 	bl	8003f98 <HAL_UART_Transmit_IT>
 8000e3c:	7823      	ldrb	r3, [r4, #0]
 8000e3e:	2b01      	cmp	r3, #1
 8000e40:	d015      	beq.n	8000e6e <transmit_features+0x10e>
 8000e42:	4d0f      	ldr	r5, [pc, #60]	; (8000e80 <transmit_features+0x120>)
 8000e44:	2200      	movs	r2, #0
 8000e46:	f44f 4180 	mov.w	r1, #16384	; 0x4000
 8000e4a:	4628      	mov	r0, r5
 8000e4c:	f000 ff8e 	bl	8001d6c <HAL_GPIO_WritePin>
 8000e50:	2032      	movs	r0, #50	; 0x32
 8000e52:	f000 fd17 	bl	8001884 <HAL_Delay>
 8000e56:	2201      	movs	r2, #1
 8000e58:	f44f 4180 	mov.w	r1, #16384	; 0x4000
 8000e5c:	4628      	mov	r0, r5
 8000e5e:	f000 ff85 	bl	8001d6c <HAL_GPIO_WritePin>
 8000e62:	2032      	movs	r0, #50	; 0x32
 8000e64:	f000 fd0e 	bl	8001884 <HAL_Delay>
 8000e68:	7823      	ldrb	r3, [r4, #0]
 8000e6a:	2b01      	cmp	r3, #1
 8000e6c:	d1ea      	bne.n	8000e44 <transmit_features+0xe4>
 8000e6e:	2300      	movs	r3, #0
 8000e70:	7023      	strb	r3, [r4, #0]
 8000e72:	bdf8      	pop	{r3, r4, r5, r6, r7, pc}
 8000e74:	24014038 	.word	0x24014038
 8000e78:	240009dc 	.word	0x240009dc
 8000e7c:	080089a0 	.word	0x080089a0
 8000e80:	58020400 	.word	0x58020400
 8000e84:	080089a4 	.word	0x080089a4

08000e88 <transmit_array>:
 8000e88:	b5f8      	push	{r3, r4, r5, r6, r7, lr}
 8000e8a:	4606      	mov	r6, r0
 8000e8c:	4833      	ldr	r0, [pc, #204]	; (8000f5c <transmit_array+0xd4>)
 8000e8e:	460f      	mov	r7, r1
 8000e90:	f003 ff34 	bl	8004cfc <UART_CheckIdleState>
 8000e94:	b100      	cbz	r0, 8000e98 <transmit_array+0x10>
 8000e96:	bdf8      	pop	{r3, r4, r5, r6, r7, pc}
 8000e98:	4c31      	ldr	r4, [pc, #196]	; (8000f60 <transmit_array+0xd8>)
 8000e9a:	2204      	movs	r2, #4
 8000e9c:	4931      	ldr	r1, [pc, #196]	; (8000f64 <transmit_array+0xdc>)
 8000e9e:	482f      	ldr	r0, [pc, #188]	; (8000f5c <transmit_array+0xd4>)
 8000ea0:	f003 f87a 	bl	8003f98 <HAL_UART_Transmit_IT>
 8000ea4:	7823      	ldrb	r3, [r4, #0]
 8000ea6:	2b01      	cmp	r3, #1
 8000ea8:	d015      	beq.n	8000ed6 <transmit_array+0x4e>
 8000eaa:	4d2f      	ldr	r5, [pc, #188]	; (8000f68 <transmit_array+0xe0>)
 8000eac:	2200      	movs	r2, #0
 8000eae:	f44f 4180 	mov.w	r1, #16384	; 0x4000
 8000eb2:	4628      	mov	r0, r5
 8000eb4:	f000 ff5a 	bl	8001d6c <HAL_GPIO_WritePin>
 8000eb8:	2032      	movs	r0, #50	; 0x32
 8000eba:	f000 fce3 	bl	8001884 <HAL_Delay>
 8000ebe:	2201      	movs	r2, #1
 8000ec0:	f44f 4180 	mov.w	r1, #16384	; 0x4000
 8000ec4:	4628      	mov	r0, r5
 8000ec6:	f000 ff51 	bl	8001d6c <HAL_GPIO_WritePin>
 8000eca:	2032      	movs	r0, #50	; 0x32
 8000ecc:	f000 fcda 	bl	8001884 <HAL_Delay>
 8000ed0:	7823      	ldrb	r3, [r4, #0]
 8000ed2:	2b01      	cmp	r3, #1
 8000ed4:	d1ea      	bne.n	8000eac <transmit_array+0x24>
 8000ed6:	2300      	movs	r3, #0
 8000ed8:	463a      	mov	r2, r7
 8000eda:	4631      	mov	r1, r6
 8000edc:	481f      	ldr	r0, [pc, #124]	; (8000f5c <transmit_array+0xd4>)
 8000ede:	7023      	strb	r3, [r4, #0]
 8000ee0:	f003 f85a 	bl	8003f98 <HAL_UART_Transmit_IT>
 8000ee4:	7823      	ldrb	r3, [r4, #0]
 8000ee6:	2b01      	cmp	r3, #1
 8000ee8:	d015      	beq.n	8000f16 <transmit_array+0x8e>
 8000eea:	4d1f      	ldr	r5, [pc, #124]	; (8000f68 <transmit_array+0xe0>)
 8000eec:	2200      	movs	r2, #0
 8000eee:	f44f 4180 	mov.w	r1, #16384	; 0x4000
 8000ef2:	4628      	mov	r0, r5
 8000ef4:	f000 ff3a 	bl	8001d6c <HAL_GPIO_WritePin>
 8000ef8:	2032      	movs	r0, #50	; 0x32
 8000efa:	f000 fcc3 	bl	8001884 <HAL_Delay>
 8000efe:	2201      	movs	r2, #1
 8000f00:	f44f 4180 	mov.w	r1, #16384	; 0x4000
 8000f04:	4628      	mov	r0, r5
 8000f06:	f000 ff31 	bl	8001d6c <HAL_GPIO_WritePin>
 8000f0a:	2032      	movs	r0, #50	; 0x32
 8000f0c:	f000 fcba 	bl	8001884 <HAL_Delay>
 8000f10:	7823      	ldrb	r3, [r4, #0]
 8000f12:	2b01      	cmp	r3, #1
 8000f14:	d1ea      	bne.n	8000eec <transmit_array+0x64>
 8000f16:	2300      	movs	r3, #0
 8000f18:	2204      	movs	r2, #4
 8000f1a:	4914      	ldr	r1, [pc, #80]	; (8000f6c <transmit_array+0xe4>)
 8000f1c:	480f      	ldr	r0, [pc, #60]	; (8000f5c <transmit_array+0xd4>)
 8000f1e:	7023      	strb	r3, [r4, #0]
 8000f20:	f003 f83a 	bl	8003f98 <HAL_UART_Transmit_IT>
 8000f24:	7823      	ldrb	r3, [r4, #0]
 8000f26:	2b01      	cmp	r3, #1
 8000f28:	d015      	beq.n	8000f56 <transmit_array+0xce>
 8000f2a:	4d0f      	ldr	r5, [pc, #60]	; (8000f68 <transmit_array+0xe0>)
 8000f2c:	2200      	movs	r2, #0
 8000f2e:	f44f 4180 	mov.w	r1, #16384	; 0x4000
 8000f32:	4628      	mov	r0, r5
 8000f34:	f000 ff1a 	bl	8001d6c <HAL_GPIO_WritePin>
 8000f38:	2032      	movs	r0, #50	; 0x32
 8000f3a:	f000 fca3 	bl	8001884 <HAL_Delay>
 8000f3e:	2201      	movs	r2, #1
 8000f40:	f44f 4180 	mov.w	r1, #16384	; 0x4000
 8000f44:	4628      	mov	r0, r5
 8000f46:	f000 ff11 	bl	8001d6c <HAL_GPIO_WritePin>
 8000f4a:	2032      	movs	r0, #50	; 0x32
 8000f4c:	f000 fc9a 	bl	8001884 <HAL_Delay>
 8000f50:	7823      	ldrb	r3, [r4, #0]
 8000f52:	2b01      	cmp	r3, #1
 8000f54:	d1ea      	bne.n	8000f2c <transmit_array+0xa4>
 8000f56:	2300      	movs	r3, #0
 8000f58:	7023      	strb	r3, [r4, #0]
 8000f5a:	bdf8      	pop	{r3, r4, r5, r6, r7, pc}
 8000f5c:	24014038 	.word	0x24014038
 8000f60:	240009dc 	.word	0x240009dc
 8000f64:	080089a0 	.word	0x080089a0
 8000f68:	58020400 	.word	0x58020400
 8000f6c:	080089a4 	.word	0x080089a4

08000f70 <main>:
 8000f70:	b5f0      	push	{r4, r5, r6, r7, lr}
 8000f72:	b089      	sub	sp, #36	; 0x24
 8000f74:	f3bf 8f4f 	dsb	sy
 8000f78:	f3bf 8f6f 	isb	sy
 8000f7c:	4a2e      	ldr	r2, [pc, #184]	; (8001038 <main+0xc8>)
 8000f7e:	2100      	movs	r1, #0
 8000f80:	f8c2 1250 	str.w	r1, [r2, #592]	; 0x250
 8000f84:	f3bf 8f4f 	dsb	sy
 8000f88:	f3bf 8f6f 	isb	sy
 8000f8c:	6953      	ldr	r3, [r2, #20]
 8000f8e:	f443 3300 	orr.w	r3, r3, #131072	; 0x20000
 8000f92:	6153      	str	r3, [r2, #20]
 8000f94:	f3bf 8f4f 	dsb	sy
 8000f98:	f3bf 8f6f 	isb	sy
 8000f9c:	f8c2 1084 	str.w	r1, [r2, #132]	; 0x84
 8000fa0:	f3bf 8f4f 	dsb	sy
 8000fa4:	f8d2 3080 	ldr.w	r3, [r2, #128]	; 0x80
 8000fa8:	f643 7ce0 	movw	ip, #16352	; 0x3fe0
 8000fac:	f3c3 06c9 	ubfx	r6, r3, #3, #10
 8000fb0:	f3c3 334e 	ubfx	r3, r3, #13, #15
 8000fb4:	07b7      	lsls	r7, r6, #30
 8000fb6:	015c      	lsls	r4, r3, #5
 8000fb8:	ea04 050c 	and.w	r5, r4, ip
 8000fbc:	4638      	mov	r0, r7
 8000fbe:	4631      	mov	r1, r6
 8000fc0:	ea40 0305 	orr.w	r3, r0, r5
 8000fc4:	3901      	subs	r1, #1
 8000fc6:	f100 4040 	add.w	r0, r0, #3221225472	; 0xc0000000
 8000fca:	f8c2 3260 	str.w	r3, [r2, #608]	; 0x260
 8000fce:	1c4b      	adds	r3, r1, #1
 8000fd0:	d1f6      	bne.n	8000fc0 <main+0x50>
 8000fd2:	3c20      	subs	r4, #32
 8000fd4:	f114 0f20 	cmn.w	r4, #32
 8000fd8:	d1ee      	bne.n	8000fb8 <main+0x48>
 8000fda:	f3bf 8f4f 	dsb	sy
 8000fde:	6953      	ldr	r3, [r2, #20]
 8000fe0:	f443 3380 	orr.w	r3, r3, #65536	; 0x10000
 8000fe4:	6153      	str	r3, [r2, #20]
 8000fe6:	f3bf 8f4f 	dsb	sy
 8000fea:	f3bf 8f6f 	isb	sy
 8000fee:	f44f 3380 	mov.w	r3, #65536	; 0x10000
 8000ff2:	4a12      	ldr	r2, [pc, #72]	; (800103c <main+0xcc>)
 8000ff4:	e001      	b.n	8000ffa <main+0x8a>
 8000ff6:	3b01      	subs	r3, #1
 8000ff8:	d002      	beq.n	8001000 <main+0x90>
 8000ffa:	6811      	ldr	r1, [r2, #0]
 8000ffc:	0409      	lsls	r1, r1, #16
 8000ffe:	d4fa      	bmi.n	8000ff6 <main+0x86>
 8001000:	4c0e      	ldr	r4, [pc, #56]	; (800103c <main+0xcc>)
 8001002:	f000 fbfb 	bl	80017fc <HAL_Init>
 8001006:	f7ff fe19 	bl	8000c3c <SystemClock_Config>
 800100a:	2000      	movs	r0, #0
 800100c:	f8d4 30e0 	ldr.w	r3, [r4, #224]	; 0xe0
 8001010:	f043 7300 	orr.w	r3, r3, #33554432	; 0x2000000
 8001014:	f8c4 30e0 	str.w	r3, [r4, #224]	; 0xe0
 8001018:	f8d4 30e0 	ldr.w	r3, [r4, #224]	; 0xe0
 800101c:	f003 7300 	and.w	r3, r3, #33554432	; 0x2000000
 8001020:	9307      	str	r3, [sp, #28]
 8001022:	9b07      	ldr	r3, [sp, #28]
 8001024:	f000 fea6 	bl	8001d74 <HAL_HSEM_FastTake>
 8001028:	2100      	movs	r1, #0
 800102a:	4608      	mov	r0, r1
 800102c:	f000 feb0 	bl	8001d90 <HAL_HSEM_Release>
 8001030:	f44f 3380 	mov.w	r3, #65536	; 0x10000
 8001034:	e006      	b.n	8001044 <main+0xd4>
 8001036:	bf00      	nop
 8001038:	e000ed00 	.word	0xe000ed00
 800103c:	58024400 	.word	0x58024400
 8001040:	3b01      	subs	r3, #1
 8001042:	d002      	beq.n	800104a <main+0xda>
 8001044:	6822      	ldr	r2, [r4, #0]
 8001046:	0412      	lsls	r2, r2, #16
 8001048:	d5fa      	bpl.n	8001040 <main+0xd0>
 800104a:	4db8      	ldr	r5, [pc, #736]	; (800132c <main+0x3bc>)
 800104c:	f7ff fd70 	bl	8000b30 <MX_GPIO_Init>
 8001050:	f000 fb0a 	bl	8001668 <MX_USART3_UART_Init>
 8001054:	f000 faba 	bl	80015cc <MX_TIM2_Init>
 8001058:	f44f 5200 	mov.w	r2, #8192	; 0x2000
 800105c:	49b4      	ldr	r1, [pc, #720]	; (8001330 <main+0x3c0>)
 800105e:	48b5      	ldr	r0, [pc, #724]	; (8001334 <main+0x3c4>)
 8001060:	f002 fff8 	bl	8004054 <HAL_UART_Receive_IT>
 8001064:	782b      	ldrb	r3, [r5, #0]
 8001066:	2b01      	cmp	r3, #1
 8001068:	d027      	beq.n	80010ba <main+0x14a>
 800106a:	4cb3      	ldr	r4, [pc, #716]	; (8001338 <main+0x3c8>)
 800106c:	f44f 70fa 	mov.w	r0, #500	; 0x1f4
 8001070:	f000 fc08 	bl	8001884 <HAL_Delay>
 8001074:	2200      	movs	r2, #0
 8001076:	2101      	movs	r1, #1
 8001078:	4620      	mov	r0, r4
 800107a:	f000 fe77 	bl	8001d6c <HAL_GPIO_WritePin>
 800107e:	20c8      	movs	r0, #200	; 0xc8
 8001080:	f000 fc00 	bl	8001884 <HAL_Delay>
 8001084:	2201      	movs	r2, #1
 8001086:	4620      	mov	r0, r4
 8001088:	4611      	mov	r1, r2
 800108a:	f000 fe6f 	bl	8001d6c <HAL_GPIO_WritePin>
 800108e:	20c8      	movs	r0, #200	; 0xc8
 8001090:	f000 fbf8 	bl	8001884 <HAL_Delay>
 8001094:	2200      	movs	r2, #0
 8001096:	2101      	movs	r1, #1
 8001098:	4620      	mov	r0, r4
 800109a:	f000 fe67 	bl	8001d6c <HAL_GPIO_WritePin>
 800109e:	20c8      	movs	r0, #200	; 0xc8
 80010a0:	f000 fbf0 	bl	8001884 <HAL_Delay>
 80010a4:	2201      	movs	r2, #1
 80010a6:	4620      	mov	r0, r4
 80010a8:	4611      	mov	r1, r2
 80010aa:	f000 fe5f 	bl	8001d6c <HAL_GPIO_WritePin>
 80010ae:	20c8      	movs	r0, #200	; 0xc8
 80010b0:	f000 fbe8 	bl	8001884 <HAL_Delay>
 80010b4:	782b      	ldrb	r3, [r5, #0]
 80010b6:	2b01      	cmp	r3, #1
 80010b8:	d1d8      	bne.n	800106c <main+0xfc>
 80010ba:	2201      	movs	r2, #1
 80010bc:	2300      	movs	r3, #0
 80010be:	489e      	ldr	r0, [pc, #632]	; (8001338 <main+0x3c8>)
 80010c0:	4611      	mov	r1, r2
 80010c2:	702b      	strb	r3, [r5, #0]
 80010c4:	f000 fe52 	bl	8001d6c <HAL_GPIO_WritePin>
 80010c8:	4a99      	ldr	r2, [pc, #612]	; (8001330 <main+0x3c0>)
 80010ca:	f641 73ff 	movw	r3, #8191	; 0x1fff
 80010ce:	5cd3      	ldrb	r3, [r2, r3]
 80010d0:	b13b      	cbz	r3, 80010e2 <main+0x172>
 80010d2:	4b9a      	ldr	r3, [pc, #616]	; (800133c <main+0x3cc>)
 80010d4:	781b      	ldrb	r3, [r3, #0]
 80010d6:	b923      	cbnz	r3, 80010e2 <main+0x172>
 80010d8:	2201      	movs	r2, #1
 80010da:	2102      	movs	r1, #2
 80010dc:	4898      	ldr	r0, [pc, #608]	; (8001340 <main+0x3d0>)
 80010de:	f000 fe45 	bl	8001d6c <HAL_GPIO_WritePin>
 80010e2:	4c98      	ldr	r4, [pc, #608]	; (8001344 <main+0x3d4>)
 80010e4:	2600      	movs	r6, #0
 80010e6:	6823      	ldr	r3, [r4, #0]
 80010e8:	4620      	mov	r0, r4
 80010ea:	681a      	ldr	r2, [r3, #0]
 80010ec:	f042 0201 	orr.w	r2, r2, #1
 80010f0:	601a      	str	r2, [r3, #0]
 80010f2:	681a      	ldr	r2, [r3, #0]
 80010f4:	f422 6200 	bic.w	r2, r2, #2048	; 0x800
 80010f8:	601a      	str	r2, [r3, #0]
 80010fa:	f002 fd6f 	bl	8003bdc <HAL_TIM_Base_Start>
 80010fe:	6823      	ldr	r3, [r4, #0]
 8001100:	4991      	ldr	r1, [pc, #580]	; (8001348 <main+0x3d8>)
 8001102:	625e      	str	r6, [r3, #36]	; 0x24
 8001104:	488a      	ldr	r0, [pc, #552]	; (8001330 <main+0x3c0>)
 8001106:	625e      	str	r6, [r3, #36]	; 0x24
 8001108:	f7ff fb0c 	bl	8000724 <inst_absolute>
 800110c:	6823      	ldr	r3, [r4, #0]
 800110e:	4631      	mov	r1, r6
 8001110:	2231      	movs	r2, #49	; 0x31
 8001112:	6a5e      	ldr	r6, [r3, #36]	; 0x24
 8001114:	488d      	ldr	r0, [pc, #564]	; (800134c <main+0x3dc>)
 8001116:	9600      	str	r6, [sp, #0]
 8001118:	f004 fcc3 	bl	8005aa2 <memset>
 800111c:	4632      	mov	r2, r6
 800111e:	498c      	ldr	r1, [pc, #560]	; (8001350 <main+0x3e0>)
 8001120:	488c      	ldr	r0, [pc, #560]	; (8001354 <main+0x3e4>)
 8001122:	f004 fce3 	bl	8005aec <sprintf>
 8001126:	4883      	ldr	r0, [pc, #524]	; (8001334 <main+0x3c4>)
 8001128:	f003 fde8 	bl	8004cfc <UART_CheckIdleState>
 800112c:	2800      	cmp	r0, #0
 800112e:	f000 8148 	beq.w	80013c2 <main+0x452>
 8001132:	f44f 707a 	mov.w	r0, #1000	; 0x3e8
 8001136:	2600      	movs	r6, #0
 8001138:	f000 fba4 	bl	8001884 <HAL_Delay>
 800113c:	f44f 5180 	mov.w	r1, #4096	; 0x1000
 8001140:	4881      	ldr	r0, [pc, #516]	; (8001348 <main+0x3d8>)
 8001142:	f7ff fea1 	bl	8000e88 <transmit_array>
 8001146:	f7ff fdf3 	bl	8000d30 <blink_orange_slow>
 800114a:	f7ff fdf1 	bl	8000d30 <blink_orange_slow>
 800114e:	6823      	ldr	r3, [r4, #0]
 8001150:	4981      	ldr	r1, [pc, #516]	; (8001358 <main+0x3e8>)
 8001152:	625e      	str	r6, [r3, #36]	; 0x24
 8001154:	4876      	ldr	r0, [pc, #472]	; (8001330 <main+0x3c0>)
 8001156:	f7ff fb17 	bl	8000788 <inst_phase>
 800115a:	6823      	ldr	r3, [r4, #0]
 800115c:	4631      	mov	r1, r6
 800115e:	2231      	movs	r2, #49	; 0x31
 8001160:	6a5e      	ldr	r6, [r3, #36]	; 0x24
 8001162:	487a      	ldr	r0, [pc, #488]	; (800134c <main+0x3dc>)
 8001164:	9600      	str	r6, [sp, #0]
 8001166:	f004 fc9c 	bl	8005aa2 <memset>
 800116a:	4632      	mov	r2, r6
 800116c:	497b      	ldr	r1, [pc, #492]	; (800135c <main+0x3ec>)
 800116e:	4879      	ldr	r0, [pc, #484]	; (8001354 <main+0x3e4>)
 8001170:	f004 fcbc 	bl	8005aec <sprintf>
 8001174:	486f      	ldr	r0, [pc, #444]	; (8001334 <main+0x3c4>)
 8001176:	f003 fdc1 	bl	8004cfc <UART_CheckIdleState>
 800117a:	2800      	cmp	r0, #0
 800117c:	f000 81a5 	beq.w	80014ca <main+0x55a>
 8001180:	f44f 707a 	mov.w	r0, #1000	; 0x3e8
 8001184:	2600      	movs	r6, #0
 8001186:	f000 fb7d 	bl	8001884 <HAL_Delay>
 800118a:	f44f 5180 	mov.w	r1, #4096	; 0x1000
 800118e:	4872      	ldr	r0, [pc, #456]	; (8001358 <main+0x3e8>)
 8001190:	f7ff fe7a 	bl	8000e88 <transmit_array>
 8001194:	f7ff fdcc 	bl	8000d30 <blink_orange_slow>
 8001198:	f7ff fdca 	bl	8000d30 <blink_orange_slow>
 800119c:	6823      	ldr	r3, [r4, #0]
 800119e:	496e      	ldr	r1, [pc, #440]	; (8001358 <main+0x3e8>)
 80011a0:	625e      	str	r6, [r3, #36]	; 0x24
 80011a2:	4863      	ldr	r0, [pc, #396]	; (8001330 <main+0x3c0>)
 80011a4:	f7ff faf0 	bl	8000788 <inst_phase>
 80011a8:	496d      	ldr	r1, [pc, #436]	; (8001360 <main+0x3f0>)
 80011aa:	486b      	ldr	r0, [pc, #428]	; (8001358 <main+0x3e8>)
 80011ac:	f7ff fb04 	bl	80007b8 <unwrap>
 80011b0:	6823      	ldr	r3, [r4, #0]
 80011b2:	4631      	mov	r1, r6
 80011b4:	2231      	movs	r2, #49	; 0x31
 80011b6:	6a5e      	ldr	r6, [r3, #36]	; 0x24
 80011b8:	4864      	ldr	r0, [pc, #400]	; (800134c <main+0x3dc>)
 80011ba:	9600      	str	r6, [sp, #0]
 80011bc:	f004 fc71 	bl	8005aa2 <memset>
 80011c0:	4632      	mov	r2, r6
 80011c2:	4968      	ldr	r1, [pc, #416]	; (8001364 <main+0x3f4>)
 80011c4:	4863      	ldr	r0, [pc, #396]	; (8001354 <main+0x3e4>)
 80011c6:	f004 fc91 	bl	8005aec <sprintf>
 80011ca:	485a      	ldr	r0, [pc, #360]	; (8001334 <main+0x3c4>)
 80011cc:	f003 fd96 	bl	8004cfc <UART_CheckIdleState>
 80011d0:	2800      	cmp	r0, #0
 80011d2:	f000 8138 	beq.w	8001446 <main+0x4d6>
 80011d6:	f44f 707a 	mov.w	r0, #1000	; 0x3e8
 80011da:	2600      	movs	r6, #0
 80011dc:	f000 fb52 	bl	8001884 <HAL_Delay>
 80011e0:	f44f 5180 	mov.w	r1, #4096	; 0x1000
 80011e4:	485e      	ldr	r0, [pc, #376]	; (8001360 <main+0x3f0>)
 80011e6:	f7ff fe4f 	bl	8000e88 <transmit_array>
 80011ea:	f7ff fda1 	bl	8000d30 <blink_orange_slow>
 80011ee:	f7ff fd9f 	bl	8000d30 <blink_orange_slow>
 80011f2:	6823      	ldr	r3, [r4, #0]
 80011f4:	495c      	ldr	r1, [pc, #368]	; (8001368 <main+0x3f8>)
 80011f6:	625e      	str	r6, [r3, #36]	; 0x24
 80011f8:	484d      	ldr	r0, [pc, #308]	; (8001330 <main+0x3c0>)
 80011fa:	f7ff fb39 	bl	8000870 <inst_frequency>
 80011fe:	6823      	ldr	r3, [r4, #0]
 8001200:	4631      	mov	r1, r6
 8001202:	2231      	movs	r2, #49	; 0x31
 8001204:	6a5e      	ldr	r6, [r3, #36]	; 0x24
 8001206:	4851      	ldr	r0, [pc, #324]	; (800134c <main+0x3dc>)
 8001208:	9600      	str	r6, [sp, #0]
 800120a:	f004 fc4a 	bl	8005aa2 <memset>
 800120e:	4632      	mov	r2, r6
 8001210:	4956      	ldr	r1, [pc, #344]	; (800136c <main+0x3fc>)
 8001212:	4850      	ldr	r0, [pc, #320]	; (8001354 <main+0x3e4>)
 8001214:	f004 fc6a 	bl	8005aec <sprintf>
 8001218:	4846      	ldr	r0, [pc, #280]	; (8001334 <main+0x3c4>)
 800121a:	f003 fd6f 	bl	8004cfc <UART_CheckIdleState>
 800121e:	2800      	cmp	r0, #0
 8001220:	f000 8132 	beq.w	8001488 <main+0x518>
 8001224:	f44f 707a 	mov.w	r0, #1000	; 0x3e8
 8001228:	2600      	movs	r6, #0
 800122a:	f000 fb2b 	bl	8001884 <HAL_Delay>
 800122e:	f44f 5180 	mov.w	r1, #4096	; 0x1000
 8001232:	484d      	ldr	r0, [pc, #308]	; (8001368 <main+0x3f8>)
 8001234:	f7ff fe28 	bl	8000e88 <transmit_array>
 8001238:	f7ff fd7a 	bl	8000d30 <blink_orange_slow>
 800123c:	f7ff fd78 	bl	8000d30 <blink_orange_slow>
 8001240:	6823      	ldr	r3, [r4, #0]
 8001242:	494b      	ldr	r1, [pc, #300]	; (8001370 <main+0x400>)
 8001244:	625e      	str	r6, [r3, #36]	; 0x24
 8001246:	483a      	ldr	r0, [pc, #232]	; (8001330 <main+0x3c0>)
 8001248:	f7ff fbdc 	bl	8000a04 <inst_centralized_normalized_absolute>
 800124c:	6823      	ldr	r3, [r4, #0]
 800124e:	4631      	mov	r1, r6
 8001250:	2231      	movs	r2, #49	; 0x31
 8001252:	6a5e      	ldr	r6, [r3, #36]	; 0x24
 8001254:	483d      	ldr	r0, [pc, #244]	; (800134c <main+0x3dc>)
 8001256:	9600      	str	r6, [sp, #0]
 8001258:	f004 fc23 	bl	8005aa2 <memset>
 800125c:	4632      	mov	r2, r6
 800125e:	4945      	ldr	r1, [pc, #276]	; (8001374 <main+0x404>)
 8001260:	483c      	ldr	r0, [pc, #240]	; (8001354 <main+0x3e4>)
 8001262:	f004 fc43 	bl	8005aec <sprintf>
 8001266:	4833      	ldr	r0, [pc, #204]	; (8001334 <main+0x3c4>)
 8001268:	f003 fd48 	bl	8004cfc <UART_CheckIdleState>
 800126c:	2800      	cmp	r0, #0
 800126e:	f000 80c9 	beq.w	8001404 <main+0x494>
 8001272:	f44f 707a 	mov.w	r0, #1000	; 0x3e8
 8001276:	2600      	movs	r6, #0
 8001278:	f000 fb04 	bl	8001884 <HAL_Delay>
 800127c:	f44f 5180 	mov.w	r1, #4096	; 0x1000
 8001280:	483b      	ldr	r0, [pc, #236]	; (8001370 <main+0x400>)
 8001282:	ad08      	add	r5, sp, #32
 8001284:	f7ff fe00 	bl	8000e88 <transmit_array>
 8001288:	f7ff fd52 	bl	8000d30 <blink_orange_slow>
 800128c:	f7ff fd50 	bl	8000d30 <blink_orange_slow>
 8001290:	6823      	ldr	r3, [r4, #0]
 8001292:	a901      	add	r1, sp, #4
 8001294:	4826      	ldr	r0, [pc, #152]	; (8001330 <main+0x3c0>)
 8001296:	625e      	str	r6, [r3, #36]	; 0x24
 8001298:	f7ff fc2a 	bl	8000af0 <mean_of_squared>
 800129c:	6823      	ldr	r3, [r4, #0]
 800129e:	a801      	add	r0, sp, #4
 80012a0:	6a5b      	ldr	r3, [r3, #36]	; 0x24
 80012a2:	f845 3d20 	str.w	r3, [r5, #-32]!
 80012a6:	4629      	mov	r1, r5
 80012a8:	f7ff fd5a 	bl	8000d60 <transmit_features>
 80012ac:	6823      	ldr	r3, [r4, #0]
 80012ae:	4932      	ldr	r1, [pc, #200]	; (8001378 <main+0x408>)
 80012b0:	625e      	str	r6, [r3, #36]	; 0x24
 80012b2:	4829      	ldr	r0, [pc, #164]	; (8001358 <main+0x3e8>)
 80012b4:	f7ff fa36 	bl	8000724 <inst_absolute>
 80012b8:	a902      	add	r1, sp, #8
 80012ba:	482f      	ldr	r0, [pc, #188]	; (8001378 <main+0x408>)
 80012bc:	f7ff fc30 	bl	8000b20 <std_dev>
 80012c0:	6823      	ldr	r3, [r4, #0]
 80012c2:	a802      	add	r0, sp, #8
 80012c4:	4629      	mov	r1, r5
 80012c6:	6a5b      	ldr	r3, [r3, #36]	; 0x24
 80012c8:	9300      	str	r3, [sp, #0]
 80012ca:	f7ff fd49 	bl	8000d60 <transmit_features>
 80012ce:	6823      	ldr	r3, [r4, #0]
 80012d0:	a903      	add	r1, sp, #12
 80012d2:	4821      	ldr	r0, [pc, #132]	; (8001358 <main+0x3e8>)
 80012d4:	625e      	str	r6, [r3, #36]	; 0x24
 80012d6:	f7ff fc23 	bl	8000b20 <std_dev>
 80012da:	6823      	ldr	r3, [r4, #0]
 80012dc:	a803      	add	r0, sp, #12
 80012de:	4629      	mov	r1, r5
 80012e0:	6a5b      	ldr	r3, [r3, #36]	; 0x24
 80012e2:	9300      	str	r3, [sp, #0]
 80012e4:	f7ff fd3c 	bl	8000d60 <transmit_features>
 80012e8:	6823      	ldr	r3, [r4, #0]
 80012ea:	4924      	ldr	r1, [pc, #144]	; (800137c <main+0x40c>)
 80012ec:	625e      	str	r6, [r3, #36]	; 0x24
 80012ee:	481e      	ldr	r0, [pc, #120]	; (8001368 <main+0x3f8>)
 80012f0:	f7ff fa18 	bl	8000724 <inst_absolute>
 80012f4:	a904      	add	r1, sp, #16
 80012f6:	4821      	ldr	r0, [pc, #132]	; (800137c <main+0x40c>)
 80012f8:	f7ff fc12 	bl	8000b20 <std_dev>
 80012fc:	6823      	ldr	r3, [r4, #0]
 80012fe:	a804      	add	r0, sp, #16
 8001300:	4629      	mov	r1, r5
 8001302:	6a5b      	ldr	r3, [r3, #36]	; 0x24
 8001304:	9300      	str	r3, [sp, #0]
 8001306:	f7ff fd2b 	bl	8000d60 <transmit_features>
 800130a:	6823      	ldr	r3, [r4, #0]
 800130c:	a905      	add	r1, sp, #20
 800130e:	4816      	ldr	r0, [pc, #88]	; (8001368 <main+0x3f8>)
 8001310:	625e      	str	r6, [r3, #36]	; 0x24
 8001312:	f7ff fc05 	bl	8000b20 <std_dev>
 8001316:	6823      	ldr	r3, [r4, #0]
 8001318:	a805      	add	r0, sp, #20
 800131a:	4629      	mov	r1, r5
 800131c:	6a5b      	ldr	r3, [r3, #36]	; 0x24
 800131e:	9300      	str	r3, [sp, #0]
 8001320:	f7ff fd1e 	bl	8000d60 <transmit_features>
 8001324:	6823      	ldr	r3, [r4, #0]
 8001326:	a906      	add	r1, sp, #24
 8001328:	e02a      	b.n	8001380 <main+0x410>
 800132a:	bf00      	nop
 800132c:	240009dc 	.word	0x240009dc
 8001330:	2400d09c 	.word	0x2400d09c
 8001334:	24014038 	.word	0x24014038
 8001338:	58020400 	.word	0x58020400
 800133c:	240009dd 	.word	0x240009dd
 8001340:	58021000 	.word	0x58021000
 8001344:	24013fec 	.word	0x24013fec
 8001348:	24008a7c 	.word	0x24008a7c
 800134c:	240009e1 	.word	0x240009e1
 8001350:	08008904 	.word	0x08008904
 8001354:	240009e0 	.word	0x240009e0
 8001358:	24006a7c 	.word	0x24006a7c
 800135c:	08008920 	.word	0x08008920
 8001360:	240113ac 	.word	0x240113ac
 8001364:	0800893c 	.word	0x0800893c
 8001368:	24004a7c 	.word	0x24004a7c
 800136c:	08008964 	.word	0x08008964
 8001370:	2400aa7c 	.word	0x2400aa7c
 8001374:	08008980 	.word	0x08008980
 8001378:	24000a7c 	.word	0x24000a7c
 800137c:	24002a7c 	.word	0x24002a7c
 8001380:	4862      	ldr	r0, [pc, #392]	; (800150c <main+0x59c>)
 8001382:	625e      	str	r6, [r3, #36]	; 0x24
 8001384:	f7ff fbcc 	bl	8000b20 <std_dev>
 8001388:	6823      	ldr	r3, [r4, #0]
 800138a:	4629      	mov	r1, r5
 800138c:	a806      	add	r0, sp, #24
 800138e:	6a5b      	ldr	r3, [r3, #36]	; 0x24
 8001390:	4c5f      	ldr	r4, [pc, #380]	; (8001510 <main+0x5a0>)
 8001392:	9300      	str	r3, [sp, #0]
 8001394:	f7ff fce4 	bl	8000d60 <transmit_features>
 8001398:	f7ff fcb2 	bl	8000d00 <clear_leds>
 800139c:	2200      	movs	r2, #0
 800139e:	2102      	movs	r1, #2
 80013a0:	4620      	mov	r0, r4
 80013a2:	f000 fce3 	bl	8001d6c <HAL_GPIO_WritePin>
 80013a6:	f44f 70fa 	mov.w	r0, #500	; 0x1f4
 80013aa:	f000 fa6b 	bl	8001884 <HAL_Delay>
 80013ae:	4620      	mov	r0, r4
 80013b0:	2201      	movs	r2, #1
 80013b2:	2102      	movs	r1, #2
 80013b4:	f000 fcda 	bl	8001d6c <HAL_GPIO_WritePin>
 80013b8:	f44f 70fa 	mov.w	r0, #500	; 0x1f4
 80013bc:	f000 fa62 	bl	8001884 <HAL_Delay>
 80013c0:	e7ec      	b.n	800139c <main+0x42c>
 80013c2:	2232      	movs	r2, #50	; 0x32
 80013c4:	4953      	ldr	r1, [pc, #332]	; (8001514 <main+0x5a4>)
 80013c6:	4854      	ldr	r0, [pc, #336]	; (8001518 <main+0x5a8>)
 80013c8:	f002 fde6 	bl	8003f98 <HAL_UART_Transmit_IT>
 80013cc:	782b      	ldrb	r3, [r5, #0]
 80013ce:	2b01      	cmp	r3, #1
 80013d0:	d015      	beq.n	80013fe <main+0x48e>
 80013d2:	4e52      	ldr	r6, [pc, #328]	; (800151c <main+0x5ac>)
 80013d4:	2200      	movs	r2, #0
 80013d6:	f44f 4180 	mov.w	r1, #16384	; 0x4000
 80013da:	4630      	mov	r0, r6
 80013dc:	f000 fcc6 	bl	8001d6c <HAL_GPIO_WritePin>
 80013e0:	2032      	movs	r0, #50	; 0x32
 80013e2:	f000 fa4f 	bl	8001884 <HAL_Delay>
 80013e6:	2201      	movs	r2, #1
 80013e8:	f44f 4180 	mov.w	r1, #16384	; 0x4000
 80013ec:	4630      	mov	r0, r6
 80013ee:	f000 fcbd 	bl	8001d6c <HAL_GPIO_WritePin>
 80013f2:	2032      	movs	r0, #50	; 0x32
 80013f4:	f000 fa46 	bl	8001884 <HAL_Delay>
 80013f8:	782b      	ldrb	r3, [r5, #0]
 80013fa:	2b01      	cmp	r3, #1
 80013fc:	d1ea      	bne.n	80013d4 <main+0x464>
 80013fe:	2300      	movs	r3, #0
 8001400:	702b      	strb	r3, [r5, #0]
 8001402:	e696      	b.n	8001132 <main+0x1c2>
 8001404:	2232      	movs	r2, #50	; 0x32
 8001406:	4943      	ldr	r1, [pc, #268]	; (8001514 <main+0x5a4>)
 8001408:	4843      	ldr	r0, [pc, #268]	; (8001518 <main+0x5a8>)
 800140a:	f002 fdc5 	bl	8003f98 <HAL_UART_Transmit_IT>
 800140e:	782b      	ldrb	r3, [r5, #0]
 8001410:	2b01      	cmp	r3, #1
 8001412:	d015      	beq.n	8001440 <main+0x4d0>
 8001414:	4e41      	ldr	r6, [pc, #260]	; (800151c <main+0x5ac>)
 8001416:	2200      	movs	r2, #0
 8001418:	f44f 4180 	mov.w	r1, #16384	; 0x4000
 800141c:	4630      	mov	r0, r6
 800141e:	f000 fca5 	bl	8001d6c <HAL_GPIO_WritePin>
 8001422:	2032      	movs	r0, #50	; 0x32
 8001424:	f000 fa2e 	bl	8001884 <HAL_Delay>
 8001428:	2201      	movs	r2, #1
 800142a:	f44f 4180 	mov.w	r1, #16384	; 0x4000
 800142e:	4630      	mov	r0, r6
 8001430:	f000 fc9c 	bl	8001d6c <HAL_GPIO_WritePin>
 8001434:	2032      	movs	r0, #50	; 0x32
 8001436:	f000 fa25 	bl	8001884 <HAL_Delay>
 800143a:	782b      	ldrb	r3, [r5, #0]
 800143c:	2b01      	cmp	r3, #1
 800143e:	d1ea      	bne.n	8001416 <main+0x4a6>
 8001440:	2300      	movs	r3, #0
 8001442:	702b      	strb	r3, [r5, #0]
 8001444:	e715      	b.n	8001272 <main+0x302>
 8001446:	2232      	movs	r2, #50	; 0x32
 8001448:	4932      	ldr	r1, [pc, #200]	; (8001514 <main+0x5a4>)
 800144a:	4833      	ldr	r0, [pc, #204]	; (8001518 <main+0x5a8>)
 800144c:	f002 fda4 	bl	8003f98 <HAL_UART_Transmit_IT>
 8001450:	782b      	ldrb	r3, [r5, #0]
 8001452:	2b01      	cmp	r3, #1
 8001454:	d015      	beq.n	8001482 <main+0x512>
 8001456:	4e31      	ldr	r6, [pc, #196]	; (800151c <main+0x5ac>)
 8001458:	2200      	movs	r2, #0
 800145a:	f44f 4180 	mov.w	r1, #16384	; 0x4000
 800145e:	4630      	mov	r0, r6
 8001460:	f000 fc84 	bl	8001d6c <HAL_GPIO_WritePin>
 8001464:	2032      	movs	r0, #50	; 0x32
 8001466:	f000 fa0d 	bl	8001884 <HAL_Delay>
 800146a:	2201      	movs	r2, #1
 800146c:	f44f 4180 	mov.w	r1, #16384	; 0x4000
 8001470:	4630      	mov	r0, r6
 8001472:	f000 fc7b 	bl	8001d6c <HAL_GPIO_WritePin>
 8001476:	2032      	movs	r0, #50	; 0x32
 8001478:	f000 fa04 	bl	8001884 <HAL_Delay>
 800147c:	782b      	ldrb	r3, [r5, #0]
 800147e:	2b01      	cmp	r3, #1
 8001480:	d1ea      	bne.n	8001458 <main+0x4e8>
 8001482:	2300      	movs	r3, #0
 8001484:	702b      	strb	r3, [r5, #0]
 8001486:	e6a6      	b.n	80011d6 <main+0x266>
 8001488:	2232      	movs	r2, #50	; 0x32
 800148a:	4922      	ldr	r1, [pc, #136]	; (8001514 <main+0x5a4>)
 800148c:	4822      	ldr	r0, [pc, #136]	; (8001518 <main+0x5a8>)
 800148e:	f002 fd83 	bl	8003f98 <HAL_UART_Transmit_IT>
 8001492:	782b      	ldrb	r3, [r5, #0]
 8001494:	2b01      	cmp	r3, #1
 8001496:	d015      	beq.n	80014c4 <main+0x554>
 8001498:	4e20      	ldr	r6, [pc, #128]	; (800151c <main+0x5ac>)
 800149a:	2200      	movs	r2, #0
 800149c:	f44f 4180 	mov.w	r1, #16384	; 0x4000
 80014a0:	4630      	mov	r0, r6
 80014a2:	f000 fc63 	bl	8001d6c <HAL_GPIO_WritePin>
 80014a6:	2032      	movs	r0, #50	; 0x32
 80014a8:	f000 f9ec 	bl	8001884 <HAL_Delay>
 80014ac:	2201      	movs	r2, #1
 80014ae:	f44f 4180 	mov.w	r1, #16384	; 0x4000
 80014b2:	4630      	mov	r0, r6
 80014b4:	f000 fc5a 	bl	8001d6c <HAL_GPIO_WritePin>
 80014b8:	2032      	movs	r0, #50	; 0x32
 80014ba:	f000 f9e3 	bl	8001884 <HAL_Delay>
 80014be:	782b      	ldrb	r3, [r5, #0]
 80014c0:	2b01      	cmp	r3, #1
 80014c2:	d1ea      	bne.n	800149a <main+0x52a>
 80014c4:	2300      	movs	r3, #0
 80014c6:	702b      	strb	r3, [r5, #0]
 80014c8:	e6ac      	b.n	8001224 <main+0x2b4>
 80014ca:	2232      	movs	r2, #50	; 0x32
 80014cc:	4911      	ldr	r1, [pc, #68]	; (8001514 <main+0x5a4>)
 80014ce:	4812      	ldr	r0, [pc, #72]	; (8001518 <main+0x5a8>)
 80014d0:	f002 fd62 	bl	8003f98 <HAL_UART_Transmit_IT>
 80014d4:	782b      	ldrb	r3, [r5, #0]
 80014d6:	2b01      	cmp	r3, #1
 80014d8:	d015      	beq.n	8001506 <main+0x596>
 80014da:	4e10      	ldr	r6, [pc, #64]	; (800151c <main+0x5ac>)
 80014dc:	2200      	movs	r2, #0
 80014de:	f44f 4180 	mov.w	r1, #16384	; 0x4000
 80014e2:	4630      	mov	r0, r6
 80014e4:	f000 fc42 	bl	8001d6c <HAL_GPIO_WritePin>
 80014e8:	2032      	movs	r0, #50	; 0x32
 80014ea:	f000 f9cb 	bl	8001884 <HAL_Delay>
 80014ee:	2201      	movs	r2, #1
 80014f0:	f44f 4180 	mov.w	r1, #16384	; 0x4000
 80014f4:	4630      	mov	r0, r6
 80014f6:	f000 fc39 	bl	8001d6c <HAL_GPIO_WritePin>
 80014fa:	2032      	movs	r0, #50	; 0x32
 80014fc:	f000 f9c2 	bl	8001884 <HAL_Delay>
 8001500:	782b      	ldrb	r3, [r5, #0]
 8001502:	2b01      	cmp	r3, #1
 8001504:	d1ea      	bne.n	80014dc <main+0x56c>
 8001506:	2300      	movs	r3, #0
 8001508:	702b      	strb	r3, [r5, #0]
 800150a:	e639      	b.n	8001180 <main+0x210>
 800150c:	2400aa7c 	.word	0x2400aa7c
 8001510:	58021000 	.word	0x58021000
 8001514:	240009e0 	.word	0x240009e0
 8001518:	24014038 	.word	0x24014038
 800151c:	58020400 	.word	0x58020400

08001520 <HAL_UART_TxCpltCallback>:
 8001520:	4b01      	ldr	r3, [pc, #4]	; (8001528 <HAL_UART_TxCpltCallback+0x8>)
 8001522:	2201      	movs	r2, #1
 8001524:	701a      	strb	r2, [r3, #0]
 8001526:	4770      	bx	lr
 8001528:	240009dc 	.word	0x240009dc

0800152c <HAL_UART_RxCpltCallback>:
 800152c:	4b01      	ldr	r3, [pc, #4]	; (8001534 <HAL_UART_RxCpltCallback+0x8>)
 800152e:	2201      	movs	r2, #1
 8001530:	701a      	strb	r2, [r3, #0]
 8001532:	4770      	bx	lr
 8001534:	240009dc 	.word	0x240009dc

08001538 <Error_Handler>:
 8001538:	4770      	bx	lr
 800153a:	bf00      	nop

0800153c <HAL_MspInit>:
 800153c:	4b07      	ldr	r3, [pc, #28]	; (800155c <HAL_MspInit+0x20>)
 800153e:	b082      	sub	sp, #8
 8001540:	f8d3 20f4 	ldr.w	r2, [r3, #244]	; 0xf4
 8001544:	f042 0202 	orr.w	r2, r2, #2
 8001548:	f8c3 20f4 	str.w	r2, [r3, #244]	; 0xf4
 800154c:	f8d3 30f4 	ldr.w	r3, [r3, #244]	; 0xf4
 8001550:	f003 0302 	and.w	r3, r3, #2
 8001554:	9301      	str	r3, [sp, #4]
 8001556:	9b01      	ldr	r3, [sp, #4]
 8001558:	b002      	add	sp, #8
 800155a:	4770      	bx	lr
 800155c:	58024400 	.word	0x58024400

08001560 <NMI_Handler>:
 8001560:	4770      	bx	lr
 8001562:	bf00      	nop

08001564 <HardFault_Handler>:
 8001564:	e7fe      	b.n	8001564 <HardFault_Handler>
 8001566:	bf00      	nop

08001568 <MemManage_Handler>:
 8001568:	e7fe      	b.n	8001568 <MemManage_Handler>
 800156a:	bf00      	nop

0800156c <BusFault_Handler>:
 800156c:	e7fe      	b.n	800156c <BusFault_Handler>
 800156e:	bf00      	nop

08001570 <UsageFault_Handler>:
 8001570:	e7fe      	b.n	8001570 <UsageFault_Handler>
 8001572:	bf00      	nop

08001574 <SVC_Handler>:
 8001574:	4770      	bx	lr
 8001576:	bf00      	nop

08001578 <DebugMon_Handler>:
 8001578:	4770      	bx	lr
 800157a:	bf00      	nop

0800157c <PendSV_Handler>:
 800157c:	4770      	bx	lr
 800157e:	bf00      	nop

08001580 <SysTick_Handler>:
 8001580:	f000 b96e 	b.w	8001860 <HAL_IncTick>

08001584 <USART3_IRQHandler>:
 8001584:	4801      	ldr	r0, [pc, #4]	; (800158c <USART3_IRQHandler+0x8>)
 8001586:	f002 bf1b 	b.w	80043c0 <HAL_UART_IRQHandler>
 800158a:	bf00      	nop
 800158c:	24014038 	.word	0x24014038

08001590 <_sbrk>:
 8001590:	4a0c      	ldr	r2, [pc, #48]	; (80015c4 <_sbrk+0x34>)
 8001592:	b508      	push	{r3, lr}
 8001594:	6813      	ldr	r3, [r2, #0]
 8001596:	b133      	cbz	r3, 80015a6 <_sbrk+0x16>
 8001598:	4418      	add	r0, r3
 800159a:	4669      	mov	r1, sp
 800159c:	4288      	cmp	r0, r1
 800159e:	d809      	bhi.n	80015b4 <_sbrk+0x24>
 80015a0:	6010      	str	r0, [r2, #0]
 80015a2:	4618      	mov	r0, r3
 80015a4:	bd08      	pop	{r3, pc}
 80015a6:	4908      	ldr	r1, [pc, #32]	; (80015c8 <_sbrk+0x38>)
 80015a8:	460b      	mov	r3, r1
 80015aa:	6011      	str	r1, [r2, #0]
 80015ac:	4669      	mov	r1, sp
 80015ae:	4418      	add	r0, r3
 80015b0:	4288      	cmp	r0, r1
 80015b2:	d9f5      	bls.n	80015a0 <_sbrk+0x10>
 80015b4:	f003 fffa 	bl	80055ac <__errno>
 80015b8:	220c      	movs	r2, #12
 80015ba:	f04f 33ff 	mov.w	r3, #4294967295
 80015be:	6002      	str	r2, [r0, #0]
 80015c0:	4618      	mov	r0, r3
 80015c2:	bd08      	pop	{r3, pc}
 80015c4:	24000a44 	.word	0x24000a44
 80015c8:	240140d8 	.word	0x240140d8

080015cc <MX_TIM2_Init>:
 80015cc:	4a19      	ldr	r2, [pc, #100]	; (8001634 <MX_TIM2_Init+0x68>)
 80015ce:	f04f 4080 	mov.w	r0, #1073741824	; 0x40000000
 80015d2:	2300      	movs	r3, #0
 80015d4:	f04f 31ff 	mov.w	r1, #4294967295
 80015d8:	b500      	push	{lr}
 80015da:	b089      	sub	sp, #36	; 0x24
 80015dc:	6010      	str	r0, [r2, #0]
 80015de:	4610      	mov	r0, r2
 80015e0:	60d1      	str	r1, [r2, #12]
 80015e2:	6053      	str	r3, [r2, #4]
 80015e4:	9304      	str	r3, [sp, #16]
 80015e6:	9301      	str	r3, [sp, #4]
 80015e8:	6093      	str	r3, [r2, #8]
 80015ea:	6113      	str	r3, [r2, #16]
 80015ec:	6193      	str	r3, [r2, #24]
 80015ee:	9307      	str	r3, [sp, #28]
 80015f0:	e9cd 3305 	strd	r3, r3, [sp, #20]
 80015f4:	e9cd 3302 	strd	r3, r3, [sp, #8]
 80015f8:	f002 fa5e 	bl	8003ab8 <HAL_TIM_Base_Init>
 80015fc:	b9b8      	cbnz	r0, 800162e <MX_TIM2_Init+0x62>
 80015fe:	f44f 5380 	mov.w	r3, #4096	; 0x1000
 8001602:	a904      	add	r1, sp, #16
 8001604:	480b      	ldr	r0, [pc, #44]	; (8001634 <MX_TIM2_Init+0x68>)
 8001606:	9304      	str	r3, [sp, #16]
 8001608:	f002 fb04 	bl	8003c14 <HAL_TIM_ConfigClockSource>
 800160c:	b960      	cbnz	r0, 8001628 <MX_TIM2_Init+0x5c>
 800160e:	2300      	movs	r3, #0
 8001610:	a901      	add	r1, sp, #4
 8001612:	4808      	ldr	r0, [pc, #32]	; (8001634 <MX_TIM2_Init+0x68>)
 8001614:	9301      	str	r3, [sp, #4]
 8001616:	9303      	str	r3, [sp, #12]
 8001618:	f002 fbbc 	bl	8003d94 <HAL_TIMEx_MasterConfigSynchronization>
 800161c:	b108      	cbz	r0, 8001622 <MX_TIM2_Init+0x56>
 800161e:	f7ff ff8b 	bl	8001538 <Error_Handler>
 8001622:	b009      	add	sp, #36	; 0x24
 8001624:	f85d fb04 	ldr.w	pc, [sp], #4
 8001628:	f7ff ff86 	bl	8001538 <Error_Handler>
 800162c:	e7ef      	b.n	800160e <MX_TIM2_Init+0x42>
 800162e:	f7ff ff83 	bl	8001538 <Error_Handler>
 8001632:	e7e4      	b.n	80015fe <MX_TIM2_Init+0x32>
 8001634:	24013fec 	.word	0x24013fec

08001638 <HAL_TIM_Base_MspInit>:
 8001638:	6803      	ldr	r3, [r0, #0]
 800163a:	f1b3 4f80 	cmp.w	r3, #1073741824	; 0x40000000
 800163e:	d000      	beq.n	8001642 <HAL_TIM_Base_MspInit+0xa>
 8001640:	4770      	bx	lr
 8001642:	4b08      	ldr	r3, [pc, #32]	; (8001664 <HAL_TIM_Base_MspInit+0x2c>)
 8001644:	b082      	sub	sp, #8
 8001646:	f8d3 20e8 	ldr.w	r2, [r3, #232]	; 0xe8
 800164a:	f042 0201 	orr.w	r2, r2, #1
 800164e:	f8c3 20e8 	str.w	r2, [r3, #232]	; 0xe8
 8001652:	f8d3 30e8 	ldr.w	r3, [r3, #232]	; 0xe8
 8001656:	f003 0301 	and.w	r3, r3, #1
 800165a:	9301      	str	r3, [sp, #4]
 800165c:	9b01      	ldr	r3, [sp, #4]
 800165e:	b002      	add	sp, #8
 8001660:	4770      	bx	lr
 8001662:	bf00      	nop
 8001664:	58024400 	.word	0x58024400

08001668 <MX_USART3_UART_Init>:
 8001668:	b538      	push	{r3, r4, r5, lr}
 800166a:	4b18      	ldr	r3, [pc, #96]	; (80016cc <MX_USART3_UART_Init+0x64>)
 800166c:	2200      	movs	r2, #0
 800166e:	f44f 34e1 	mov.w	r4, #115200	; 0x1c200
 8001672:	4d17      	ldr	r5, [pc, #92]	; (80016d0 <MX_USART3_UART_Init+0x68>)
 8001674:	210c      	movs	r1, #12
 8001676:	4618      	mov	r0, r3
 8001678:	611a      	str	r2, [r3, #16]
 800167a:	6159      	str	r1, [r3, #20]
 800167c:	629a      	str	r2, [r3, #40]	; 0x28
 800167e:	e9c3 5400 	strd	r5, r4, [r3]
 8001682:	e9c3 2202 	strd	r2, r2, [r3, #8]
 8001686:	e9c3 2206 	strd	r2, r2, [r3, #24]
 800168a:	e9c3 2208 	strd	r2, r2, [r3, #32]
 800168e:	f002 fff5 	bl	800467c <HAL_UART_Init>
 8001692:	b9c0      	cbnz	r0, 80016c6 <MX_USART3_UART_Init+0x5e>
 8001694:	2100      	movs	r1, #0
 8001696:	480d      	ldr	r0, [pc, #52]	; (80016cc <MX_USART3_UART_Init+0x64>)
 8001698:	f003 fbb8 	bl	8004e0c <HAL_UARTEx_SetTxFifoThreshold>
 800169c:	b980      	cbnz	r0, 80016c0 <MX_USART3_UART_Init+0x58>
 800169e:	2100      	movs	r1, #0
 80016a0:	480a      	ldr	r0, [pc, #40]	; (80016cc <MX_USART3_UART_Init+0x64>)
 80016a2:	f003 fc05 	bl	8004eb0 <HAL_UARTEx_SetRxFifoThreshold>
 80016a6:	b940      	cbnz	r0, 80016ba <MX_USART3_UART_Init+0x52>
 80016a8:	4808      	ldr	r0, [pc, #32]	; (80016cc <MX_USART3_UART_Init+0x64>)
 80016aa:	f003 fb91 	bl	8004dd0 <HAL_UARTEx_DisableFifoMode>
 80016ae:	b900      	cbnz	r0, 80016b2 <MX_USART3_UART_Init+0x4a>
 80016b0:	bd38      	pop	{r3, r4, r5, pc}
 80016b2:	e8bd 4038 	ldmia.w	sp!, {r3, r4, r5, lr}
 80016b6:	f7ff bf3f 	b.w	8001538 <Error_Handler>
 80016ba:	f7ff ff3d 	bl	8001538 <Error_Handler>
 80016be:	e7f3      	b.n	80016a8 <MX_USART3_UART_Init+0x40>
 80016c0:	f7ff ff3a 	bl	8001538 <Error_Handler>
 80016c4:	e7eb      	b.n	800169e <MX_USART3_UART_Init+0x36>
 80016c6:	f7ff ff37 	bl	8001538 <Error_Handler>
 80016ca:	e7e3      	b.n	8001694 <MX_USART3_UART_Init+0x2c>
 80016cc:	24014038 	.word	0x24014038
 80016d0:	40004800 	.word	0x40004800

080016d4 <HAL_UART_MspInit>:
 80016d4:	6802      	ldr	r2, [r0, #0]
 80016d6:	4b1e      	ldr	r3, [pc, #120]	; (8001750 <HAL_UART_MspInit+0x7c>)
 80016d8:	b570      	push	{r4, r5, r6, lr}
 80016da:	429a      	cmp	r2, r3
 80016dc:	b088      	sub	sp, #32
 80016de:	f04f 0400 	mov.w	r4, #0
 80016e2:	e9cd 4403 	strd	r4, r4, [sp, #12]
 80016e6:	e9cd 4405 	strd	r4, r4, [sp, #20]
 80016ea:	9407      	str	r4, [sp, #28]
 80016ec:	d001      	beq.n	80016f2 <HAL_UART_MspInit+0x1e>
 80016ee:	b008      	add	sp, #32
 80016f0:	bd70      	pop	{r4, r5, r6, pc}
 80016f2:	4b18      	ldr	r3, [pc, #96]	; (8001754 <HAL_UART_MspInit+0x80>)
 80016f4:	f44f 7040 	mov.w	r0, #768	; 0x300
 80016f8:	2602      	movs	r6, #2
 80016fa:	2507      	movs	r5, #7
 80016fc:	f8d3 20e8 	ldr.w	r2, [r3, #232]	; 0xe8
 8001700:	a903      	add	r1, sp, #12
 8001702:	f442 2280 	orr.w	r2, r2, #262144	; 0x40000
 8001706:	f8c3 20e8 	str.w	r2, [r3, #232]	; 0xe8
 800170a:	f8d3 20e8 	ldr.w	r2, [r3, #232]	; 0xe8
 800170e:	f402 2280 	and.w	r2, r2, #262144	; 0x40000
 8001712:	9201      	str	r2, [sp, #4]
 8001714:	9a01      	ldr	r2, [sp, #4]
 8001716:	f8d3 20e0 	ldr.w	r2, [r3, #224]	; 0xe0
 800171a:	f042 0208 	orr.w	r2, r2, #8
 800171e:	f8c3 20e0 	str.w	r2, [r3, #224]	; 0xe0
 8001722:	f8d3 30e0 	ldr.w	r3, [r3, #224]	; 0xe0
 8001726:	9003      	str	r0, [sp, #12]
 8001728:	f003 0308 	and.w	r3, r3, #8
 800172c:	480a      	ldr	r0, [pc, #40]	; (8001758 <HAL_UART_MspInit+0x84>)
 800172e:	9604      	str	r6, [sp, #16]
 8001730:	9302      	str	r3, [sp, #8]
 8001732:	9b02      	ldr	r3, [sp, #8]
 8001734:	9507      	str	r5, [sp, #28]
 8001736:	f000 f9fb 	bl	8001b30 <HAL_GPIO_Init>
 800173a:	4622      	mov	r2, r4
 800173c:	4621      	mov	r1, r4
 800173e:	2027      	movs	r0, #39	; 0x27
 8001740:	f000 f8cc 	bl	80018dc <HAL_NVIC_SetPriority>
 8001744:	2027      	movs	r0, #39	; 0x27
 8001746:	f000 f8ff 	bl	8001948 <HAL_NVIC_EnableIRQ>
 800174a:	b008      	add	sp, #32
 800174c:	bd70      	pop	{r4, r5, r6, pc}
 800174e:	bf00      	nop
 8001750:	40004800 	.word	0x40004800
 8001754:	58024400 	.word	0x58024400
 8001758:	58020c00 	.word	0x58020c00

0800175c <Reset_Handler>:
 800175c:	f8df d034 	ldr.w	sp, [pc, #52]	; 8001794 <LoopFillZerobss+0x14>
 8001760:	2100      	movs	r1, #0
 8001762:	e003      	b.n	800176c <LoopCopyDataInit>

08001764 <CopyDataInit>:
 8001764:	4b0c      	ldr	r3, [pc, #48]	; (8001798 <LoopFillZerobss+0x18>)
 8001766:	585b      	ldr	r3, [r3, r1]
 8001768:	5043      	str	r3, [r0, r1]
 800176a:	3104      	adds	r1, #4

0800176c <LoopCopyDataInit>:
 800176c:	480b      	ldr	r0, [pc, #44]	; (800179c <LoopFillZerobss+0x1c>)
 800176e:	4b0c      	ldr	r3, [pc, #48]	; (80017a0 <LoopFillZerobss+0x20>)
 8001770:	1842      	adds	r2, r0, r1
 8001772:	429a      	cmp	r2, r3
 8001774:	d3f6      	bcc.n	8001764 <CopyDataInit>
 8001776:	4a0b      	ldr	r2, [pc, #44]	; (80017a4 <LoopFillZerobss+0x24>)
 8001778:	e002      	b.n	8001780 <LoopFillZerobss>

0800177a <FillZerobss>:
 800177a:	2300      	movs	r3, #0
 800177c:	f842 3b04 	str.w	r3, [r2], #4

08001780 <LoopFillZerobss>:
 8001780:	4b09      	ldr	r3, [pc, #36]	; (80017a8 <LoopFillZerobss+0x28>)
 8001782:	429a      	cmp	r2, r3
 8001784:	d3f9      	bcc.n	800177a <FillZerobss>
 8001786:	f7fe ff83 	bl	8000690 <SystemInit>
 800178a:	f003 ff15 	bl	80055b8 <__libc_init_array>
 800178e:	f7ff fbef 	bl	8000f70 <main>
 8001792:	4770      	bx	lr
 8001794:	20020000 	.word	0x20020000
 8001798:	08008cac 	.word	0x08008cac
 800179c:	24000000 	.word	0x24000000
 80017a0:	240009c0 	.word	0x240009c0
 80017a4:	240009c0 	.word	0x240009c0
 80017a8:	240140d8 	.word	0x240140d8

080017ac <ADC3_IRQHandler>:
 80017ac:	e7fe      	b.n	80017ac <ADC3_IRQHandler>
	...

080017b0 <HAL_InitTick>:
 80017b0:	4b0f      	ldr	r3, [pc, #60]	; (80017f0 <HAL_InitTick+0x40>)
 80017b2:	781b      	ldrb	r3, [r3, #0]
 80017b4:	b90b      	cbnz	r3, 80017ba <HAL_InitTick+0xa>
 80017b6:	2001      	movs	r0, #1
 80017b8:	4770      	bx	lr
 80017ba:	f44f 727a 	mov.w	r2, #1000	; 0x3e8
 80017be:	490d      	ldr	r1, [pc, #52]	; (80017f4 <HAL_InitTick+0x44>)
 80017c0:	fbb2 f3f3 	udiv	r3, r2, r3
 80017c4:	b510      	push	{r4, lr}
 80017c6:	4604      	mov	r4, r0
 80017c8:	6808      	ldr	r0, [r1, #0]
 80017ca:	fbb0 f0f3 	udiv	r0, r0, r3
 80017ce:	f000 f8c9 	bl	8001964 <HAL_SYSTICK_Config>
 80017d2:	2c0f      	cmp	r4, #15
 80017d4:	d800      	bhi.n	80017d8 <HAL_InitTick+0x28>
 80017d6:	b108      	cbz	r0, 80017dc <HAL_InitTick+0x2c>
 80017d8:	2001      	movs	r0, #1
 80017da:	bd10      	pop	{r4, pc}
 80017dc:	2200      	movs	r2, #0
 80017de:	4621      	mov	r1, r4
 80017e0:	f04f 30ff 	mov.w	r0, #4294967295
 80017e4:	f000 f87a 	bl	80018dc <HAL_NVIC_SetPriority>
 80017e8:	4b03      	ldr	r3, [pc, #12]	; (80017f8 <HAL_InitTick+0x48>)
 80017ea:	2000      	movs	r0, #0
 80017ec:	601c      	str	r4, [r3, #0]
 80017ee:	bd10      	pop	{r4, pc}
 80017f0:	24000008 	.word	0x24000008
 80017f4:	24000000 	.word	0x24000000
 80017f8:	2400000c 	.word	0x2400000c

080017fc <HAL_Init>:
 80017fc:	b530      	push	{r4, r5, lr}
 80017fe:	2003      	movs	r0, #3
 8001800:	b083      	sub	sp, #12
 8001802:	f000 f857 	bl	80018b4 <HAL_NVIC_SetPriorityGrouping>
 8001806:	4c12      	ldr	r4, [pc, #72]	; (8001850 <HAL_Init+0x54>)
 8001808:	f000 fe02 	bl	8002410 <HAL_RCC_GetSysClockFreq>
 800180c:	4a11      	ldr	r2, [pc, #68]	; (8001854 <HAL_Init+0x58>)
 800180e:	4912      	ldr	r1, [pc, #72]	; (8001858 <HAL_Init+0x5c>)
 8001810:	6993      	ldr	r3, [r2, #24]
 8001812:	6992      	ldr	r2, [r2, #24]
 8001814:	f3c3 2303 	ubfx	r3, r3, #8, #4
 8001818:	4d10      	ldr	r5, [pc, #64]	; (800185c <HAL_Init+0x60>)
 800181a:	f002 020f 	and.w	r2, r2, #15
 800181e:	5ccb      	ldrb	r3, [r1, r3]
 8001820:	5c8a      	ldrb	r2, [r1, r2]
 8001822:	f003 031f 	and.w	r3, r3, #31
 8001826:	f002 021f 	and.w	r2, r2, #31
 800182a:	fa20 f303 	lsr.w	r3, r0, r3
 800182e:	2000      	movs	r0, #0
 8001830:	fa23 f202 	lsr.w	r2, r3, r2
 8001834:	602b      	str	r3, [r5, #0]
 8001836:	6022      	str	r2, [r4, #0]
 8001838:	f7ff ffba 	bl	80017b0 <HAL_InitTick>
 800183c:	b110      	cbz	r0, 8001844 <HAL_Init+0x48>
 800183e:	2001      	movs	r0, #1
 8001840:	b003      	add	sp, #12
 8001842:	bd30      	pop	{r4, r5, pc}
 8001844:	9001      	str	r0, [sp, #4]
 8001846:	f7ff fe79 	bl	800153c <HAL_MspInit>
 800184a:	9801      	ldr	r0, [sp, #4]
 800184c:	b003      	add	sp, #12
 800184e:	bd30      	pop	{r4, r5, pc}
 8001850:	24000004 	.word	0x24000004
 8001854:	58024400 	.word	0x58024400
 8001858:	080088f0 	.word	0x080088f0
 800185c:	24000000 	.word	0x24000000

08001860 <HAL_IncTick>:
 8001860:	4a03      	ldr	r2, [pc, #12]	; (8001870 <HAL_IncTick+0x10>)
 8001862:	4b04      	ldr	r3, [pc, #16]	; (8001874 <HAL_IncTick+0x14>)
 8001864:	6811      	ldr	r1, [r2, #0]
 8001866:	781b      	ldrb	r3, [r3, #0]
 8001868:	440b      	add	r3, r1
 800186a:	6013      	str	r3, [r2, #0]
 800186c:	4770      	bx	lr
 800186e:	bf00      	nop
 8001870:	240140c4 	.word	0x240140c4
 8001874:	24000008 	.word	0x24000008

08001878 <HAL_GetTick>:
 8001878:	4b01      	ldr	r3, [pc, #4]	; (8001880 <HAL_GetTick+0x8>)
 800187a:	6818      	ldr	r0, [r3, #0]
 800187c:	4770      	bx	lr
 800187e:	bf00      	nop
 8001880:	240140c4 	.word	0x240140c4

08001884 <HAL_Delay>:
 8001884:	b538      	push	{r3, r4, r5, lr}
 8001886:	4604      	mov	r4, r0
 8001888:	f7ff fff6 	bl	8001878 <HAL_GetTick>
 800188c:	4605      	mov	r5, r0
 800188e:	1c63      	adds	r3, r4, #1
 8001890:	d002      	beq.n	8001898 <HAL_Delay+0x14>
 8001892:	4b04      	ldr	r3, [pc, #16]	; (80018a4 <HAL_Delay+0x20>)
 8001894:	781b      	ldrb	r3, [r3, #0]
 8001896:	441c      	add	r4, r3
 8001898:	f7ff ffee 	bl	8001878 <HAL_GetTick>
 800189c:	1b40      	subs	r0, r0, r5
 800189e:	42a0      	cmp	r0, r4
 80018a0:	d3fa      	bcc.n	8001898 <HAL_Delay+0x14>
 80018a2:	bd38      	pop	{r3, r4, r5, pc}
 80018a4:	24000008 	.word	0x24000008

080018a8 <HAL_GetREVID>:
 80018a8:	4b01      	ldr	r3, [pc, #4]	; (80018b0 <HAL_GetREVID+0x8>)
 80018aa:	6818      	ldr	r0, [r3, #0]
 80018ac:	0c00      	lsrs	r0, r0, #16
 80018ae:	4770      	bx	lr
 80018b0:	5c001000 	.word	0x5c001000

080018b4 <HAL_NVIC_SetPriorityGrouping>:
 80018b4:	4907      	ldr	r1, [pc, #28]	; (80018d4 <HAL_NVIC_SetPriorityGrouping+0x20>)
 80018b6:	0200      	lsls	r0, r0, #8
 80018b8:	4b07      	ldr	r3, [pc, #28]	; (80018d8 <HAL_NVIC_SetPriorityGrouping+0x24>)
 80018ba:	68ca      	ldr	r2, [r1, #12]
 80018bc:	f400 60e0 	and.w	r0, r0, #1792	; 0x700
 80018c0:	b410      	push	{r4}
 80018c2:	f64f 04ff 	movw	r4, #63743	; 0xf8ff
 80018c6:	4022      	ands	r2, r4
 80018c8:	f85d 4b04 	ldr.w	r4, [sp], #4
 80018cc:	4313      	orrs	r3, r2
 80018ce:	4318      	orrs	r0, r3
 80018d0:	60c8      	str	r0, [r1, #12]
 80018d2:	4770      	bx	lr
 80018d4:	e000ed00 	.word	0xe000ed00
 80018d8:	05fa0000 	.word	0x05fa0000

080018dc <HAL_NVIC_SetPriority>:
 80018dc:	4b17      	ldr	r3, [pc, #92]	; (800193c <HAL_NVIC_SetPriority+0x60>)
 80018de:	68db      	ldr	r3, [r3, #12]
 80018e0:	f3c3 2302 	ubfx	r3, r3, #8, #3
 80018e4:	b430      	push	{r4, r5}
 80018e6:	f1c3 0507 	rsb	r5, r3, #7
 80018ea:	1d1c      	adds	r4, r3, #4
 80018ec:	2d04      	cmp	r5, #4
 80018ee:	bf28      	it	cs
 80018f0:	2504      	movcs	r5, #4
 80018f2:	2c06      	cmp	r4, #6
 80018f4:	d918      	bls.n	8001928 <HAL_NVIC_SetPriority+0x4c>
 80018f6:	3b03      	subs	r3, #3
 80018f8:	f04f 34ff 	mov.w	r4, #4294967295
 80018fc:	409c      	lsls	r4, r3
 80018fe:	ea22 0404 	bic.w	r4, r2, r4
 8001902:	f04f 32ff 	mov.w	r2, #4294967295
 8001906:	2800      	cmp	r0, #0
 8001908:	fa02 f205 	lsl.w	r2, r2, r5
 800190c:	ea21 0102 	bic.w	r1, r1, r2
 8001910:	fa01 f203 	lsl.w	r2, r1, r3
 8001914:	ea42 0204 	orr.w	r2, r2, r4
 8001918:	ea4f 1202 	mov.w	r2, r2, lsl #4
 800191c:	b2d2      	uxtb	r2, r2
 800191e:	db06      	blt.n	800192e <HAL_NVIC_SetPriority+0x52>
 8001920:	4b07      	ldr	r3, [pc, #28]	; (8001940 <HAL_NVIC_SetPriority+0x64>)
 8001922:	541a      	strb	r2, [r3, r0]
 8001924:	bc30      	pop	{r4, r5}
 8001926:	4770      	bx	lr
 8001928:	2400      	movs	r4, #0
 800192a:	4623      	mov	r3, r4
 800192c:	e7e9      	b.n	8001902 <HAL_NVIC_SetPriority+0x26>
 800192e:	f000 000f 	and.w	r0, r0, #15
 8001932:	4b04      	ldr	r3, [pc, #16]	; (8001944 <HAL_NVIC_SetPriority+0x68>)
 8001934:	541a      	strb	r2, [r3, r0]
 8001936:	bc30      	pop	{r4, r5}
 8001938:	4770      	bx	lr
 800193a:	bf00      	nop
 800193c:	e000ed00 	.word	0xe000ed00
 8001940:	e000e400 	.word	0xe000e400
 8001944:	e000ed14 	.word	0xe000ed14

08001948 <HAL_NVIC_EnableIRQ>:
 8001948:	2800      	cmp	r0, #0
 800194a:	db07      	blt.n	800195c <HAL_NVIC_EnableIRQ+0x14>
 800194c:	f000 011f 	and.w	r1, r0, #31
 8001950:	2301      	movs	r3, #1
 8001952:	0940      	lsrs	r0, r0, #5
 8001954:	4a02      	ldr	r2, [pc, #8]	; (8001960 <HAL_NVIC_EnableIRQ+0x18>)
 8001956:	408b      	lsls	r3, r1
 8001958:	f842 3020 	str.w	r3, [r2, r0, lsl #2]
 800195c:	4770      	bx	lr
 800195e:	bf00      	nop
 8001960:	e000e100 	.word	0xe000e100

08001964 <HAL_SYSTICK_Config>:
 8001964:	3801      	subs	r0, #1
 8001966:	f1b0 7f80 	cmp.w	r0, #16777216	; 0x1000000
 800196a:	d20d      	bcs.n	8001988 <HAL_SYSTICK_Config+0x24>
 800196c:	4b07      	ldr	r3, [pc, #28]	; (800198c <HAL_SYSTICK_Config+0x28>)
 800196e:	2200      	movs	r2, #0
 8001970:	2107      	movs	r1, #7
 8001972:	b430      	push	{r4, r5}
 8001974:	25f0      	movs	r5, #240	; 0xf0
 8001976:	4c06      	ldr	r4, [pc, #24]	; (8001990 <HAL_SYSTICK_Config+0x2c>)
 8001978:	6058      	str	r0, [r3, #4]
 800197a:	4610      	mov	r0, r2
 800197c:	f884 5023 	strb.w	r5, [r4, #35]	; 0x23
 8001980:	609a      	str	r2, [r3, #8]
 8001982:	6019      	str	r1, [r3, #0]
 8001984:	bc30      	pop	{r4, r5}
 8001986:	4770      	bx	lr
 8001988:	2001      	movs	r0, #1
 800198a:	4770      	bx	lr
 800198c:	e000e010 	.word	0xe000e010
 8001990:	e000ed00 	.word	0xe000ed00

08001994 <HAL_DMA_Abort_IT>:
 8001994:	2800      	cmp	r0, #0
 8001996:	d060      	beq.n	8001a5a <HAL_DMA_Abort_IT+0xc6>
 8001998:	f890 2035 	ldrb.w	r2, [r0, #53]	; 0x35
 800199c:	2a02      	cmp	r2, #2
 800199e:	b538      	push	{r3, r4, r5, lr}
 80019a0:	4603      	mov	r3, r0
 80019a2:	d003      	beq.n	80019ac <HAL_DMA_Abort_IT+0x18>
 80019a4:	2280      	movs	r2, #128	; 0x80
 80019a6:	2001      	movs	r0, #1
 80019a8:	655a      	str	r2, [r3, #84]	; 0x54
 80019aa:	bd38      	pop	{r3, r4, r5, pc}
 80019ac:	6801      	ldr	r1, [r0, #0]
 80019ae:	4a57      	ldr	r2, [pc, #348]	; (8001b0c <HAL_DMA_Abort_IT+0x178>)
 80019b0:	4291      	cmp	r1, r2
 80019b2:	d049      	beq.n	8001a48 <HAL_DMA_Abort_IT+0xb4>
 80019b4:	3218      	adds	r2, #24
 80019b6:	4291      	cmp	r1, r2
 80019b8:	d046      	beq.n	8001a48 <HAL_DMA_Abort_IT+0xb4>
 80019ba:	3230      	adds	r2, #48	; 0x30
 80019bc:	4854      	ldr	r0, [pc, #336]	; (8001b10 <HAL_DMA_Abort_IT+0x17c>)
 80019be:	4c55      	ldr	r4, [pc, #340]	; (8001b14 <HAL_DMA_Abort_IT+0x180>)
 80019c0:	4281      	cmp	r1, r0
 80019c2:	bf18      	it	ne
 80019c4:	4291      	cmpne	r1, r2
 80019c6:	f100 0048 	add.w	r0, r0, #72	; 0x48
 80019ca:	4d53      	ldr	r5, [pc, #332]	; (8001b18 <HAL_DMA_Abort_IT+0x184>)
 80019cc:	bf0c      	ite	eq
 80019ce:	2201      	moveq	r2, #1
 80019d0:	2200      	movne	r2, #0
 80019d2:	42a1      	cmp	r1, r4
 80019d4:	bf08      	it	eq
 80019d6:	f042 0201 	orreq.w	r2, r2, #1
 80019da:	3448      	adds	r4, #72	; 0x48
 80019dc:	4281      	cmp	r1, r0
 80019de:	bf08      	it	eq
 80019e0:	f042 0201 	orreq.w	r2, r2, #1
 80019e4:	f500 7062 	add.w	r0, r0, #904	; 0x388
 80019e8:	42a9      	cmp	r1, r5
 80019ea:	bf08      	it	eq
 80019ec:	f042 0201 	orreq.w	r2, r2, #1
 80019f0:	f505 7562 	add.w	r5, r5, #904	; 0x388
 80019f4:	42a1      	cmp	r1, r4
 80019f6:	bf08      	it	eq
 80019f8:	f042 0201 	orreq.w	r2, r2, #1
 80019fc:	f504 7462 	add.w	r4, r4, #904	; 0x388
 8001a00:	4281      	cmp	r1, r0
 8001a02:	bf08      	it	eq
 8001a04:	f042 0201 	orreq.w	r2, r2, #1
 8001a08:	3048      	adds	r0, #72	; 0x48
 8001a0a:	42a9      	cmp	r1, r5
 8001a0c:	bf08      	it	eq
 8001a0e:	f042 0201 	orreq.w	r2, r2, #1
 8001a12:	3548      	adds	r5, #72	; 0x48
 8001a14:	42a1      	cmp	r1, r4
 8001a16:	bf08      	it	eq
 8001a18:	f042 0201 	orreq.w	r2, r2, #1
 8001a1c:	3448      	adds	r4, #72	; 0x48
 8001a1e:	4281      	cmp	r1, r0
 8001a20:	bf08      	it	eq
 8001a22:	f042 0201 	orreq.w	r2, r2, #1
 8001a26:	3048      	adds	r0, #72	; 0x48
 8001a28:	42a9      	cmp	r1, r5
 8001a2a:	bf08      	it	eq
 8001a2c:	f042 0201 	orreq.w	r2, r2, #1
 8001a30:	42a1      	cmp	r1, r4
 8001a32:	bf08      	it	eq
 8001a34:	f042 0201 	orreq.w	r2, r2, #1
 8001a38:	4281      	cmp	r1, r0
 8001a3a:	bf08      	it	eq
 8001a3c:	f042 0201 	orreq.w	r2, r2, #1
 8001a40:	b912      	cbnz	r2, 8001a48 <HAL_DMA_Abort_IT+0xb4>
 8001a42:	4a36      	ldr	r2, [pc, #216]	; (8001b1c <HAL_DMA_Abort_IT+0x188>)
 8001a44:	4291      	cmp	r1, r2
 8001a46:	d10a      	bne.n	8001a5e <HAL_DMA_Abort_IT+0xca>
 8001a48:	2204      	movs	r2, #4
 8001a4a:	2000      	movs	r0, #0
 8001a4c:	f883 2035 	strb.w	r2, [r3, #53]	; 0x35
 8001a50:	680b      	ldr	r3, [r1, #0]
 8001a52:	f023 0301 	bic.w	r3, r3, #1
 8001a56:	600b      	str	r3, [r1, #0]
 8001a58:	bd38      	pop	{r3, r4, r5, pc}
 8001a5a:	2001      	movs	r0, #1
 8001a5c:	4770      	bx	lr
 8001a5e:	f104 54c0 	add.w	r4, r4, #402653184	; 0x18000000
 8001a62:	4a2f      	ldr	r2, [pc, #188]	; (8001b20 <HAL_DMA_Abort_IT+0x18c>)
 8001a64:	482f      	ldr	r0, [pc, #188]	; (8001b24 <HAL_DMA_Abort_IT+0x190>)
 8001a66:	f504 449f 	add.w	r4, r4, #20352	; 0x4f80
 8001a6a:	4d2f      	ldr	r5, [pc, #188]	; (8001b28 <HAL_DMA_Abort_IT+0x194>)
 8001a6c:	42a1      	cmp	r1, r4
 8001a6e:	bf18      	it	ne
 8001a70:	4291      	cmpne	r1, r2
 8001a72:	f104 0450 	add.w	r4, r4, #80	; 0x50
 8001a76:	bf0c      	ite	eq
 8001a78:	2201      	moveq	r2, #1
 8001a7a:	2200      	movne	r2, #0
 8001a7c:	4281      	cmp	r1, r0
 8001a7e:	bf08      	it	eq
 8001a80:	f042 0201 	orreq.w	r2, r2, #1
 8001a84:	6808      	ldr	r0, [r1, #0]
 8001a86:	42a9      	cmp	r1, r5
 8001a88:	bf08      	it	eq
 8001a8a:	f042 0201 	orreq.w	r2, r2, #1
 8001a8e:	f020 000e 	bic.w	r0, r0, #14
 8001a92:	3528      	adds	r5, #40	; 0x28
 8001a94:	42a1      	cmp	r1, r4
 8001a96:	bf08      	it	eq
 8001a98:	f042 0201 	orreq.w	r2, r2, #1
 8001a9c:	6008      	str	r0, [r1, #0]
 8001a9e:	3428      	adds	r4, #40	; 0x28
 8001aa0:	6808      	ldr	r0, [r1, #0]
 8001aa2:	42a9      	cmp	r1, r5
 8001aa4:	bf08      	it	eq
 8001aa6:	f042 0201 	orreq.w	r2, r2, #1
 8001aaa:	f020 0001 	bic.w	r0, r0, #1
 8001aae:	42a1      	cmp	r1, r4
 8001ab0:	bf08      	it	eq
 8001ab2:	f042 0201 	orreq.w	r2, r2, #1
 8001ab6:	6008      	str	r0, [r1, #0]
 8001ab8:	b912      	cbnz	r2, 8001ac0 <HAL_DMA_Abort_IT+0x12c>
 8001aba:	4a1c      	ldr	r2, [pc, #112]	; (8001b2c <HAL_DMA_Abort_IT+0x198>)
 8001abc:	4291      	cmp	r1, r2
 8001abe:	d117      	bne.n	8001af0 <HAL_DMA_Abort_IT+0x15c>
 8001ac0:	6e1c      	ldr	r4, [r3, #96]	; 0x60
 8001ac2:	2101      	movs	r1, #1
 8001ac4:	6dd8      	ldr	r0, [r3, #92]	; 0x5c
 8001ac6:	6822      	ldr	r2, [r4, #0]
 8001ac8:	f000 001f 	and.w	r0, r0, #31
 8001acc:	6d9d      	ldr	r5, [r3, #88]	; 0x58
 8001ace:	f422 7280 	bic.w	r2, r2, #256	; 0x100
 8001ad2:	4081      	lsls	r1, r0
 8001ad4:	6e58      	ldr	r0, [r3, #100]	; 0x64
 8001ad6:	6022      	str	r2, [r4, #0]
 8001ad8:	e9d3 421a 	ldrd	r4, r2, [r3, #104]	; 0x68
 8001adc:	6069      	str	r1, [r5, #4]
 8001ade:	6044      	str	r4, [r0, #4]
 8001ae0:	b132      	cbz	r2, 8001af0 <HAL_DMA_Abort_IT+0x15c>
 8001ae2:	6811      	ldr	r1, [r2, #0]
 8001ae4:	6f18      	ldr	r0, [r3, #112]	; 0x70
 8001ae6:	6f5c      	ldr	r4, [r3, #116]	; 0x74
 8001ae8:	f421 7180 	bic.w	r1, r1, #256	; 0x100
 8001aec:	6011      	str	r1, [r2, #0]
 8001aee:	6044      	str	r4, [r0, #4]
 8001af0:	2400      	movs	r4, #0
 8001af2:	2101      	movs	r1, #1
 8001af4:	6d1a      	ldr	r2, [r3, #80]	; 0x50
 8001af6:	f883 4034 	strb.w	r4, [r3, #52]	; 0x34
 8001afa:	f883 1035 	strb.w	r1, [r3, #53]	; 0x35
 8001afe:	b11a      	cbz	r2, 8001b08 <HAL_DMA_Abort_IT+0x174>
 8001b00:	4618      	mov	r0, r3
 8001b02:	4790      	blx	r2
 8001b04:	4620      	mov	r0, r4
 8001b06:	bd38      	pop	{r3, r4, r5, pc}
 8001b08:	4610      	mov	r0, r2
 8001b0a:	bd38      	pop	{r3, r4, r5, pc}
 8001b0c:	40020010 	.word	0x40020010
 8001b10:	40020040 	.word	0x40020040
 8001b14:	40020070 	.word	0x40020070
 8001b18:	400200a0 	.word	0x400200a0
 8001b1c:	400204b8 	.word	0x400204b8
 8001b20:	5802541c 	.word	0x5802541c
 8001b24:	58025430 	.word	0x58025430
 8001b28:	58025444 	.word	0x58025444
 8001b2c:	58025494 	.word	0x58025494

08001b30 <HAL_GPIO_Init>:
 8001b30:	e92d 4ff0 	stmdb	sp!, {r4, r5, r6, r7, r8, r9, sl, fp, lr}
 8001b34:	468e      	mov	lr, r1
 8001b36:	6809      	ldr	r1, [r1, #0]
 8001b38:	b083      	sub	sp, #12
 8001b3a:	2900      	cmp	r1, #0
 8001b3c:	f000 80cd 	beq.w	8001cda <HAL_GPIO_Init+0x1aa>
 8001b40:	2600      	movs	r6, #0
 8001b42:	f8df 8214 	ldr.w	r8, [pc, #532]	; 8001d58 <HAL_GPIO_Init+0x228>
 8001b46:	2301      	movs	r3, #1
 8001b48:	40b3      	lsls	r3, r6
 8001b4a:	ea13 0501 	ands.w	r5, r3, r1
 8001b4e:	f000 80bf 	beq.w	8001cd0 <HAL_GPIO_Init+0x1a0>
 8001b52:	f8de 2004 	ldr.w	r2, [lr, #4]
 8001b56:	0077      	lsls	r7, r6, #1
 8001b58:	f04f 0c03 	mov.w	ip, #3
 8001b5c:	f022 0910 	bic.w	r9, r2, #16
 8001b60:	fa0c fc07 	lsl.w	ip, ip, r7
 8001b64:	f109 34ff 	add.w	r4, r9, #4294967295
 8001b68:	ea6f 0c0c 	mvn.w	ip, ip
 8001b6c:	2c01      	cmp	r4, #1
 8001b6e:	d812      	bhi.n	8001b96 <HAL_GPIO_Init+0x66>
 8001b70:	6884      	ldr	r4, [r0, #8]
 8001b72:	f3c2 1a00 	ubfx	sl, r2, #4, #1
 8001b76:	ea04 0b0c 	and.w	fp, r4, ip
 8001b7a:	f8de 400c 	ldr.w	r4, [lr, #12]
 8001b7e:	fa0a fa06 	lsl.w	sl, sl, r6
 8001b82:	40bc      	lsls	r4, r7
 8001b84:	ea44 040b 	orr.w	r4, r4, fp
 8001b88:	6084      	str	r4, [r0, #8]
 8001b8a:	6844      	ldr	r4, [r0, #4]
 8001b8c:	ea24 0303 	bic.w	r3, r4, r3
 8001b90:	ea4a 0303 	orr.w	r3, sl, r3
 8001b94:	6043      	str	r3, [r0, #4]
 8001b96:	68c3      	ldr	r3, [r0, #12]
 8001b98:	f1b9 0f02 	cmp.w	r9, #2
 8001b9c:	f8de 4008 	ldr.w	r4, [lr, #8]
 8001ba0:	ea03 030c 	and.w	r3, r3, ip
 8001ba4:	fa04 f407 	lsl.w	r4, r4, r7
 8001ba8:	ea44 0403 	orr.w	r4, r4, r3
 8001bac:	60c4      	str	r4, [r0, #12]
 8001bae:	d115      	bne.n	8001bdc <HAL_GPIO_Init+0xac>
 8001bb0:	08f3      	lsrs	r3, r6, #3
 8001bb2:	f006 0907 	and.w	r9, r6, #7
 8001bb6:	f04f 0b0f 	mov.w	fp, #15
 8001bba:	f8de 4010 	ldr.w	r4, [lr, #16]
 8001bbe:	eb00 0383 	add.w	r3, r0, r3, lsl #2
 8001bc2:	ea4f 0989 	mov.w	r9, r9, lsl #2
 8001bc6:	f8d3 a020 	ldr.w	sl, [r3, #32]
 8001bca:	fa0b fb09 	lsl.w	fp, fp, r9
 8001bce:	fa04 f409 	lsl.w	r4, r4, r9
 8001bd2:	ea2a 0a0b 	bic.w	sl, sl, fp
 8001bd6:	ea44 040a 	orr.w	r4, r4, sl
 8001bda:	621c      	str	r4, [r3, #32]
 8001bdc:	6804      	ldr	r4, [r0, #0]
 8001bde:	f002 0303 	and.w	r3, r2, #3
 8001be2:	ea04 0c0c 	and.w	ip, r4, ip
 8001be6:	40bb      	lsls	r3, r7
 8001be8:	ea43 030c 	orr.w	r3, r3, ip
 8001bec:	6003      	str	r3, [r0, #0]
 8001bee:	00d3      	lsls	r3, r2, #3
 8001bf0:	d56e      	bpl.n	8001cd0 <HAL_GPIO_Init+0x1a0>
 8001bf2:	4b53      	ldr	r3, [pc, #332]	; (8001d40 <HAL_GPIO_Init+0x210>)
 8001bf4:	f026 0903 	bic.w	r9, r6, #3
 8001bf8:	240f      	movs	r4, #15
 8001bfa:	f8d3 70f4 	ldr.w	r7, [r3, #244]	; 0xf4
 8001bfe:	f006 0303 	and.w	r3, r6, #3
 8001c02:	f047 0c02 	orr.w	ip, r7, #2
 8001c06:	4f4f      	ldr	r7, [pc, #316]	; (8001d44 <HAL_GPIO_Init+0x214>)
 8001c08:	444f      	add	r7, r9
 8001c0a:	ea4f 0983 	mov.w	r9, r3, lsl #2
 8001c0e:	4b4c      	ldr	r3, [pc, #304]	; (8001d40 <HAL_GPIO_Init+0x210>)
 8001c10:	fa04 f409 	lsl.w	r4, r4, r9
 8001c14:	f8c3 c0f4 	str.w	ip, [r3, #244]	; 0xf4
 8001c18:	f8d3 c0f4 	ldr.w	ip, [r3, #244]	; 0xf4
 8001c1c:	f5a3 4388 	sub.w	r3, r3, #17408	; 0x4400
 8001c20:	f00c 0c02 	and.w	ip, ip, #2
 8001c24:	4298      	cmp	r0, r3
 8001c26:	f8cd c004 	str.w	ip, [sp, #4]
 8001c2a:	f8dd c004 	ldr.w	ip, [sp, #4]
 8001c2e:	f8d7 c008 	ldr.w	ip, [r7, #8]
 8001c32:	ea2c 0404 	bic.w	r4, ip, r4
 8001c36:	d026      	beq.n	8001c86 <HAL_GPIO_Init+0x156>
 8001c38:	f503 6380 	add.w	r3, r3, #1024	; 0x400
 8001c3c:	4298      	cmp	r0, r3
 8001c3e:	d055      	beq.n	8001cec <HAL_GPIO_Init+0x1bc>
 8001c40:	4b41      	ldr	r3, [pc, #260]	; (8001d48 <HAL_GPIO_Init+0x218>)
 8001c42:	4298      	cmp	r0, r3
 8001c44:	d04c      	beq.n	8001ce0 <HAL_GPIO_Init+0x1b0>
 8001c46:	4b41      	ldr	r3, [pc, #260]	; (8001d4c <HAL_GPIO_Init+0x21c>)
 8001c48:	4298      	cmp	r0, r3
 8001c4a:	d05b      	beq.n	8001d04 <HAL_GPIO_Init+0x1d4>
 8001c4c:	4b40      	ldr	r3, [pc, #256]	; (8001d50 <HAL_GPIO_Init+0x220>)
 8001c4e:	4298      	cmp	r0, r3
 8001c50:	d05e      	beq.n	8001d10 <HAL_GPIO_Init+0x1e0>
 8001c52:	4b40      	ldr	r3, [pc, #256]	; (8001d54 <HAL_GPIO_Init+0x224>)
 8001c54:	4298      	cmp	r0, r3
 8001c56:	d04f      	beq.n	8001cf8 <HAL_GPIO_Init+0x1c8>
 8001c58:	f8df c100 	ldr.w	ip, [pc, #256]	; 8001d5c <HAL_GPIO_Init+0x22c>
 8001c5c:	4560      	cmp	r0, ip
 8001c5e:	d05d      	beq.n	8001d1c <HAL_GPIO_Init+0x1ec>
 8001c60:	f8df c0fc 	ldr.w	ip, [pc, #252]	; 8001d60 <HAL_GPIO_Init+0x230>
 8001c64:	4560      	cmp	r0, ip
 8001c66:	d05f      	beq.n	8001d28 <HAL_GPIO_Init+0x1f8>
 8001c68:	f8df c0f8 	ldr.w	ip, [pc, #248]	; 8001d64 <HAL_GPIO_Init+0x234>
 8001c6c:	4560      	cmp	r0, ip
 8001c6e:	d061      	beq.n	8001d34 <HAL_GPIO_Init+0x204>
 8001c70:	f8df c0f4 	ldr.w	ip, [pc, #244]	; 8001d68 <HAL_GPIO_Init+0x238>
 8001c74:	4560      	cmp	r0, ip
 8001c76:	bf0c      	ite	eq
 8001c78:	f04f 0c09 	moveq.w	ip, #9
 8001c7c:	f04f 0c0a 	movne.w	ip, #10
 8001c80:	fa0c f309 	lsl.w	r3, ip, r9
 8001c84:	431c      	orrs	r4, r3
 8001c86:	60bc      	str	r4, [r7, #8]
 8001c88:	43ec      	mvns	r4, r5
 8001c8a:	f8d8 3000 	ldr.w	r3, [r8]
 8001c8e:	03d7      	lsls	r7, r2, #15
 8001c90:	bf4c      	ite	mi
 8001c92:	432b      	orrmi	r3, r5
 8001c94:	4023      	andpl	r3, r4
 8001c96:	0397      	lsls	r7, r2, #14
 8001c98:	f04f 47b0 	mov.w	r7, #1476395008	; 0x58000000
 8001c9c:	f8c8 3000 	str.w	r3, [r8]
 8001ca0:	f8d8 3004 	ldr.w	r3, [r8, #4]
 8001ca4:	bf4c      	ite	mi
 8001ca6:	432b      	orrmi	r3, r5
 8001ca8:	4023      	andpl	r3, r4
 8001caa:	f8c8 3004 	str.w	r3, [r8, #4]
 8001cae:	683b      	ldr	r3, [r7, #0]
 8001cb0:	02d7      	lsls	r7, r2, #11
 8001cb2:	f04f 47b0 	mov.w	r7, #1476395008	; 0x58000000
 8001cb6:	bf4c      	ite	mi
 8001cb8:	432b      	orrmi	r3, r5
 8001cba:	4023      	andpl	r3, r4
 8001cbc:	0292      	lsls	r2, r2, #10
 8001cbe:	603b      	str	r3, [r7, #0]
 8001cc0:	687b      	ldr	r3, [r7, #4]
 8001cc2:	bf54      	ite	pl
 8001cc4:	ea04 0503 	andpl.w	r5, r4, r3
 8001cc8:	431d      	orrmi	r5, r3
 8001cca:	f04f 43b0 	mov.w	r3, #1476395008	; 0x58000000
 8001cce:	605d      	str	r5, [r3, #4]
 8001cd0:	3601      	adds	r6, #1
 8001cd2:	fa31 f306 	lsrs.w	r3, r1, r6
 8001cd6:	f47f af36 	bne.w	8001b46 <HAL_GPIO_Init+0x16>
 8001cda:	b003      	add	sp, #12
 8001cdc:	e8bd 8ff0 	ldmia.w	sp!, {r4, r5, r6, r7, r8, r9, sl, fp, pc}
 8001ce0:	f04f 0c02 	mov.w	ip, #2
 8001ce4:	fa0c f309 	lsl.w	r3, ip, r9
 8001ce8:	431c      	orrs	r4, r3
 8001cea:	e7cc      	b.n	8001c86 <HAL_GPIO_Init+0x156>
 8001cec:	f04f 0c01 	mov.w	ip, #1
 8001cf0:	fa0c f309 	lsl.w	r3, ip, r9
 8001cf4:	431c      	orrs	r4, r3
 8001cf6:	e7c6      	b.n	8001c86 <HAL_GPIO_Init+0x156>
 8001cf8:	f04f 0c05 	mov.w	ip, #5
 8001cfc:	fa0c f309 	lsl.w	r3, ip, r9
 8001d00:	431c      	orrs	r4, r3
 8001d02:	e7c0      	b.n	8001c86 <HAL_GPIO_Init+0x156>
 8001d04:	f04f 0c03 	mov.w	ip, #3
 8001d08:	fa0c f309 	lsl.w	r3, ip, r9
 8001d0c:	431c      	orrs	r4, r3
 8001d0e:	e7ba      	b.n	8001c86 <HAL_GPIO_Init+0x156>
 8001d10:	f04f 0c04 	mov.w	ip, #4
 8001d14:	fa0c f309 	lsl.w	r3, ip, r9
 8001d18:	431c      	orrs	r4, r3
 8001d1a:	e7b4      	b.n	8001c86 <HAL_GPIO_Init+0x156>
 8001d1c:	f04f 0c06 	mov.w	ip, #6
 8001d20:	fa0c f309 	lsl.w	r3, ip, r9
 8001d24:	431c      	orrs	r4, r3
 8001d26:	e7ae      	b.n	8001c86 <HAL_GPIO_Init+0x156>
 8001d28:	f04f 0c07 	mov.w	ip, #7
 8001d2c:	fa0c f309 	lsl.w	r3, ip, r9
 8001d30:	431c      	orrs	r4, r3
 8001d32:	e7a8      	b.n	8001c86 <HAL_GPIO_Init+0x156>
 8001d34:	f04f 0c08 	mov.w	ip, #8
 8001d38:	fa0c f309 	lsl.w	r3, ip, r9
 8001d3c:	431c      	orrs	r4, r3
 8001d3e:	e7a2      	b.n	8001c86 <HAL_GPIO_Init+0x156>
 8001d40:	58024400 	.word	0x58024400
 8001d44:	58000400 	.word	0x58000400
 8001d48:	58020800 	.word	0x58020800
 8001d4c:	58020c00 	.word	0x58020c00
 8001d50:	58021000 	.word	0x58021000
 8001d54:	58021400 	.word	0x58021400
 8001d58:	58000080 	.word	0x58000080
 8001d5c:	58021800 	.word	0x58021800
 8001d60:	58021c00 	.word	0x58021c00
 8001d64:	58022000 	.word	0x58022000
 8001d68:	58022400 	.word	0x58022400

08001d6c <HAL_GPIO_WritePin>:
 8001d6c:	b902      	cbnz	r2, 8001d70 <HAL_GPIO_WritePin+0x4>
 8001d6e:	0409      	lsls	r1, r1, #16
 8001d70:	6181      	str	r1, [r0, #24]
 8001d72:	4770      	bx	lr

08001d74 <HAL_HSEM_FastTake>:
 8001d74:	4a04      	ldr	r2, [pc, #16]	; (8001d88 <HAL_HSEM_FastTake+0x14>)
 8001d76:	3020      	adds	r0, #32
 8001d78:	4b04      	ldr	r3, [pc, #16]	; (8001d8c <HAL_HSEM_FastTake+0x18>)
 8001d7a:	f852 0020 	ldr.w	r0, [r2, r0, lsl #2]
 8001d7e:	1ac0      	subs	r0, r0, r3
 8001d80:	bf18      	it	ne
 8001d82:	2001      	movne	r0, #1
 8001d84:	4770      	bx	lr
 8001d86:	bf00      	nop
 8001d88:	58026400 	.word	0x58026400
 8001d8c:	80000300 	.word	0x80000300

08001d90 <HAL_HSEM_Release>:
 8001d90:	f441 7140 	orr.w	r1, r1, #768	; 0x300
 8001d94:	4b01      	ldr	r3, [pc, #4]	; (8001d9c <HAL_HSEM_Release+0xc>)
 8001d96:	f843 1020 	str.w	r1, [r3, r0, lsl #2]
 8001d9a:	4770      	bx	lr
 8001d9c:	58026400 	.word	0x58026400

08001da0 <HAL_PWREx_ConfigSupply>:
 8001da0:	4a1e      	ldr	r2, [pc, #120]	; (8001e1c <HAL_PWREx_ConfigSupply+0x7c>)
 8001da2:	68d3      	ldr	r3, [r2, #12]
 8001da4:	f003 0307 	and.w	r3, r3, #7
 8001da8:	2b06      	cmp	r3, #6
 8001daa:	d006      	beq.n	8001dba <HAL_PWREx_ConfigSupply+0x1a>
 8001dac:	68d3      	ldr	r3, [r2, #12]
 8001dae:	f003 033f 	and.w	r3, r3, #63	; 0x3f
 8001db2:	1a18      	subs	r0, r3, r0
 8001db4:	bf18      	it	ne
 8001db6:	2001      	movne	r0, #1
 8001db8:	4770      	bx	lr
 8001dba:	68d3      	ldr	r3, [r2, #12]
 8001dbc:	f023 033f 	bic.w	r3, r3, #63	; 0x3f
 8001dc0:	4303      	orrs	r3, r0
 8001dc2:	b570      	push	{r4, r5, r6, lr}
 8001dc4:	60d3      	str	r3, [r2, #12]
 8001dc6:	4604      	mov	r4, r0
 8001dc8:	4615      	mov	r5, r2
 8001dca:	f7ff fd55 	bl	8001878 <HAL_GetTick>
 8001dce:	4606      	mov	r6, r0
 8001dd0:	e005      	b.n	8001dde <HAL_PWREx_ConfigSupply+0x3e>
 8001dd2:	f7ff fd51 	bl	8001878 <HAL_GetTick>
 8001dd6:	1b80      	subs	r0, r0, r6
 8001dd8:	f5b0 7f7a 	cmp.w	r0, #1000	; 0x3e8
 8001ddc:	d81b      	bhi.n	8001e16 <HAL_PWREx_ConfigSupply+0x76>
 8001dde:	686b      	ldr	r3, [r5, #4]
 8001de0:	049a      	lsls	r2, r3, #18
 8001de2:	d5f6      	bpl.n	8001dd2 <HAL_PWREx_ConfigSupply+0x32>
 8001de4:	f1a4 031d 	sub.w	r3, r4, #29
 8001de8:	2b01      	cmp	r3, #1
 8001dea:	d905      	bls.n	8001df8 <HAL_PWREx_ConfigSupply+0x58>
 8001dec:	f1a4 002d 	sub.w	r0, r4, #45	; 0x2d
 8001df0:	2801      	cmp	r0, #1
 8001df2:	d901      	bls.n	8001df8 <HAL_PWREx_ConfigSupply+0x58>
 8001df4:	2000      	movs	r0, #0
 8001df6:	bd70      	pop	{r4, r5, r6, pc}
 8001df8:	f7ff fd3e 	bl	8001878 <HAL_GetTick>
 8001dfc:	4c07      	ldr	r4, [pc, #28]	; (8001e1c <HAL_PWREx_ConfigSupply+0x7c>)
 8001dfe:	4605      	mov	r5, r0
 8001e00:	e005      	b.n	8001e0e <HAL_PWREx_ConfigSupply+0x6e>
 8001e02:	f7ff fd39 	bl	8001878 <HAL_GetTick>
 8001e06:	1b40      	subs	r0, r0, r5
 8001e08:	f5b0 7f7a 	cmp.w	r0, #1000	; 0x3e8
 8001e0c:	d803      	bhi.n	8001e16 <HAL_PWREx_ConfigSupply+0x76>
 8001e0e:	68e3      	ldr	r3, [r4, #12]
 8001e10:	03db      	lsls	r3, r3, #15
 8001e12:	d5f6      	bpl.n	8001e02 <HAL_PWREx_ConfigSupply+0x62>
 8001e14:	e7ee      	b.n	8001df4 <HAL_PWREx_ConfigSupply+0x54>
 8001e16:	2001      	movs	r0, #1
 8001e18:	bd70      	pop	{r4, r5, r6, pc}
 8001e1a:	bf00      	nop
 8001e1c:	58024800 	.word	0x58024800

08001e20 <HAL_RCC_OscConfig>:
 8001e20:	2800      	cmp	r0, #0
 8001e22:	f000 819d 	beq.w	8002160 <HAL_RCC_OscConfig+0x340>
 8001e26:	b5f8      	push	{r3, r4, r5, r6, r7, lr}
 8001e28:	6803      	ldr	r3, [r0, #0]
 8001e2a:	4604      	mov	r4, r0
 8001e2c:	07d9      	lsls	r1, r3, #31
 8001e2e:	d533      	bpl.n	8001e98 <HAL_RCC_OscConfig+0x78>
 8001e30:	49a7      	ldr	r1, [pc, #668]	; (80020d0 <HAL_RCC_OscConfig+0x2b0>)
 8001e32:	690a      	ldr	r2, [r1, #16]
 8001e34:	6a89      	ldr	r1, [r1, #40]	; 0x28
 8001e36:	f002 0238 	and.w	r2, r2, #56	; 0x38
 8001e3a:	2a10      	cmp	r2, #16
 8001e3c:	f000 8112 	beq.w	8002064 <HAL_RCC_OscConfig+0x244>
 8001e40:	2a18      	cmp	r2, #24
 8001e42:	f000 810a 	beq.w	800205a <HAL_RCC_OscConfig+0x23a>
 8001e46:	6863      	ldr	r3, [r4, #4]
 8001e48:	f5b3 3f80 	cmp.w	r3, #65536	; 0x10000
 8001e4c:	d010      	beq.n	8001e70 <HAL_RCC_OscConfig+0x50>
 8001e4e:	2b00      	cmp	r3, #0
 8001e50:	f000 816f 	beq.w	8002132 <HAL_RCC_OscConfig+0x312>
 8001e54:	f5b3 2fa0 	cmp.w	r3, #327680	; 0x50000
 8001e58:	4b9d      	ldr	r3, [pc, #628]	; (80020d0 <HAL_RCC_OscConfig+0x2b0>)
 8001e5a:	681a      	ldr	r2, [r3, #0]
 8001e5c:	f000 81e4 	beq.w	8002228 <HAL_RCC_OscConfig+0x408>
 8001e60:	f422 3280 	bic.w	r2, r2, #65536	; 0x10000
 8001e64:	601a      	str	r2, [r3, #0]
 8001e66:	681a      	ldr	r2, [r3, #0]
 8001e68:	f422 2280 	bic.w	r2, r2, #262144	; 0x40000
 8001e6c:	601a      	str	r2, [r3, #0]
 8001e6e:	e004      	b.n	8001e7a <HAL_RCC_OscConfig+0x5a>
 8001e70:	4a97      	ldr	r2, [pc, #604]	; (80020d0 <HAL_RCC_OscConfig+0x2b0>)
 8001e72:	6813      	ldr	r3, [r2, #0]
 8001e74:	f443 3380 	orr.w	r3, r3, #65536	; 0x10000
 8001e78:	6013      	str	r3, [r2, #0]
 8001e7a:	f7ff fcfd 	bl	8001878 <HAL_GetTick>
 8001e7e:	4d94      	ldr	r5, [pc, #592]	; (80020d0 <HAL_RCC_OscConfig+0x2b0>)
 8001e80:	4606      	mov	r6, r0
 8001e82:	e005      	b.n	8001e90 <HAL_RCC_OscConfig+0x70>
 8001e84:	f7ff fcf8 	bl	8001878 <HAL_GetTick>
 8001e88:	1b80      	subs	r0, r0, r6
 8001e8a:	2864      	cmp	r0, #100	; 0x64
 8001e8c:	f200 814f 	bhi.w	800212e <HAL_RCC_OscConfig+0x30e>
 8001e90:	682b      	ldr	r3, [r5, #0]
 8001e92:	039f      	lsls	r7, r3, #14
 8001e94:	d5f6      	bpl.n	8001e84 <HAL_RCC_OscConfig+0x64>
 8001e96:	6823      	ldr	r3, [r4, #0]
 8001e98:	0799      	lsls	r1, r3, #30
 8001e9a:	f100 808e 	bmi.w	8001fba <HAL_RCC_OscConfig+0x19a>
 8001e9e:	06d9      	lsls	r1, r3, #27
 8001ea0:	d534      	bpl.n	8001f0c <HAL_RCC_OscConfig+0xec>
 8001ea2:	4a8b      	ldr	r2, [pc, #556]	; (80020d0 <HAL_RCC_OscConfig+0x2b0>)
 8001ea4:	6913      	ldr	r3, [r2, #16]
 8001ea6:	6a92      	ldr	r2, [r2, #40]	; 0x28
 8001ea8:	f003 0338 	and.w	r3, r3, #56	; 0x38
 8001eac:	2b08      	cmp	r3, #8
 8001eae:	f000 80e9 	beq.w	8002084 <HAL_RCC_OscConfig+0x264>
 8001eb2:	2b18      	cmp	r3, #24
 8001eb4:	f000 80e1 	beq.w	800207a <HAL_RCC_OscConfig+0x25a>
 8001eb8:	69e3      	ldr	r3, [r4, #28]
 8001eba:	2b00      	cmp	r3, #0
 8001ebc:	f000 8178 	beq.w	80021b0 <HAL_RCC_OscConfig+0x390>
 8001ec0:	4b83      	ldr	r3, [pc, #524]	; (80020d0 <HAL_RCC_OscConfig+0x2b0>)
 8001ec2:	681a      	ldr	r2, [r3, #0]
 8001ec4:	461d      	mov	r5, r3
 8001ec6:	f042 0280 	orr.w	r2, r2, #128	; 0x80
 8001eca:	601a      	str	r2, [r3, #0]
 8001ecc:	f7ff fcd4 	bl	8001878 <HAL_GetTick>
 8001ed0:	4606      	mov	r6, r0
 8001ed2:	e005      	b.n	8001ee0 <HAL_RCC_OscConfig+0xc0>
 8001ed4:	f7ff fcd0 	bl	8001878 <HAL_GetTick>
 8001ed8:	1b80      	subs	r0, r0, r6
 8001eda:	2802      	cmp	r0, #2
 8001edc:	f200 8127 	bhi.w	800212e <HAL_RCC_OscConfig+0x30e>
 8001ee0:	682b      	ldr	r3, [r5, #0]
 8001ee2:	05db      	lsls	r3, r3, #23
 8001ee4:	d5f6      	bpl.n	8001ed4 <HAL_RCC_OscConfig+0xb4>
 8001ee6:	f7ff fcdf 	bl	80018a8 <HAL_GetREVID>
 8001eea:	f241 0303 	movw	r3, #4099	; 0x1003
 8001eee:	4298      	cmp	r0, r3
 8001ef0:	f200 825d 	bhi.w	80023ae <HAL_RCC_OscConfig+0x58e>
 8001ef4:	6a22      	ldr	r2, [r4, #32]
 8001ef6:	686b      	ldr	r3, [r5, #4]
 8001ef8:	2a20      	cmp	r2, #32
 8001efa:	f023 43f8 	bic.w	r3, r3, #2080374784	; 0x7c000000
 8001efe:	bf0c      	ite	eq
 8001f00:	f043 4380 	orreq.w	r3, r3, #1073741824	; 0x40000000
 8001f04:	ea43 6382 	orrne.w	r3, r3, r2, lsl #26
 8001f08:	606b      	str	r3, [r5, #4]
 8001f0a:	6823      	ldr	r3, [r4, #0]
 8001f0c:	071d      	lsls	r5, r3, #28
 8001f0e:	d517      	bpl.n	8001f40 <HAL_RCC_OscConfig+0x120>
 8001f10:	6963      	ldr	r3, [r4, #20]
 8001f12:	2b00      	cmp	r3, #0
 8001f14:	f000 8126 	beq.w	8002164 <HAL_RCC_OscConfig+0x344>
 8001f18:	4b6d      	ldr	r3, [pc, #436]	; (80020d0 <HAL_RCC_OscConfig+0x2b0>)
 8001f1a:	6f5a      	ldr	r2, [r3, #116]	; 0x74
 8001f1c:	461d      	mov	r5, r3
 8001f1e:	f042 0201 	orr.w	r2, r2, #1
 8001f22:	675a      	str	r2, [r3, #116]	; 0x74
 8001f24:	f7ff fca8 	bl	8001878 <HAL_GetTick>
 8001f28:	4606      	mov	r6, r0
 8001f2a:	e005      	b.n	8001f38 <HAL_RCC_OscConfig+0x118>
 8001f2c:	f7ff fca4 	bl	8001878 <HAL_GetTick>
 8001f30:	1b80      	subs	r0, r0, r6
 8001f32:	2802      	cmp	r0, #2
 8001f34:	f200 80fb 	bhi.w	800212e <HAL_RCC_OscConfig+0x30e>
 8001f38:	6f6b      	ldr	r3, [r5, #116]	; 0x74
 8001f3a:	0798      	lsls	r0, r3, #30
 8001f3c:	d5f6      	bpl.n	8001f2c <HAL_RCC_OscConfig+0x10c>
 8001f3e:	6823      	ldr	r3, [r4, #0]
 8001f40:	069a      	lsls	r2, r3, #26
 8001f42:	d517      	bpl.n	8001f74 <HAL_RCC_OscConfig+0x154>
 8001f44:	69a3      	ldr	r3, [r4, #24]
 8001f46:	2b00      	cmp	r3, #0
 8001f48:	f000 811f 	beq.w	800218a <HAL_RCC_OscConfig+0x36a>
 8001f4c:	4b60      	ldr	r3, [pc, #384]	; (80020d0 <HAL_RCC_OscConfig+0x2b0>)
 8001f4e:	681a      	ldr	r2, [r3, #0]
 8001f50:	461d      	mov	r5, r3
 8001f52:	f442 5280 	orr.w	r2, r2, #4096	; 0x1000
 8001f56:	601a      	str	r2, [r3, #0]
 8001f58:	f7ff fc8e 	bl	8001878 <HAL_GetTick>
 8001f5c:	4606      	mov	r6, r0
 8001f5e:	e005      	b.n	8001f6c <HAL_RCC_OscConfig+0x14c>
 8001f60:	f7ff fc8a 	bl	8001878 <HAL_GetTick>
 8001f64:	1b80      	subs	r0, r0, r6
 8001f66:	2802      	cmp	r0, #2
 8001f68:	f200 80e1 	bhi.w	800212e <HAL_RCC_OscConfig+0x30e>
 8001f6c:	682b      	ldr	r3, [r5, #0]
 8001f6e:	049f      	lsls	r7, r3, #18
 8001f70:	d5f6      	bpl.n	8001f60 <HAL_RCC_OscConfig+0x140>
 8001f72:	6823      	ldr	r3, [r4, #0]
 8001f74:	0759      	lsls	r1, r3, #29
 8001f76:	f100 80a0 	bmi.w	80020ba <HAL_RCC_OscConfig+0x29a>
 8001f7a:	6a60      	ldr	r0, [r4, #36]	; 0x24
 8001f7c:	b1d8      	cbz	r0, 8001fb6 <HAL_RCC_OscConfig+0x196>
 8001f7e:	4b54      	ldr	r3, [pc, #336]	; (80020d0 <HAL_RCC_OscConfig+0x2b0>)
 8001f80:	691a      	ldr	r2, [r3, #16]
 8001f82:	f002 0238 	and.w	r2, r2, #56	; 0x38
 8001f86:	2a18      	cmp	r2, #24
 8001f88:	f000 81c9 	beq.w	800231e <HAL_RCC_OscConfig+0x4fe>
 8001f8c:	2802      	cmp	r0, #2
 8001f8e:	681a      	ldr	r2, [r3, #0]
 8001f90:	f000 815b 	beq.w	800224a <HAL_RCC_OscConfig+0x42a>
 8001f94:	f022 7280 	bic.w	r2, r2, #16777216	; 0x1000000
 8001f98:	461c      	mov	r4, r3
 8001f9a:	601a      	str	r2, [r3, #0]
 8001f9c:	f7ff fc6c 	bl	8001878 <HAL_GetTick>
 8001fa0:	4605      	mov	r5, r0
 8001fa2:	e005      	b.n	8001fb0 <HAL_RCC_OscConfig+0x190>
 8001fa4:	f7ff fc68 	bl	8001878 <HAL_GetTick>
 8001fa8:	1b40      	subs	r0, r0, r5
 8001faa:	2802      	cmp	r0, #2
 8001fac:	f200 80bf 	bhi.w	800212e <HAL_RCC_OscConfig+0x30e>
 8001fb0:	6823      	ldr	r3, [r4, #0]
 8001fb2:	019b      	lsls	r3, r3, #6
 8001fb4:	d4f6      	bmi.n	8001fa4 <HAL_RCC_OscConfig+0x184>
 8001fb6:	2000      	movs	r0, #0
 8001fb8:	bdf8      	pop	{r3, r4, r5, r6, r7, pc}
 8001fba:	4a45      	ldr	r2, [pc, #276]	; (80020d0 <HAL_RCC_OscConfig+0x2b0>)
 8001fbc:	6913      	ldr	r3, [r2, #16]
 8001fbe:	6a92      	ldr	r2, [r2, #40]	; 0x28
 8001fc0:	f013 0338 	ands.w	r3, r3, #56	; 0x38
 8001fc4:	d02f      	beq.n	8002026 <HAL_RCC_OscConfig+0x206>
 8001fc6:	2b18      	cmp	r3, #24
 8001fc8:	d02b      	beq.n	8002022 <HAL_RCC_OscConfig+0x202>
 8001fca:	68e2      	ldr	r2, [r4, #12]
 8001fcc:	2a00      	cmp	r2, #0
 8001fce:	f000 8103 	beq.w	80021d8 <HAL_RCC_OscConfig+0x3b8>
 8001fd2:	493f      	ldr	r1, [pc, #252]	; (80020d0 <HAL_RCC_OscConfig+0x2b0>)
 8001fd4:	680b      	ldr	r3, [r1, #0]
 8001fd6:	460d      	mov	r5, r1
 8001fd8:	f023 0319 	bic.w	r3, r3, #25
 8001fdc:	4313      	orrs	r3, r2
 8001fde:	600b      	str	r3, [r1, #0]
 8001fe0:	f7ff fc4a 	bl	8001878 <HAL_GetTick>
 8001fe4:	4606      	mov	r6, r0
 8001fe6:	e005      	b.n	8001ff4 <HAL_RCC_OscConfig+0x1d4>
 8001fe8:	f7ff fc46 	bl	8001878 <HAL_GetTick>
 8001fec:	1b80      	subs	r0, r0, r6
 8001fee:	2802      	cmp	r0, #2
 8001ff0:	f200 809d 	bhi.w	800212e <HAL_RCC_OscConfig+0x30e>
 8001ff4:	682b      	ldr	r3, [r5, #0]
 8001ff6:	075f      	lsls	r7, r3, #29
 8001ff8:	d5f6      	bpl.n	8001fe8 <HAL_RCC_OscConfig+0x1c8>
 8001ffa:	f7ff fc55 	bl	80018a8 <HAL_GetREVID>
 8001ffe:	f241 0303 	movw	r3, #4099	; 0x1003
 8002002:	4298      	cmp	r0, r3
 8002004:	f200 81e2 	bhi.w	80023cc <HAL_RCC_OscConfig+0x5ac>
 8002008:	6922      	ldr	r2, [r4, #16]
 800200a:	686b      	ldr	r3, [r5, #4]
 800200c:	2a40      	cmp	r2, #64	; 0x40
 800200e:	f423 337c 	bic.w	r3, r3, #258048	; 0x3f000
 8002012:	bf0c      	ite	eq
 8002014:	f443 3300 	orreq.w	r3, r3, #131072	; 0x20000
 8002018:	ea43 3302 	orrne.w	r3, r3, r2, lsl #12
 800201c:	606b      	str	r3, [r5, #4]
 800201e:	6823      	ldr	r3, [r4, #0]
 8002020:	e73d      	b.n	8001e9e <HAL_RCC_OscConfig+0x7e>
 8002022:	0792      	lsls	r2, r2, #30
 8002024:	d1d1      	bne.n	8001fca <HAL_RCC_OscConfig+0x1aa>
 8002026:	4b2a      	ldr	r3, [pc, #168]	; (80020d0 <HAL_RCC_OscConfig+0x2b0>)
 8002028:	681b      	ldr	r3, [r3, #0]
 800202a:	075b      	lsls	r3, r3, #29
 800202c:	d501      	bpl.n	8002032 <HAL_RCC_OscConfig+0x212>
 800202e:	68e3      	ldr	r3, [r4, #12]
 8002030:	b30b      	cbz	r3, 8002076 <HAL_RCC_OscConfig+0x256>
 8002032:	f7ff fc39 	bl	80018a8 <HAL_GetREVID>
 8002036:	f241 0303 	movw	r3, #4099	; 0x1003
 800203a:	4298      	cmp	r0, r3
 800203c:	f200 80e0 	bhi.w	8002200 <HAL_RCC_OscConfig+0x3e0>
 8002040:	6922      	ldr	r2, [r4, #16]
 8002042:	2a40      	cmp	r2, #64	; 0x40
 8002044:	f000 80f8 	beq.w	8002238 <HAL_RCC_OscConfig+0x418>
 8002048:	4921      	ldr	r1, [pc, #132]	; (80020d0 <HAL_RCC_OscConfig+0x2b0>)
 800204a:	684b      	ldr	r3, [r1, #4]
 800204c:	f423 337c 	bic.w	r3, r3, #258048	; 0x3f000
 8002050:	ea43 3302 	orr.w	r3, r3, r2, lsl #12
 8002054:	604b      	str	r3, [r1, #4]
 8002056:	6823      	ldr	r3, [r4, #0]
 8002058:	e721      	b.n	8001e9e <HAL_RCC_OscConfig+0x7e>
 800205a:	f001 0103 	and.w	r1, r1, #3
 800205e:	2902      	cmp	r1, #2
 8002060:	f47f aef1 	bne.w	8001e46 <HAL_RCC_OscConfig+0x26>
 8002064:	4a1a      	ldr	r2, [pc, #104]	; (80020d0 <HAL_RCC_OscConfig+0x2b0>)
 8002066:	6812      	ldr	r2, [r2, #0]
 8002068:	0392      	lsls	r2, r2, #14
 800206a:	f57f af15 	bpl.w	8001e98 <HAL_RCC_OscConfig+0x78>
 800206e:	6862      	ldr	r2, [r4, #4]
 8002070:	2a00      	cmp	r2, #0
 8002072:	f47f af11 	bne.w	8001e98 <HAL_RCC_OscConfig+0x78>
 8002076:	2001      	movs	r0, #1
 8002078:	bdf8      	pop	{r3, r4, r5, r6, r7, pc}
 800207a:	f002 0203 	and.w	r2, r2, #3
 800207e:	2a01      	cmp	r2, #1
 8002080:	f47f af1a 	bne.w	8001eb8 <HAL_RCC_OscConfig+0x98>
 8002084:	4b12      	ldr	r3, [pc, #72]	; (80020d0 <HAL_RCC_OscConfig+0x2b0>)
 8002086:	681b      	ldr	r3, [r3, #0]
 8002088:	05da      	lsls	r2, r3, #23
 800208a:	d502      	bpl.n	8002092 <HAL_RCC_OscConfig+0x272>
 800208c:	69e3      	ldr	r3, [r4, #28]
 800208e:	2b80      	cmp	r3, #128	; 0x80
 8002090:	d1f1      	bne.n	8002076 <HAL_RCC_OscConfig+0x256>
 8002092:	f7ff fc09 	bl	80018a8 <HAL_GetREVID>
 8002096:	f241 0303 	movw	r3, #4099	; 0x1003
 800209a:	4298      	cmp	r0, r3
 800209c:	f200 80ba 	bhi.w	8002214 <HAL_RCC_OscConfig+0x3f4>
 80020a0:	6a22      	ldr	r2, [r4, #32]
 80020a2:	2a20      	cmp	r2, #32
 80020a4:	f000 81a1 	beq.w	80023ea <HAL_RCC_OscConfig+0x5ca>
 80020a8:	4909      	ldr	r1, [pc, #36]	; (80020d0 <HAL_RCC_OscConfig+0x2b0>)
 80020aa:	684b      	ldr	r3, [r1, #4]
 80020ac:	f023 43f8 	bic.w	r3, r3, #2080374784	; 0x7c000000
 80020b0:	ea43 6382 	orr.w	r3, r3, r2, lsl #26
 80020b4:	604b      	str	r3, [r1, #4]
 80020b6:	6823      	ldr	r3, [r4, #0]
 80020b8:	e728      	b.n	8001f0c <HAL_RCC_OscConfig+0xec>
 80020ba:	4b06      	ldr	r3, [pc, #24]	; (80020d4 <HAL_RCC_OscConfig+0x2b4>)
 80020bc:	681a      	ldr	r2, [r3, #0]
 80020be:	461d      	mov	r5, r3
 80020c0:	f442 7280 	orr.w	r2, r2, #256	; 0x100
 80020c4:	601a      	str	r2, [r3, #0]
 80020c6:	f7ff fbd7 	bl	8001878 <HAL_GetTick>
 80020ca:	4606      	mov	r6, r0
 80020cc:	e009      	b.n	80020e2 <HAL_RCC_OscConfig+0x2c2>
 80020ce:	bf00      	nop
 80020d0:	58024400 	.word	0x58024400
 80020d4:	58024800 	.word	0x58024800
 80020d8:	f7ff fbce 	bl	8001878 <HAL_GetTick>
 80020dc:	1b80      	subs	r0, r0, r6
 80020de:	2864      	cmp	r0, #100	; 0x64
 80020e0:	d825      	bhi.n	800212e <HAL_RCC_OscConfig+0x30e>
 80020e2:	682b      	ldr	r3, [r5, #0]
 80020e4:	05da      	lsls	r2, r3, #23
 80020e6:	d5f7      	bpl.n	80020d8 <HAL_RCC_OscConfig+0x2b8>
 80020e8:	68a3      	ldr	r3, [r4, #8]
 80020ea:	2b01      	cmp	r3, #1
 80020ec:	f000 8177 	beq.w	80023de <HAL_RCC_OscConfig+0x5be>
 80020f0:	2b00      	cmp	r3, #0
 80020f2:	f000 8142 	beq.w	800237a <HAL_RCC_OscConfig+0x55a>
 80020f6:	2b05      	cmp	r3, #5
 80020f8:	4bb1      	ldr	r3, [pc, #708]	; (80023c0 <HAL_RCC_OscConfig+0x5a0>)
 80020fa:	6f1a      	ldr	r2, [r3, #112]	; 0x70
 80020fc:	f000 817e 	beq.w	80023fc <HAL_RCC_OscConfig+0x5dc>
 8002100:	f022 0201 	bic.w	r2, r2, #1
 8002104:	671a      	str	r2, [r3, #112]	; 0x70
 8002106:	6f1a      	ldr	r2, [r3, #112]	; 0x70
 8002108:	f022 0204 	bic.w	r2, r2, #4
 800210c:	671a      	str	r2, [r3, #112]	; 0x70
 800210e:	f7ff fbb3 	bl	8001878 <HAL_GetTick>
 8002112:	4dab      	ldr	r5, [pc, #684]	; (80023c0 <HAL_RCC_OscConfig+0x5a0>)
 8002114:	4607      	mov	r7, r0
 8002116:	f241 3688 	movw	r6, #5000	; 0x1388
 800211a:	e004      	b.n	8002126 <HAL_RCC_OscConfig+0x306>
 800211c:	f7ff fbac 	bl	8001878 <HAL_GetTick>
 8002120:	1bc0      	subs	r0, r0, r7
 8002122:	42b0      	cmp	r0, r6
 8002124:	d803      	bhi.n	800212e <HAL_RCC_OscConfig+0x30e>
 8002126:	6f2b      	ldr	r3, [r5, #112]	; 0x70
 8002128:	079b      	lsls	r3, r3, #30
 800212a:	d5f7      	bpl.n	800211c <HAL_RCC_OscConfig+0x2fc>
 800212c:	e725      	b.n	8001f7a <HAL_RCC_OscConfig+0x15a>
 800212e:	2003      	movs	r0, #3
 8002130:	bdf8      	pop	{r3, r4, r5, r6, r7, pc}
 8002132:	4ba3      	ldr	r3, [pc, #652]	; (80023c0 <HAL_RCC_OscConfig+0x5a0>)
 8002134:	681a      	ldr	r2, [r3, #0]
 8002136:	461d      	mov	r5, r3
 8002138:	f422 3280 	bic.w	r2, r2, #65536	; 0x10000
 800213c:	601a      	str	r2, [r3, #0]
 800213e:	681a      	ldr	r2, [r3, #0]
 8002140:	f422 2280 	bic.w	r2, r2, #262144	; 0x40000
 8002144:	601a      	str	r2, [r3, #0]
 8002146:	f7ff fb97 	bl	8001878 <HAL_GetTick>
 800214a:	4606      	mov	r6, r0
 800214c:	e004      	b.n	8002158 <HAL_RCC_OscConfig+0x338>
 800214e:	f7ff fb93 	bl	8001878 <HAL_GetTick>
 8002152:	1b80      	subs	r0, r0, r6
 8002154:	2864      	cmp	r0, #100	; 0x64
 8002156:	d8ea      	bhi.n	800212e <HAL_RCC_OscConfig+0x30e>
 8002158:	682b      	ldr	r3, [r5, #0]
 800215a:	0398      	lsls	r0, r3, #14
 800215c:	d4f7      	bmi.n	800214e <HAL_RCC_OscConfig+0x32e>
 800215e:	e69a      	b.n	8001e96 <HAL_RCC_OscConfig+0x76>
 8002160:	2001      	movs	r0, #1
 8002162:	4770      	bx	lr
 8002164:	4b96      	ldr	r3, [pc, #600]	; (80023c0 <HAL_RCC_OscConfig+0x5a0>)
 8002166:	6f5a      	ldr	r2, [r3, #116]	; 0x74
 8002168:	461d      	mov	r5, r3
 800216a:	f022 0201 	bic.w	r2, r2, #1
 800216e:	675a      	str	r2, [r3, #116]	; 0x74
 8002170:	f7ff fb82 	bl	8001878 <HAL_GetTick>
 8002174:	4606      	mov	r6, r0
 8002176:	e004      	b.n	8002182 <HAL_RCC_OscConfig+0x362>
 8002178:	f7ff fb7e 	bl	8001878 <HAL_GetTick>
 800217c:	1b80      	subs	r0, r0, r6
 800217e:	2802      	cmp	r0, #2
 8002180:	d8d5      	bhi.n	800212e <HAL_RCC_OscConfig+0x30e>
 8002182:	6f6b      	ldr	r3, [r5, #116]	; 0x74
 8002184:	0799      	lsls	r1, r3, #30
 8002186:	d4f7      	bmi.n	8002178 <HAL_RCC_OscConfig+0x358>
 8002188:	e6d9      	b.n	8001f3e <HAL_RCC_OscConfig+0x11e>
 800218a:	4b8d      	ldr	r3, [pc, #564]	; (80023c0 <HAL_RCC_OscConfig+0x5a0>)
 800218c:	681a      	ldr	r2, [r3, #0]
 800218e:	461d      	mov	r5, r3
 8002190:	f422 5280 	bic.w	r2, r2, #4096	; 0x1000
 8002194:	601a      	str	r2, [r3, #0]
 8002196:	f7ff fb6f 	bl	8001878 <HAL_GetTick>
 800219a:	4606      	mov	r6, r0
 800219c:	e004      	b.n	80021a8 <HAL_RCC_OscConfig+0x388>
 800219e:	f7ff fb6b 	bl	8001878 <HAL_GetTick>
 80021a2:	1b80      	subs	r0, r0, r6
 80021a4:	2802      	cmp	r0, #2
 80021a6:	d8c2      	bhi.n	800212e <HAL_RCC_OscConfig+0x30e>
 80021a8:	682b      	ldr	r3, [r5, #0]
 80021aa:	0498      	lsls	r0, r3, #18
 80021ac:	d4f7      	bmi.n	800219e <HAL_RCC_OscConfig+0x37e>
 80021ae:	e6e0      	b.n	8001f72 <HAL_RCC_OscConfig+0x152>
 80021b0:	4b83      	ldr	r3, [pc, #524]	; (80023c0 <HAL_RCC_OscConfig+0x5a0>)
 80021b2:	681a      	ldr	r2, [r3, #0]
 80021b4:	461d      	mov	r5, r3
 80021b6:	f022 0280 	bic.w	r2, r2, #128	; 0x80
 80021ba:	601a      	str	r2, [r3, #0]
 80021bc:	f7ff fb5c 	bl	8001878 <HAL_GetTick>
 80021c0:	4606      	mov	r6, r0
 80021c2:	e004      	b.n	80021ce <HAL_RCC_OscConfig+0x3ae>
 80021c4:	f7ff fb58 	bl	8001878 <HAL_GetTick>
 80021c8:	1b80      	subs	r0, r0, r6
 80021ca:	2802      	cmp	r0, #2
 80021cc:	d8af      	bhi.n	800212e <HAL_RCC_OscConfig+0x30e>
 80021ce:	682b      	ldr	r3, [r5, #0]
 80021d0:	05df      	lsls	r7, r3, #23
 80021d2:	d4f7      	bmi.n	80021c4 <HAL_RCC_OscConfig+0x3a4>
 80021d4:	6823      	ldr	r3, [r4, #0]
 80021d6:	e699      	b.n	8001f0c <HAL_RCC_OscConfig+0xec>
 80021d8:	4b79      	ldr	r3, [pc, #484]	; (80023c0 <HAL_RCC_OscConfig+0x5a0>)
 80021da:	681a      	ldr	r2, [r3, #0]
 80021dc:	461d      	mov	r5, r3
 80021de:	f022 0201 	bic.w	r2, r2, #1
 80021e2:	601a      	str	r2, [r3, #0]
 80021e4:	f7ff fb48 	bl	8001878 <HAL_GetTick>
 80021e8:	4606      	mov	r6, r0
 80021ea:	e004      	b.n	80021f6 <HAL_RCC_OscConfig+0x3d6>
 80021ec:	f7ff fb44 	bl	8001878 <HAL_GetTick>
 80021f0:	1b80      	subs	r0, r0, r6
 80021f2:	2802      	cmp	r0, #2
 80021f4:	d89b      	bhi.n	800212e <HAL_RCC_OscConfig+0x30e>
 80021f6:	682b      	ldr	r3, [r5, #0]
 80021f8:	0758      	lsls	r0, r3, #29
 80021fa:	d4f7      	bmi.n	80021ec <HAL_RCC_OscConfig+0x3cc>
 80021fc:	6823      	ldr	r3, [r4, #0]
 80021fe:	e64e      	b.n	8001e9e <HAL_RCC_OscConfig+0x7e>
 8002200:	4a6f      	ldr	r2, [pc, #444]	; (80023c0 <HAL_RCC_OscConfig+0x5a0>)
 8002202:	6921      	ldr	r1, [r4, #16]
 8002204:	6853      	ldr	r3, [r2, #4]
 8002206:	f023 43fe 	bic.w	r3, r3, #2130706432	; 0x7f000000
 800220a:	ea43 6301 	orr.w	r3, r3, r1, lsl #24
 800220e:	6053      	str	r3, [r2, #4]
 8002210:	6823      	ldr	r3, [r4, #0]
 8002212:	e644      	b.n	8001e9e <HAL_RCC_OscConfig+0x7e>
 8002214:	4a6a      	ldr	r2, [pc, #424]	; (80023c0 <HAL_RCC_OscConfig+0x5a0>)
 8002216:	6a21      	ldr	r1, [r4, #32]
 8002218:	68d3      	ldr	r3, [r2, #12]
 800221a:	f023 537c 	bic.w	r3, r3, #1056964608	; 0x3f000000
 800221e:	ea43 6301 	orr.w	r3, r3, r1, lsl #24
 8002222:	60d3      	str	r3, [r2, #12]
 8002224:	6823      	ldr	r3, [r4, #0]
 8002226:	e671      	b.n	8001f0c <HAL_RCC_OscConfig+0xec>
 8002228:	f442 2280 	orr.w	r2, r2, #262144	; 0x40000
 800222c:	601a      	str	r2, [r3, #0]
 800222e:	681a      	ldr	r2, [r3, #0]
 8002230:	f442 3280 	orr.w	r2, r2, #65536	; 0x10000
 8002234:	601a      	str	r2, [r3, #0]
 8002236:	e620      	b.n	8001e7a <HAL_RCC_OscConfig+0x5a>
 8002238:	4a61      	ldr	r2, [pc, #388]	; (80023c0 <HAL_RCC_OscConfig+0x5a0>)
 800223a:	6853      	ldr	r3, [r2, #4]
 800223c:	f423 337c 	bic.w	r3, r3, #258048	; 0x3f000
 8002240:	f443 3300 	orr.w	r3, r3, #131072	; 0x20000
 8002244:	6053      	str	r3, [r2, #4]
 8002246:	6823      	ldr	r3, [r4, #0]
 8002248:	e629      	b.n	8001e9e <HAL_RCC_OscConfig+0x7e>
 800224a:	f022 7280 	bic.w	r2, r2, #16777216	; 0x1000000
 800224e:	461d      	mov	r5, r3
 8002250:	601a      	str	r2, [r3, #0]
 8002252:	f7ff fb11 	bl	8001878 <HAL_GetTick>
 8002256:	4606      	mov	r6, r0
 8002258:	e005      	b.n	8002266 <HAL_RCC_OscConfig+0x446>
 800225a:	f7ff fb0d 	bl	8001878 <HAL_GetTick>
 800225e:	1b80      	subs	r0, r0, r6
 8002260:	2802      	cmp	r0, #2
 8002262:	f63f af64 	bhi.w	800212e <HAL_RCC_OscConfig+0x30e>
 8002266:	682b      	ldr	r3, [r5, #0]
 8002268:	0199      	lsls	r1, r3, #6
 800226a:	d4f6      	bmi.n	800225a <HAL_RCC_OscConfig+0x43a>
 800226c:	6aaa      	ldr	r2, [r5, #40]	; 0x28
 800226e:	4b55      	ldr	r3, [pc, #340]	; (80023c4 <HAL_RCC_OscConfig+0x5a4>)
 8002270:	6aa0      	ldr	r0, [r4, #40]	; 0x28
 8002272:	4013      	ands	r3, r2
 8002274:	6ae2      	ldr	r2, [r4, #44]	; 0x2c
 8002276:	4954      	ldr	r1, [pc, #336]	; (80023c8 <HAL_RCC_OscConfig+0x5a8>)
 8002278:	4303      	orrs	r3, r0
 800227a:	4e51      	ldr	r6, [pc, #324]	; (80023c0 <HAL_RCC_OscConfig+0x5a0>)
 800227c:	ea43 1302 	orr.w	r3, r3, r2, lsl #4
 8002280:	62ab      	str	r3, [r5, #40]	; 0x28
 8002282:	6b27      	ldr	r7, [r4, #48]	; 0x30
 8002284:	e9d4 320d 	ldrd	r3, r2, [r4, #52]	; 0x34
 8002288:	3f01      	subs	r7, #1
 800228a:	1e50      	subs	r0, r2, #1
 800228c:	3b01      	subs	r3, #1
 800228e:	6be2      	ldr	r2, [r4, #60]	; 0x3c
 8002290:	f3c7 0708 	ubfx	r7, r7, #0, #9
 8002294:	025b      	lsls	r3, r3, #9
 8002296:	0400      	lsls	r0, r0, #16
 8002298:	3a01      	subs	r2, #1
 800229a:	b29b      	uxth	r3, r3
 800229c:	f400 00fe 	and.w	r0, r0, #8323072	; 0x7f0000
 80022a0:	0612      	lsls	r2, r2, #24
 80022a2:	4303      	orrs	r3, r0
 80022a4:	f002 42fe 	and.w	r2, r2, #2130706432	; 0x7f000000
 80022a8:	433b      	orrs	r3, r7
 80022aa:	4313      	orrs	r3, r2
 80022ac:	632b      	str	r3, [r5, #48]	; 0x30
 80022ae:	6aeb      	ldr	r3, [r5, #44]	; 0x2c
 80022b0:	f023 0301 	bic.w	r3, r3, #1
 80022b4:	62eb      	str	r3, [r5, #44]	; 0x2c
 80022b6:	6b6a      	ldr	r2, [r5, #52]	; 0x34
 80022b8:	6ca3      	ldr	r3, [r4, #72]	; 0x48
 80022ba:	4011      	ands	r1, r2
 80022bc:	ea41 01c3 	orr.w	r1, r1, r3, lsl #3
 80022c0:	6369      	str	r1, [r5, #52]	; 0x34
 80022c2:	6aeb      	ldr	r3, [r5, #44]	; 0x2c
 80022c4:	6c22      	ldr	r2, [r4, #64]	; 0x40
 80022c6:	f023 030c 	bic.w	r3, r3, #12
 80022ca:	4313      	orrs	r3, r2
 80022cc:	62eb      	str	r3, [r5, #44]	; 0x2c
 80022ce:	6aeb      	ldr	r3, [r5, #44]	; 0x2c
 80022d0:	6c62      	ldr	r2, [r4, #68]	; 0x44
 80022d2:	f023 0302 	bic.w	r3, r3, #2
 80022d6:	4313      	orrs	r3, r2
 80022d8:	62eb      	str	r3, [r5, #44]	; 0x2c
 80022da:	6aeb      	ldr	r3, [r5, #44]	; 0x2c
 80022dc:	f443 3380 	orr.w	r3, r3, #65536	; 0x10000
 80022e0:	62eb      	str	r3, [r5, #44]	; 0x2c
 80022e2:	6aeb      	ldr	r3, [r5, #44]	; 0x2c
 80022e4:	f443 3300 	orr.w	r3, r3, #131072	; 0x20000
 80022e8:	62eb      	str	r3, [r5, #44]	; 0x2c
 80022ea:	6aeb      	ldr	r3, [r5, #44]	; 0x2c
 80022ec:	f443 2380 	orr.w	r3, r3, #262144	; 0x40000
 80022f0:	62eb      	str	r3, [r5, #44]	; 0x2c
 80022f2:	6aeb      	ldr	r3, [r5, #44]	; 0x2c
 80022f4:	f043 0301 	orr.w	r3, r3, #1
 80022f8:	62eb      	str	r3, [r5, #44]	; 0x2c
 80022fa:	682b      	ldr	r3, [r5, #0]
 80022fc:	f043 7380 	orr.w	r3, r3, #16777216	; 0x1000000
 8002300:	602b      	str	r3, [r5, #0]
 8002302:	f7ff fab9 	bl	8001878 <HAL_GetTick>
 8002306:	4604      	mov	r4, r0
 8002308:	e005      	b.n	8002316 <HAL_RCC_OscConfig+0x4f6>
 800230a:	f7ff fab5 	bl	8001878 <HAL_GetTick>
 800230e:	1b00      	subs	r0, r0, r4
 8002310:	2802      	cmp	r0, #2
 8002312:	f63f af0c 	bhi.w	800212e <HAL_RCC_OscConfig+0x30e>
 8002316:	6833      	ldr	r3, [r6, #0]
 8002318:	019a      	lsls	r2, r3, #6
 800231a:	d5f6      	bpl.n	800230a <HAL_RCC_OscConfig+0x4ea>
 800231c:	e64b      	b.n	8001fb6 <HAL_RCC_OscConfig+0x196>
 800231e:	2801      	cmp	r0, #1
 8002320:	6a9a      	ldr	r2, [r3, #40]	; 0x28
 8002322:	6b1d      	ldr	r5, [r3, #48]	; 0x30
 8002324:	f43f ae48 	beq.w	8001fb8 <HAL_RCC_OscConfig+0x198>
 8002328:	f002 0303 	and.w	r3, r2, #3
 800232c:	6aa1      	ldr	r1, [r4, #40]	; 0x28
 800232e:	428b      	cmp	r3, r1
 8002330:	f47f aea1 	bne.w	8002076 <HAL_RCC_OscConfig+0x256>
 8002334:	f3c2 1205 	ubfx	r2, r2, #4, #6
 8002338:	6ae3      	ldr	r3, [r4, #44]	; 0x2c
 800233a:	429a      	cmp	r2, r3
 800233c:	f47f ae9b 	bne.w	8002076 <HAL_RCC_OscConfig+0x256>
 8002340:	6b23      	ldr	r3, [r4, #48]	; 0x30
 8002342:	f3c5 0208 	ubfx	r2, r5, #0, #9
 8002346:	3b01      	subs	r3, #1
 8002348:	429a      	cmp	r2, r3
 800234a:	f47f ae94 	bne.w	8002076 <HAL_RCC_OscConfig+0x256>
 800234e:	6b63      	ldr	r3, [r4, #52]	; 0x34
 8002350:	f3c5 2246 	ubfx	r2, r5, #9, #7
 8002354:	3b01      	subs	r3, #1
 8002356:	429a      	cmp	r2, r3
 8002358:	f47f ae8d 	bne.w	8002076 <HAL_RCC_OscConfig+0x256>
 800235c:	6ba3      	ldr	r3, [r4, #56]	; 0x38
 800235e:	f3c5 4206 	ubfx	r2, r5, #16, #7
 8002362:	3b01      	subs	r3, #1
 8002364:	429a      	cmp	r2, r3
 8002366:	f47f ae86 	bne.w	8002076 <HAL_RCC_OscConfig+0x256>
 800236a:	6be0      	ldr	r0, [r4, #60]	; 0x3c
 800236c:	f3c5 6506 	ubfx	r5, r5, #24, #7
 8002370:	3801      	subs	r0, #1
 8002372:	1a28      	subs	r0, r5, r0
 8002374:	bf18      	it	ne
 8002376:	2001      	movne	r0, #1
 8002378:	e61e      	b.n	8001fb8 <HAL_RCC_OscConfig+0x198>
 800237a:	4b11      	ldr	r3, [pc, #68]	; (80023c0 <HAL_RCC_OscConfig+0x5a0>)
 800237c:	f241 3788 	movw	r7, #5000	; 0x1388
 8002380:	6f1a      	ldr	r2, [r3, #112]	; 0x70
 8002382:	461d      	mov	r5, r3
 8002384:	f022 0201 	bic.w	r2, r2, #1
 8002388:	671a      	str	r2, [r3, #112]	; 0x70
 800238a:	6f1a      	ldr	r2, [r3, #112]	; 0x70
 800238c:	f022 0204 	bic.w	r2, r2, #4
 8002390:	671a      	str	r2, [r3, #112]	; 0x70
 8002392:	f7ff fa71 	bl	8001878 <HAL_GetTick>
 8002396:	4606      	mov	r6, r0
 8002398:	e005      	b.n	80023a6 <HAL_RCC_OscConfig+0x586>
 800239a:	f7ff fa6d 	bl	8001878 <HAL_GetTick>
 800239e:	1b80      	subs	r0, r0, r6
 80023a0:	42b8      	cmp	r0, r7
 80023a2:	f63f aec4 	bhi.w	800212e <HAL_RCC_OscConfig+0x30e>
 80023a6:	6f2b      	ldr	r3, [r5, #112]	; 0x70
 80023a8:	0798      	lsls	r0, r3, #30
 80023aa:	d4f6      	bmi.n	800239a <HAL_RCC_OscConfig+0x57a>
 80023ac:	e5e5      	b.n	8001f7a <HAL_RCC_OscConfig+0x15a>
 80023ae:	68eb      	ldr	r3, [r5, #12]
 80023b0:	6a22      	ldr	r2, [r4, #32]
 80023b2:	f023 537c 	bic.w	r3, r3, #1056964608	; 0x3f000000
 80023b6:	ea43 6302 	orr.w	r3, r3, r2, lsl #24
 80023ba:	60eb      	str	r3, [r5, #12]
 80023bc:	6823      	ldr	r3, [r4, #0]
 80023be:	e5a5      	b.n	8001f0c <HAL_RCC_OscConfig+0xec>
 80023c0:	58024400 	.word	0x58024400
 80023c4:	fffffc0c 	.word	0xfffffc0c
 80023c8:	ffff0007 	.word	0xffff0007
 80023cc:	686b      	ldr	r3, [r5, #4]
 80023ce:	6922      	ldr	r2, [r4, #16]
 80023d0:	f023 43fe 	bic.w	r3, r3, #2130706432	; 0x7f000000
 80023d4:	ea43 6302 	orr.w	r3, r3, r2, lsl #24
 80023d8:	606b      	str	r3, [r5, #4]
 80023da:	6823      	ldr	r3, [r4, #0]
 80023dc:	e55f      	b.n	8001e9e <HAL_RCC_OscConfig+0x7e>
 80023de:	4a0b      	ldr	r2, [pc, #44]	; (800240c <HAL_RCC_OscConfig+0x5ec>)
 80023e0:	6f13      	ldr	r3, [r2, #112]	; 0x70
 80023e2:	f043 0301 	orr.w	r3, r3, #1
 80023e6:	6713      	str	r3, [r2, #112]	; 0x70
 80023e8:	e691      	b.n	800210e <HAL_RCC_OscConfig+0x2ee>
 80023ea:	4a08      	ldr	r2, [pc, #32]	; (800240c <HAL_RCC_OscConfig+0x5ec>)
 80023ec:	6853      	ldr	r3, [r2, #4]
 80023ee:	f023 43f8 	bic.w	r3, r3, #2080374784	; 0x7c000000
 80023f2:	f043 4380 	orr.w	r3, r3, #1073741824	; 0x40000000
 80023f6:	6053      	str	r3, [r2, #4]
 80023f8:	6823      	ldr	r3, [r4, #0]
 80023fa:	e587      	b.n	8001f0c <HAL_RCC_OscConfig+0xec>
 80023fc:	f042 0204 	orr.w	r2, r2, #4
 8002400:	671a      	str	r2, [r3, #112]	; 0x70
 8002402:	6f1a      	ldr	r2, [r3, #112]	; 0x70
 8002404:	f042 0201 	orr.w	r2, r2, #1
 8002408:	671a      	str	r2, [r3, #112]	; 0x70
 800240a:	e680      	b.n	800210e <HAL_RCC_OscConfig+0x2ee>
 800240c:	58024400 	.word	0x58024400

08002410 <HAL_RCC_GetSysClockFreq>:
 8002410:	4a3e      	ldr	r2, [pc, #248]	; (800250c <HAL_RCC_GetSysClockFreq+0xfc>)
 8002412:	6913      	ldr	r3, [r2, #16]
 8002414:	f003 0338 	and.w	r3, r3, #56	; 0x38
 8002418:	2b10      	cmp	r3, #16
 800241a:	d04f      	beq.n	80024bc <HAL_RCC_GetSysClockFreq+0xac>
 800241c:	2b18      	cmp	r3, #24
 800241e:	d00b      	beq.n	8002438 <HAL_RCC_GetSysClockFreq+0x28>
 8002420:	b10b      	cbz	r3, 8002426 <HAL_RCC_GetSysClockFreq+0x16>
 8002422:	483b      	ldr	r0, [pc, #236]	; (8002510 <HAL_RCC_GetSysClockFreq+0x100>)
 8002424:	4770      	bx	lr
 8002426:	6813      	ldr	r3, [r2, #0]
 8002428:	0699      	lsls	r1, r3, #26
 800242a:	d549      	bpl.n	80024c0 <HAL_RCC_GetSysClockFreq+0xb0>
 800242c:	6813      	ldr	r3, [r2, #0]
 800242e:	4839      	ldr	r0, [pc, #228]	; (8002514 <HAL_RCC_GetSysClockFreq+0x104>)
 8002430:	f3c3 03c1 	ubfx	r3, r3, #3, #2
 8002434:	40d8      	lsrs	r0, r3
 8002436:	4770      	bx	lr
 8002438:	6a91      	ldr	r1, [r2, #40]	; 0x28
 800243a:	6a90      	ldr	r0, [r2, #40]	; 0x28
 800243c:	6ad3      	ldr	r3, [r2, #44]	; 0x2c
 800243e:	f3c0 1005 	ubfx	r0, r0, #4, #6
 8002442:	b410      	push	{r4}
 8002444:	6b54      	ldr	r4, [r2, #52]	; 0x34
 8002446:	b3b0      	cbz	r0, 80024b6 <HAL_RCC_GetSysClockFreq+0xa6>
 8002448:	f3c4 04cc 	ubfx	r4, r4, #3, #13
 800244c:	f003 0301 	and.w	r3, r3, #1
 8002450:	f001 0103 	and.w	r1, r1, #3
 8002454:	ee07 0a90 	vmov	s15, r0
 8002458:	fb03 f304 	mul.w	r3, r3, r4
 800245c:	2901      	cmp	r1, #1
 800245e:	eef8 7ae7 	vcvt.f32.s32	s15, s15
 8002462:	ee07 3a10 	vmov	s14, r3
 8002466:	eeba 7ae9 	vcvt.f32.s32	s14, s14, #13
 800246a:	d002      	beq.n	8002472 <HAL_RCC_GetSysClockFreq+0x62>
 800246c:	d32d      	bcc.n	80024ca <HAL_RCC_GetSysClockFreq+0xba>
 800246e:	2902      	cmp	r1, #2
 8002470:	d028      	beq.n	80024c4 <HAL_RCC_GetSysClockFreq+0xb4>
 8002472:	eddf 5a29 	vldr	s11, [pc, #164]	; 8002518 <HAL_RCC_GetSysClockFreq+0x108>
 8002476:	eec5 6aa7 	vdiv.f32	s13, s11, s15
 800247a:	6b13      	ldr	r3, [r2, #48]	; 0x30
 800247c:	f3c3 0308 	ubfx	r3, r3, #0, #9
 8002480:	ee07 3a90 	vmov	s15, r3
 8002484:	eeb7 6a00 	vmov.f32	s12, #112	; 0x3f800000  1.0
 8002488:	eef8 7ae7 	vcvt.f32.s32	s15, s15
 800248c:	ee37 7a87 	vadd.f32	s14, s15, s14
 8002490:	ee37 7a06 	vadd.f32	s14, s14, s12
 8002494:	ee27 7a26 	vmul.f32	s14, s14, s13
 8002498:	4b1c      	ldr	r3, [pc, #112]	; (800250c <HAL_RCC_GetSysClockFreq+0xfc>)
 800249a:	6b1b      	ldr	r3, [r3, #48]	; 0x30
 800249c:	f3c3 2346 	ubfx	r3, r3, #9, #7
 80024a0:	3301      	adds	r3, #1
 80024a2:	ee07 3a90 	vmov	s15, r3
 80024a6:	eef8 6ae7 	vcvt.f32.s32	s13, s15
 80024aa:	eec7 7a26 	vdiv.f32	s15, s14, s13
 80024ae:	eefc 7ae7 	vcvt.u32.f32	s15, s15
 80024b2:	ee17 0a90 	vmov	r0, s15
 80024b6:	f85d 4b04 	ldr.w	r4, [sp], #4
 80024ba:	4770      	bx	lr
 80024bc:	4817      	ldr	r0, [pc, #92]	; (800251c <HAL_RCC_GetSysClockFreq+0x10c>)
 80024be:	4770      	bx	lr
 80024c0:	4814      	ldr	r0, [pc, #80]	; (8002514 <HAL_RCC_GetSysClockFreq+0x104>)
 80024c2:	4770      	bx	lr
 80024c4:	eddf 5a16 	vldr	s11, [pc, #88]	; 8002520 <HAL_RCC_GetSysClockFreq+0x110>
 80024c8:	e7d5      	b.n	8002476 <HAL_RCC_GetSysClockFreq+0x66>
 80024ca:	6813      	ldr	r3, [r2, #0]
 80024cc:	069b      	lsls	r3, r3, #26
 80024ce:	d51a      	bpl.n	8002506 <HAL_RCC_GetSysClockFreq+0xf6>
 80024d0:	6810      	ldr	r0, [r2, #0]
 80024d2:	eeb7 5a00 	vmov.f32	s10, #112	; 0x3f800000  1.0
 80024d6:	490f      	ldr	r1, [pc, #60]	; (8002514 <HAL_RCC_GetSysClockFreq+0x104>)
 80024d8:	f3c0 00c1 	ubfx	r0, r0, #3, #2
 80024dc:	6b13      	ldr	r3, [r2, #48]	; 0x30
 80024de:	40c1      	lsrs	r1, r0
 80024e0:	f3c3 0308 	ubfx	r3, r3, #0, #9
 80024e4:	ee06 1a90 	vmov	s13, r1
 80024e8:	eef8 5ae6 	vcvt.f32.s32	s11, s13
 80024ec:	ee06 3a90 	vmov	s13, r3
 80024f0:	eeb8 6ae6 	vcvt.f32.s32	s12, s13
 80024f4:	eec5 6aa7 	vdiv.f32	s13, s11, s15
 80024f8:	ee36 7a07 	vadd.f32	s14, s12, s14
 80024fc:	ee37 7a05 	vadd.f32	s14, s14, s10
 8002500:	ee26 7a87 	vmul.f32	s14, s13, s14
 8002504:	e7c8      	b.n	8002498 <HAL_RCC_GetSysClockFreq+0x88>
 8002506:	eddf 5a07 	vldr	s11, [pc, #28]	; 8002524 <HAL_RCC_GetSysClockFreq+0x114>
 800250a:	e7b4      	b.n	8002476 <HAL_RCC_GetSysClockFreq+0x66>
 800250c:	58024400 	.word	0x58024400
 8002510:	003d0900 	.word	0x003d0900
 8002514:	03d09000 	.word	0x03d09000
 8002518:	4a742400 	.word	0x4a742400
 800251c:	02625a00 	.word	0x02625a00
 8002520:	4c189680 	.word	0x4c189680
 8002524:	4c742400 	.word	0x4c742400

08002528 <HAL_RCC_ClockConfig>:
 8002528:	b178      	cbz	r0, 800254a <HAL_RCC_ClockConfig+0x22>
 800252a:	4a8e      	ldr	r2, [pc, #568]	; (8002764 <HAL_RCC_ClockConfig+0x23c>)
 800252c:	6813      	ldr	r3, [r2, #0]
 800252e:	f003 030f 	and.w	r3, r3, #15
 8002532:	428b      	cmp	r3, r1
 8002534:	d20b      	bcs.n	800254e <HAL_RCC_ClockConfig+0x26>
 8002536:	6813      	ldr	r3, [r2, #0]
 8002538:	f023 030f 	bic.w	r3, r3, #15
 800253c:	430b      	orrs	r3, r1
 800253e:	6013      	str	r3, [r2, #0]
 8002540:	6813      	ldr	r3, [r2, #0]
 8002542:	f003 030f 	and.w	r3, r3, #15
 8002546:	428b      	cmp	r3, r1
 8002548:	d001      	beq.n	800254e <HAL_RCC_ClockConfig+0x26>
 800254a:	2001      	movs	r0, #1
 800254c:	4770      	bx	lr
 800254e:	6803      	ldr	r3, [r0, #0]
 8002550:	e92d 41f0 	stmdb	sp!, {r4, r5, r6, r7, r8, lr}
 8002554:	075d      	lsls	r5, r3, #29
 8002556:	d50b      	bpl.n	8002570 <HAL_RCC_ClockConfig+0x48>
 8002558:	4c83      	ldr	r4, [pc, #524]	; (8002768 <HAL_RCC_ClockConfig+0x240>)
 800255a:	6905      	ldr	r5, [r0, #16]
 800255c:	69a2      	ldr	r2, [r4, #24]
 800255e:	f002 0270 	and.w	r2, r2, #112	; 0x70
 8002562:	4295      	cmp	r5, r2
 8002564:	d904      	bls.n	8002570 <HAL_RCC_ClockConfig+0x48>
 8002566:	69a2      	ldr	r2, [r4, #24]
 8002568:	f022 0270 	bic.w	r2, r2, #112	; 0x70
 800256c:	432a      	orrs	r2, r5
 800256e:	61a2      	str	r2, [r4, #24]
 8002570:	071c      	lsls	r4, r3, #28
 8002572:	d50b      	bpl.n	800258c <HAL_RCC_ClockConfig+0x64>
 8002574:	4c7c      	ldr	r4, [pc, #496]	; (8002768 <HAL_RCC_ClockConfig+0x240>)
 8002576:	6945      	ldr	r5, [r0, #20]
 8002578:	69e2      	ldr	r2, [r4, #28]
 800257a:	f002 0270 	and.w	r2, r2, #112	; 0x70
 800257e:	4295      	cmp	r5, r2
 8002580:	d904      	bls.n	800258c <HAL_RCC_ClockConfig+0x64>
 8002582:	69e2      	ldr	r2, [r4, #28]
 8002584:	f022 0270 	bic.w	r2, r2, #112	; 0x70
 8002588:	432a      	orrs	r2, r5
 800258a:	61e2      	str	r2, [r4, #28]
 800258c:	06da      	lsls	r2, r3, #27
 800258e:	d50b      	bpl.n	80025a8 <HAL_RCC_ClockConfig+0x80>
 8002590:	4c75      	ldr	r4, [pc, #468]	; (8002768 <HAL_RCC_ClockConfig+0x240>)
 8002592:	6985      	ldr	r5, [r0, #24]
 8002594:	69e2      	ldr	r2, [r4, #28]
 8002596:	f402 62e0 	and.w	r2, r2, #1792	; 0x700
 800259a:	4295      	cmp	r5, r2
 800259c:	d904      	bls.n	80025a8 <HAL_RCC_ClockConfig+0x80>
 800259e:	69e2      	ldr	r2, [r4, #28]
 80025a0:	f422 62e0 	bic.w	r2, r2, #1792	; 0x700
 80025a4:	432a      	orrs	r2, r5
 80025a6:	61e2      	str	r2, [r4, #28]
 80025a8:	069f      	lsls	r7, r3, #26
 80025aa:	d50b      	bpl.n	80025c4 <HAL_RCC_ClockConfig+0x9c>
 80025ac:	4c6e      	ldr	r4, [pc, #440]	; (8002768 <HAL_RCC_ClockConfig+0x240>)
 80025ae:	69c5      	ldr	r5, [r0, #28]
 80025b0:	6a22      	ldr	r2, [r4, #32]
 80025b2:	f002 0270 	and.w	r2, r2, #112	; 0x70
 80025b6:	4295      	cmp	r5, r2
 80025b8:	d904      	bls.n	80025c4 <HAL_RCC_ClockConfig+0x9c>
 80025ba:	6a22      	ldr	r2, [r4, #32]
 80025bc:	f022 0270 	bic.w	r2, r2, #112	; 0x70
 80025c0:	432a      	orrs	r2, r5
 80025c2:	6222      	str	r2, [r4, #32]
 80025c4:	079e      	lsls	r6, r3, #30
 80025c6:	4604      	mov	r4, r0
 80025c8:	460d      	mov	r5, r1
 80025ca:	f003 0201 	and.w	r2, r3, #1
 80025ce:	d55d      	bpl.n	800268c <HAL_RCC_ClockConfig+0x164>
 80025d0:	4e65      	ldr	r6, [pc, #404]	; (8002768 <HAL_RCC_ClockConfig+0x240>)
 80025d2:	68c0      	ldr	r0, [r0, #12]
 80025d4:	69b1      	ldr	r1, [r6, #24]
 80025d6:	f001 010f 	and.w	r1, r1, #15
 80025da:	4288      	cmp	r0, r1
 80025dc:	d904      	bls.n	80025e8 <HAL_RCC_ClockConfig+0xc0>
 80025de:	69b1      	ldr	r1, [r6, #24]
 80025e0:	f021 010f 	bic.w	r1, r1, #15
 80025e4:	4301      	orrs	r1, r0
 80025e6:	61b1      	str	r1, [r6, #24]
 80025e8:	2a00      	cmp	r2, #0
 80025ea:	d031      	beq.n	8002650 <HAL_RCC_ClockConfig+0x128>
 80025ec:	4a5e      	ldr	r2, [pc, #376]	; (8002768 <HAL_RCC_ClockConfig+0x240>)
 80025ee:	68a1      	ldr	r1, [r4, #8]
 80025f0:	6993      	ldr	r3, [r2, #24]
 80025f2:	f423 6370 	bic.w	r3, r3, #3840	; 0xf00
 80025f6:	430b      	orrs	r3, r1
 80025f8:	6193      	str	r3, [r2, #24]
 80025fa:	6863      	ldr	r3, [r4, #4]
 80025fc:	6812      	ldr	r2, [r2, #0]
 80025fe:	2b02      	cmp	r3, #2
 8002600:	f000 80a2 	beq.w	8002748 <HAL_RCC_ClockConfig+0x220>
 8002604:	2b03      	cmp	r3, #3
 8002606:	f000 80a5 	beq.w	8002754 <HAL_RCC_ClockConfig+0x22c>
 800260a:	2b01      	cmp	r3, #1
 800260c:	f000 80a6 	beq.w	800275c <HAL_RCC_ClockConfig+0x234>
 8002610:	0757      	lsls	r7, r2, #29
 8002612:	d538      	bpl.n	8002686 <HAL_RCC_ClockConfig+0x15e>
 8002614:	4954      	ldr	r1, [pc, #336]	; (8002768 <HAL_RCC_ClockConfig+0x240>)
 8002616:	f241 3888 	movw	r8, #5000	; 0x1388
 800261a:	690a      	ldr	r2, [r1, #16]
 800261c:	460e      	mov	r6, r1
 800261e:	f022 0207 	bic.w	r2, r2, #7
 8002622:	4313      	orrs	r3, r2
 8002624:	610b      	str	r3, [r1, #16]
 8002626:	f7ff f927 	bl	8001878 <HAL_GetTick>
 800262a:	4607      	mov	r7, r0
 800262c:	e005      	b.n	800263a <HAL_RCC_ClockConfig+0x112>
 800262e:	f7ff f923 	bl	8001878 <HAL_GetTick>
 8002632:	1bc0      	subs	r0, r0, r7
 8002634:	4540      	cmp	r0, r8
 8002636:	f200 808b 	bhi.w	8002750 <HAL_RCC_ClockConfig+0x228>
 800263a:	6933      	ldr	r3, [r6, #16]
 800263c:	6862      	ldr	r2, [r4, #4]
 800263e:	f003 0338 	and.w	r3, r3, #56	; 0x38
 8002642:	ebb3 0fc2 	cmp.w	r3, r2, lsl #3
 8002646:	d1f2      	bne.n	800262e <HAL_RCC_ClockConfig+0x106>
 8002648:	6823      	ldr	r3, [r4, #0]
 800264a:	079e      	lsls	r6, r3, #30
 800264c:	d50b      	bpl.n	8002666 <HAL_RCC_ClockConfig+0x13e>
 800264e:	68e0      	ldr	r0, [r4, #12]
 8002650:	4945      	ldr	r1, [pc, #276]	; (8002768 <HAL_RCC_ClockConfig+0x240>)
 8002652:	698a      	ldr	r2, [r1, #24]
 8002654:	f002 020f 	and.w	r2, r2, #15
 8002658:	4282      	cmp	r2, r0
 800265a:	d904      	bls.n	8002666 <HAL_RCC_ClockConfig+0x13e>
 800265c:	698a      	ldr	r2, [r1, #24]
 800265e:	f022 020f 	bic.w	r2, r2, #15
 8002662:	4310      	orrs	r0, r2
 8002664:	6188      	str	r0, [r1, #24]
 8002666:	493f      	ldr	r1, [pc, #252]	; (8002764 <HAL_RCC_ClockConfig+0x23c>)
 8002668:	680a      	ldr	r2, [r1, #0]
 800266a:	f002 020f 	and.w	r2, r2, #15
 800266e:	42aa      	cmp	r2, r5
 8002670:	d914      	bls.n	800269c <HAL_RCC_ClockConfig+0x174>
 8002672:	680a      	ldr	r2, [r1, #0]
 8002674:	f022 020f 	bic.w	r2, r2, #15
 8002678:	432a      	orrs	r2, r5
 800267a:	600a      	str	r2, [r1, #0]
 800267c:	680a      	ldr	r2, [r1, #0]
 800267e:	f002 020f 	and.w	r2, r2, #15
 8002682:	42aa      	cmp	r2, r5
 8002684:	d00a      	beq.n	800269c <HAL_RCC_ClockConfig+0x174>
 8002686:	2001      	movs	r0, #1
 8002688:	e8bd 81f0 	ldmia.w	sp!, {r4, r5, r6, r7, r8, pc}
 800268c:	2a00      	cmp	r2, #0
 800268e:	d1ad      	bne.n	80025ec <HAL_RCC_ClockConfig+0xc4>
 8002690:	4934      	ldr	r1, [pc, #208]	; (8002764 <HAL_RCC_ClockConfig+0x23c>)
 8002692:	680a      	ldr	r2, [r1, #0]
 8002694:	f002 020f 	and.w	r2, r2, #15
 8002698:	42aa      	cmp	r2, r5
 800269a:	d8ea      	bhi.n	8002672 <HAL_RCC_ClockConfig+0x14a>
 800269c:	0758      	lsls	r0, r3, #29
 800269e:	d50b      	bpl.n	80026b8 <HAL_RCC_ClockConfig+0x190>
 80026a0:	4931      	ldr	r1, [pc, #196]	; (8002768 <HAL_RCC_ClockConfig+0x240>)
 80026a2:	6920      	ldr	r0, [r4, #16]
 80026a4:	698a      	ldr	r2, [r1, #24]
 80026a6:	f002 0270 	and.w	r2, r2, #112	; 0x70
 80026aa:	4290      	cmp	r0, r2
 80026ac:	d204      	bcs.n	80026b8 <HAL_RCC_ClockConfig+0x190>
 80026ae:	698a      	ldr	r2, [r1, #24]
 80026b0:	f022 0270 	bic.w	r2, r2, #112	; 0x70
 80026b4:	4302      	orrs	r2, r0
 80026b6:	618a      	str	r2, [r1, #24]
 80026b8:	0719      	lsls	r1, r3, #28
 80026ba:	d50b      	bpl.n	80026d4 <HAL_RCC_ClockConfig+0x1ac>
 80026bc:	492a      	ldr	r1, [pc, #168]	; (8002768 <HAL_RCC_ClockConfig+0x240>)
 80026be:	6960      	ldr	r0, [r4, #20]
 80026c0:	69ca      	ldr	r2, [r1, #28]
 80026c2:	f002 0270 	and.w	r2, r2, #112	; 0x70
 80026c6:	4290      	cmp	r0, r2
 80026c8:	d204      	bcs.n	80026d4 <HAL_RCC_ClockConfig+0x1ac>
 80026ca:	69ca      	ldr	r2, [r1, #28]
 80026cc:	f022 0270 	bic.w	r2, r2, #112	; 0x70
 80026d0:	4302      	orrs	r2, r0
 80026d2:	61ca      	str	r2, [r1, #28]
 80026d4:	06da      	lsls	r2, r3, #27
 80026d6:	d50b      	bpl.n	80026f0 <HAL_RCC_ClockConfig+0x1c8>
 80026d8:	4923      	ldr	r1, [pc, #140]	; (8002768 <HAL_RCC_ClockConfig+0x240>)
 80026da:	69a0      	ldr	r0, [r4, #24]
 80026dc:	69ca      	ldr	r2, [r1, #28]
 80026de:	f402 62e0 	and.w	r2, r2, #1792	; 0x700
 80026e2:	4290      	cmp	r0, r2
 80026e4:	d204      	bcs.n	80026f0 <HAL_RCC_ClockConfig+0x1c8>
 80026e6:	69ca      	ldr	r2, [r1, #28]
 80026e8:	f422 62e0 	bic.w	r2, r2, #1792	; 0x700
 80026ec:	4302      	orrs	r2, r0
 80026ee:	61ca      	str	r2, [r1, #28]
 80026f0:	069b      	lsls	r3, r3, #26
 80026f2:	d50b      	bpl.n	800270c <HAL_RCC_ClockConfig+0x1e4>
 80026f4:	4a1c      	ldr	r2, [pc, #112]	; (8002768 <HAL_RCC_ClockConfig+0x240>)
 80026f6:	69e1      	ldr	r1, [r4, #28]
 80026f8:	6a13      	ldr	r3, [r2, #32]
 80026fa:	f003 0370 	and.w	r3, r3, #112	; 0x70
 80026fe:	4299      	cmp	r1, r3
 8002700:	d204      	bcs.n	800270c <HAL_RCC_ClockConfig+0x1e4>
 8002702:	6a13      	ldr	r3, [r2, #32]
 8002704:	f023 0370 	bic.w	r3, r3, #112	; 0x70
 8002708:	430b      	orrs	r3, r1
 800270a:	6213      	str	r3, [r2, #32]
 800270c:	f7ff fe80 	bl	8002410 <HAL_RCC_GetSysClockFreq>
 8002710:	4a15      	ldr	r2, [pc, #84]	; (8002768 <HAL_RCC_ClockConfig+0x240>)
 8002712:	4916      	ldr	r1, [pc, #88]	; (800276c <HAL_RCC_ClockConfig+0x244>)
 8002714:	6993      	ldr	r3, [r2, #24]
 8002716:	6992      	ldr	r2, [r2, #24]
 8002718:	f3c3 2303 	ubfx	r3, r3, #8, #4
 800271c:	4d14      	ldr	r5, [pc, #80]	; (8002770 <HAL_RCC_ClockConfig+0x248>)
 800271e:	f002 020f 	and.w	r2, r2, #15
 8002722:	4c14      	ldr	r4, [pc, #80]	; (8002774 <HAL_RCC_ClockConfig+0x24c>)
 8002724:	5ccb      	ldrb	r3, [r1, r3]
 8002726:	5c8a      	ldrb	r2, [r1, r2]
 8002728:	f003 031f 	and.w	r3, r3, #31
 800272c:	4912      	ldr	r1, [pc, #72]	; (8002778 <HAL_RCC_ClockConfig+0x250>)
 800272e:	f002 021f 	and.w	r2, r2, #31
 8002732:	fa20 f303 	lsr.w	r3, r0, r3
 8002736:	6828      	ldr	r0, [r5, #0]
 8002738:	fa23 f202 	lsr.w	r2, r3, r2
 800273c:	600b      	str	r3, [r1, #0]
 800273e:	6022      	str	r2, [r4, #0]
 8002740:	e8bd 41f0 	ldmia.w	sp!, {r4, r5, r6, r7, r8, lr}
 8002744:	f7ff b834 	b.w	80017b0 <HAL_InitTick>
 8002748:	0390      	lsls	r0, r2, #14
 800274a:	f53f af63 	bmi.w	8002614 <HAL_RCC_ClockConfig+0xec>
 800274e:	e79a      	b.n	8002686 <HAL_RCC_ClockConfig+0x15e>
 8002750:	2003      	movs	r0, #3
 8002752:	e799      	b.n	8002688 <HAL_RCC_ClockConfig+0x160>
 8002754:	0191      	lsls	r1, r2, #6
 8002756:	f53f af5d 	bmi.w	8002614 <HAL_RCC_ClockConfig+0xec>
 800275a:	e794      	b.n	8002686 <HAL_RCC_ClockConfig+0x15e>
 800275c:	05d2      	lsls	r2, r2, #23
 800275e:	f53f af59 	bmi.w	8002614 <HAL_RCC_ClockConfig+0xec>
 8002762:	e790      	b.n	8002686 <HAL_RCC_ClockConfig+0x15e>
 8002764:	52002000 	.word	0x52002000
 8002768:	58024400 	.word	0x58024400
 800276c:	080088f0 	.word	0x080088f0
 8002770:	2400000c 	.word	0x2400000c
 8002774:	24000004 	.word	0x24000004
 8002778:	24000000 	.word	0x24000000

0800277c <HAL_RCC_GetHCLKFreq>:
 800277c:	4a49      	ldr	r2, [pc, #292]	; (80028a4 <HAL_RCC_GetHCLKFreq+0x128>)
 800277e:	6913      	ldr	r3, [r2, #16]
 8002780:	f003 0338 	and.w	r3, r3, #56	; 0x38
 8002784:	2b10      	cmp	r3, #16
 8002786:	b430      	push	{r4, r5}
 8002788:	d064      	beq.n	8002854 <HAL_RCC_GetHCLKFreq+0xd8>
 800278a:	2b18      	cmp	r3, #24
 800278c:	d022      	beq.n	80027d4 <HAL_RCC_GetHCLKFreq+0x58>
 800278e:	b1bb      	cbz	r3, 80027c0 <HAL_RCC_GetHCLKFreq+0x44>
 8002790:	4b45      	ldr	r3, [pc, #276]	; (80028a8 <HAL_RCC_GetHCLKFreq+0x12c>)
 8002792:	4944      	ldr	r1, [pc, #272]	; (80028a4 <HAL_RCC_GetHCLKFreq+0x128>)
 8002794:	4845      	ldr	r0, [pc, #276]	; (80028ac <HAL_RCC_GetHCLKFreq+0x130>)
 8002796:	698a      	ldr	r2, [r1, #24]
 8002798:	6989      	ldr	r1, [r1, #24]
 800279a:	f3c2 2203 	ubfx	r2, r2, #8, #4
 800279e:	4c44      	ldr	r4, [pc, #272]	; (80028b0 <HAL_RCC_GetHCLKFreq+0x134>)
 80027a0:	f001 010f 	and.w	r1, r1, #15
 80027a4:	4d43      	ldr	r5, [pc, #268]	; (80028b4 <HAL_RCC_GetHCLKFreq+0x138>)
 80027a6:	5c82      	ldrb	r2, [r0, r2]
 80027a8:	5c40      	ldrb	r0, [r0, r1]
 80027aa:	f002 021f 	and.w	r2, r2, #31
 80027ae:	f000 001f 	and.w	r0, r0, #31
 80027b2:	40d3      	lsrs	r3, r2
 80027b4:	fa23 f000 	lsr.w	r0, r3, r0
 80027b8:	602b      	str	r3, [r5, #0]
 80027ba:	6020      	str	r0, [r4, #0]
 80027bc:	bc30      	pop	{r4, r5}
 80027be:	4770      	bx	lr
 80027c0:	6813      	ldr	r3, [r2, #0]
 80027c2:	0699      	lsls	r1, r3, #26
 80027c4:	d548      	bpl.n	8002858 <HAL_RCC_GetHCLKFreq+0xdc>
 80027c6:	6813      	ldr	r3, [r2, #0]
 80027c8:	4a3b      	ldr	r2, [pc, #236]	; (80028b8 <HAL_RCC_GetHCLKFreq+0x13c>)
 80027ca:	f3c3 03c1 	ubfx	r3, r3, #3, #2
 80027ce:	fa22 f303 	lsr.w	r3, r2, r3
 80027d2:	e7de      	b.n	8002792 <HAL_RCC_GetHCLKFreq+0x16>
 80027d4:	6a90      	ldr	r0, [r2, #40]	; 0x28
 80027d6:	6a93      	ldr	r3, [r2, #40]	; 0x28
 80027d8:	6ad1      	ldr	r1, [r2, #44]	; 0x2c
 80027da:	f3c3 1305 	ubfx	r3, r3, #4, #6
 80027de:	6b54      	ldr	r4, [r2, #52]	; 0x34
 80027e0:	2b00      	cmp	r3, #0
 80027e2:	d0d6      	beq.n	8002792 <HAL_RCC_GetHCLKFreq+0x16>
 80027e4:	f3c4 04cc 	ubfx	r4, r4, #3, #13
 80027e8:	f001 0101 	and.w	r1, r1, #1
 80027ec:	ee07 3a90 	vmov	s15, r3
 80027f0:	f000 0003 	and.w	r0, r0, #3
 80027f4:	fb01 f304 	mul.w	r3, r1, r4
 80027f8:	eef8 6ae7 	vcvt.f32.s32	s13, s15
 80027fc:	2801      	cmp	r0, #1
 80027fe:	ee07 3a90 	vmov	s15, r3
 8002802:	eefa 7ae9 	vcvt.f32.s32	s15, s15, #13
 8002806:	d002      	beq.n	800280e <HAL_RCC_GetHCLKFreq+0x92>
 8002808:	d32b      	bcc.n	8002862 <HAL_RCC_GetHCLKFreq+0xe6>
 800280a:	2802      	cmp	r0, #2
 800280c:	d026      	beq.n	800285c <HAL_RCC_GetHCLKFreq+0xe0>
 800280e:	ed9f 7a2b 	vldr	s14, [pc, #172]	; 80028bc <HAL_RCC_GetHCLKFreq+0x140>
 8002812:	ee87 6a26 	vdiv.f32	s12, s14, s13
 8002816:	6b13      	ldr	r3, [r2, #48]	; 0x30
 8002818:	f3c3 0308 	ubfx	r3, r3, #0, #9
 800281c:	ee07 3a10 	vmov	s14, r3
 8002820:	eef7 5a00 	vmov.f32	s11, #112	; 0x3f800000  1.0
 8002824:	eeb8 7ac7 	vcvt.f32.s32	s14, s14
 8002828:	ee77 7a27 	vadd.f32	s15, s14, s15
 800282c:	ee77 7aa5 	vadd.f32	s15, s15, s11
 8002830:	ee67 7a86 	vmul.f32	s15, s15, s12
 8002834:	4b1b      	ldr	r3, [pc, #108]	; (80028a4 <HAL_RCC_GetHCLKFreq+0x128>)
 8002836:	6b1b      	ldr	r3, [r3, #48]	; 0x30
 8002838:	f3c3 2346 	ubfx	r3, r3, #9, #7
 800283c:	3301      	adds	r3, #1
 800283e:	ee07 3a10 	vmov	s14, r3
 8002842:	eeb8 7ac7 	vcvt.f32.s32	s14, s14
 8002846:	eec7 6a87 	vdiv.f32	s13, s15, s14
 800284a:	eefc 7ae6 	vcvt.u32.f32	s15, s13
 800284e:	ee17 3a90 	vmov	r3, s15
 8002852:	e79e      	b.n	8002792 <HAL_RCC_GetHCLKFreq+0x16>
 8002854:	4b1a      	ldr	r3, [pc, #104]	; (80028c0 <HAL_RCC_GetHCLKFreq+0x144>)
 8002856:	e79c      	b.n	8002792 <HAL_RCC_GetHCLKFreq+0x16>
 8002858:	4b17      	ldr	r3, [pc, #92]	; (80028b8 <HAL_RCC_GetHCLKFreq+0x13c>)
 800285a:	e79a      	b.n	8002792 <HAL_RCC_GetHCLKFreq+0x16>
 800285c:	ed9f 7a19 	vldr	s14, [pc, #100]	; 80028c4 <HAL_RCC_GetHCLKFreq+0x148>
 8002860:	e7d7      	b.n	8002812 <HAL_RCC_GetHCLKFreq+0x96>
 8002862:	6813      	ldr	r3, [r2, #0]
 8002864:	069b      	lsls	r3, r3, #26
 8002866:	d51a      	bpl.n	800289e <HAL_RCC_GetHCLKFreq+0x122>
 8002868:	6810      	ldr	r0, [r2, #0]
 800286a:	eeb7 5a00 	vmov.f32	s10, #112	; 0x3f800000  1.0
 800286e:	4912      	ldr	r1, [pc, #72]	; (80028b8 <HAL_RCC_GetHCLKFreq+0x13c>)
 8002870:	f3c0 00c1 	ubfx	r0, r0, #3, #2
 8002874:	6b13      	ldr	r3, [r2, #48]	; 0x30
 8002876:	40c1      	lsrs	r1, r0
 8002878:	f3c3 0308 	ubfx	r3, r3, #0, #9
 800287c:	ee07 1a10 	vmov	s14, r1
 8002880:	eef8 5ac7 	vcvt.f32.s32	s11, s14
 8002884:	ee07 3a10 	vmov	s14, r3
 8002888:	eeb8 6ac7 	vcvt.f32.s32	s12, s14
 800288c:	ee85 7aa6 	vdiv.f32	s14, s11, s13
 8002890:	ee76 7a27 	vadd.f32	s15, s12, s15
 8002894:	ee77 7a85 	vadd.f32	s15, s15, s10
 8002898:	ee67 7a27 	vmul.f32	s15, s14, s15
 800289c:	e7ca      	b.n	8002834 <HAL_RCC_GetHCLKFreq+0xb8>
 800289e:	ed9f 7a0a 	vldr	s14, [pc, #40]	; 80028c8 <HAL_RCC_GetHCLKFreq+0x14c>
 80028a2:	e7b6      	b.n	8002812 <HAL_RCC_GetHCLKFreq+0x96>
 80028a4:	58024400 	.word	0x58024400
 80028a8:	003d0900 	.word	0x003d0900
 80028ac:	080088f0 	.word	0x080088f0
 80028b0:	24000004 	.word	0x24000004
 80028b4:	24000000 	.word	0x24000000
 80028b8:	03d09000 	.word	0x03d09000
 80028bc:	4a742400 	.word	0x4a742400
 80028c0:	02625a00 	.word	0x02625a00
 80028c4:	4c189680 	.word	0x4c189680
 80028c8:	4c742400 	.word	0x4c742400

080028cc <HAL_RCC_GetPCLK1Freq>:
 80028cc:	494d      	ldr	r1, [pc, #308]	; (8002a04 <HAL_RCC_GetPCLK1Freq+0x138>)
 80028ce:	690b      	ldr	r3, [r1, #16]
 80028d0:	f003 0338 	and.w	r3, r3, #56	; 0x38
 80028d4:	2b10      	cmp	r3, #16
 80028d6:	b430      	push	{r4, r5}
 80028d8:	d06b      	beq.n	80029b2 <HAL_RCC_GetPCLK1Freq+0xe6>
 80028da:	2b18      	cmp	r3, #24
 80028dc:	d029      	beq.n	8002932 <HAL_RCC_GetPCLK1Freq+0x66>
 80028de:	b1fb      	cbz	r3, 8002920 <HAL_RCC_GetPCLK1Freq+0x54>
 80028e0:	4a49      	ldr	r2, [pc, #292]	; (8002a08 <HAL_RCC_GetPCLK1Freq+0x13c>)
 80028e2:	4848      	ldr	r0, [pc, #288]	; (8002a04 <HAL_RCC_GetPCLK1Freq+0x138>)
 80028e4:	4949      	ldr	r1, [pc, #292]	; (8002a0c <HAL_RCC_GetPCLK1Freq+0x140>)
 80028e6:	6984      	ldr	r4, [r0, #24]
 80028e8:	6983      	ldr	r3, [r0, #24]
 80028ea:	f3c4 2403 	ubfx	r4, r4, #8, #4
 80028ee:	4d48      	ldr	r5, [pc, #288]	; (8002a10 <HAL_RCC_GetPCLK1Freq+0x144>)
 80028f0:	f003 030f 	and.w	r3, r3, #15
 80028f4:	5d0c      	ldrb	r4, [r1, r4]
 80028f6:	5ccb      	ldrb	r3, [r1, r3]
 80028f8:	f004 041f 	and.w	r4, r4, #31
 80028fc:	f003 031f 	and.w	r3, r3, #31
 8002900:	40e2      	lsrs	r2, r4
 8002902:	4c44      	ldr	r4, [pc, #272]	; (8002a14 <HAL_RCC_GetPCLK1Freq+0x148>)
 8002904:	fa22 f303 	lsr.w	r3, r2, r3
 8002908:	602a      	str	r2, [r5, #0]
 800290a:	6023      	str	r3, [r4, #0]
 800290c:	69c2      	ldr	r2, [r0, #28]
 800290e:	f3c2 1202 	ubfx	r2, r2, #4, #3
 8002912:	5c88      	ldrb	r0, [r1, r2]
 8002914:	f000 001f 	and.w	r0, r0, #31
 8002918:	bc30      	pop	{r4, r5}
 800291a:	fa23 f000 	lsr.w	r0, r3, r0
 800291e:	4770      	bx	lr
 8002920:	680b      	ldr	r3, [r1, #0]
 8002922:	069a      	lsls	r2, r3, #26
 8002924:	d547      	bpl.n	80029b6 <HAL_RCC_GetPCLK1Freq+0xea>
 8002926:	680b      	ldr	r3, [r1, #0]
 8002928:	4a3b      	ldr	r2, [pc, #236]	; (8002a18 <HAL_RCC_GetPCLK1Freq+0x14c>)
 800292a:	f3c3 03c1 	ubfx	r3, r3, #3, #2
 800292e:	40da      	lsrs	r2, r3
 8002930:	e7d7      	b.n	80028e2 <HAL_RCC_GetPCLK1Freq+0x16>
 8002932:	6a88      	ldr	r0, [r1, #40]	; 0x28
 8002934:	6a8a      	ldr	r2, [r1, #40]	; 0x28
 8002936:	6acb      	ldr	r3, [r1, #44]	; 0x2c
 8002938:	f3c2 1205 	ubfx	r2, r2, #4, #6
 800293c:	6b4c      	ldr	r4, [r1, #52]	; 0x34
 800293e:	2a00      	cmp	r2, #0
 8002940:	d0cf      	beq.n	80028e2 <HAL_RCC_GetPCLK1Freq+0x16>
 8002942:	f3c4 04cc 	ubfx	r4, r4, #3, #13
 8002946:	f003 0301 	and.w	r3, r3, #1
 800294a:	ee07 2a90 	vmov	s15, r2
 800294e:	f000 0003 	and.w	r0, r0, #3
 8002952:	fb03 f304 	mul.w	r3, r3, r4
 8002956:	eef8 6ae7 	vcvt.f32.s32	s13, s15
 800295a:	2801      	cmp	r0, #1
 800295c:	ee07 3a90 	vmov	s15, r3
 8002960:	eefa 7ae9 	vcvt.f32.s32	s15, s15, #13
 8002964:	d002      	beq.n	800296c <HAL_RCC_GetPCLK1Freq+0xa0>
 8002966:	d32b      	bcc.n	80029c0 <HAL_RCC_GetPCLK1Freq+0xf4>
 8002968:	2802      	cmp	r0, #2
 800296a:	d026      	beq.n	80029ba <HAL_RCC_GetPCLK1Freq+0xee>
 800296c:	ed9f 7a2b 	vldr	s14, [pc, #172]	; 8002a1c <HAL_RCC_GetPCLK1Freq+0x150>
 8002970:	ee87 6a26 	vdiv.f32	s12, s14, s13
 8002974:	6b0b      	ldr	r3, [r1, #48]	; 0x30
 8002976:	f3c3 0308 	ubfx	r3, r3, #0, #9
 800297a:	ee07 3a10 	vmov	s14, r3
 800297e:	eef7 5a00 	vmov.f32	s11, #112	; 0x3f800000  1.0
 8002982:	eeb8 7ac7 	vcvt.f32.s32	s14, s14
 8002986:	ee77 7a27 	vadd.f32	s15, s14, s15
 800298a:	ee77 7aa5 	vadd.f32	s15, s15, s11
 800298e:	ee67 7a86 	vmul.f32	s15, s15, s12
 8002992:	4b1c      	ldr	r3, [pc, #112]	; (8002a04 <HAL_RCC_GetPCLK1Freq+0x138>)
 8002994:	6b1b      	ldr	r3, [r3, #48]	; 0x30
 8002996:	f3c3 2346 	ubfx	r3, r3, #9, #7
 800299a:	3301      	adds	r3, #1
 800299c:	ee07 3a10 	vmov	s14, r3
 80029a0:	eeb8 7ac7 	vcvt.f32.s32	s14, s14
 80029a4:	eec7 6a87 	vdiv.f32	s13, s15, s14
 80029a8:	eefc 7ae6 	vcvt.u32.f32	s15, s13
 80029ac:	ee17 2a90 	vmov	r2, s15
 80029b0:	e797      	b.n	80028e2 <HAL_RCC_GetPCLK1Freq+0x16>
 80029b2:	4a1b      	ldr	r2, [pc, #108]	; (8002a20 <HAL_RCC_GetPCLK1Freq+0x154>)
 80029b4:	e795      	b.n	80028e2 <HAL_RCC_GetPCLK1Freq+0x16>
 80029b6:	4a18      	ldr	r2, [pc, #96]	; (8002a18 <HAL_RCC_GetPCLK1Freq+0x14c>)
 80029b8:	e793      	b.n	80028e2 <HAL_RCC_GetPCLK1Freq+0x16>
 80029ba:	ed9f 7a1a 	vldr	s14, [pc, #104]	; 8002a24 <HAL_RCC_GetPCLK1Freq+0x158>
 80029be:	e7d7      	b.n	8002970 <HAL_RCC_GetPCLK1Freq+0xa4>
 80029c0:	680b      	ldr	r3, [r1, #0]
 80029c2:	069b      	lsls	r3, r3, #26
 80029c4:	d51a      	bpl.n	80029fc <HAL_RCC_GetPCLK1Freq+0x130>
 80029c6:	6808      	ldr	r0, [r1, #0]
 80029c8:	eeb7 5a00 	vmov.f32	s10, #112	; 0x3f800000  1.0
 80029cc:	4a12      	ldr	r2, [pc, #72]	; (8002a18 <HAL_RCC_GetPCLK1Freq+0x14c>)
 80029ce:	f3c0 00c1 	ubfx	r0, r0, #3, #2
 80029d2:	6b0b      	ldr	r3, [r1, #48]	; 0x30
 80029d4:	40c2      	lsrs	r2, r0
 80029d6:	f3c3 0308 	ubfx	r3, r3, #0, #9
 80029da:	ee07 2a10 	vmov	s14, r2
 80029de:	eef8 5ac7 	vcvt.f32.s32	s11, s14
 80029e2:	ee07 3a10 	vmov	s14, r3
 80029e6:	eeb8 6ac7 	vcvt.f32.s32	s12, s14
 80029ea:	ee85 7aa6 	vdiv.f32	s14, s11, s13
 80029ee:	ee76 7a27 	vadd.f32	s15, s12, s15
 80029f2:	ee77 7a85 	vadd.f32	s15, s15, s10
 80029f6:	ee67 7a27 	vmul.f32	s15, s14, s15
 80029fa:	e7ca      	b.n	8002992 <HAL_RCC_GetPCLK1Freq+0xc6>
 80029fc:	ed9f 7a0a 	vldr	s14, [pc, #40]	; 8002a28 <HAL_RCC_GetPCLK1Freq+0x15c>
 8002a00:	e7b6      	b.n	8002970 <HAL_RCC_GetPCLK1Freq+0xa4>
 8002a02:	bf00      	nop
 8002a04:	58024400 	.word	0x58024400
 8002a08:	003d0900 	.word	0x003d0900
 8002a0c:	080088f0 	.word	0x080088f0
 8002a10:	24000000 	.word	0x24000000
 8002a14:	24000004 	.word	0x24000004
 8002a18:	03d09000 	.word	0x03d09000
 8002a1c:	4a742400 	.word	0x4a742400
 8002a20:	02625a00 	.word	0x02625a00
 8002a24:	4c189680 	.word	0x4c189680
 8002a28:	4c742400 	.word	0x4c742400

08002a2c <HAL_RCC_GetPCLK2Freq>:
 8002a2c:	494d      	ldr	r1, [pc, #308]	; (8002b64 <HAL_RCC_GetPCLK2Freq+0x138>)
 8002a2e:	690b      	ldr	r3, [r1, #16]
 8002a30:	f003 0338 	and.w	r3, r3, #56	; 0x38
 8002a34:	2b10      	cmp	r3, #16
 8002a36:	b430      	push	{r4, r5}
 8002a38:	d06b      	beq.n	8002b12 <HAL_RCC_GetPCLK2Freq+0xe6>
 8002a3a:	2b18      	cmp	r3, #24
 8002a3c:	d029      	beq.n	8002a92 <HAL_RCC_GetPCLK2Freq+0x66>
 8002a3e:	b1fb      	cbz	r3, 8002a80 <HAL_RCC_GetPCLK2Freq+0x54>
 8002a40:	4a49      	ldr	r2, [pc, #292]	; (8002b68 <HAL_RCC_GetPCLK2Freq+0x13c>)
 8002a42:	4848      	ldr	r0, [pc, #288]	; (8002b64 <HAL_RCC_GetPCLK2Freq+0x138>)
 8002a44:	4949      	ldr	r1, [pc, #292]	; (8002b6c <HAL_RCC_GetPCLK2Freq+0x140>)
 8002a46:	6984      	ldr	r4, [r0, #24]
 8002a48:	6983      	ldr	r3, [r0, #24]
 8002a4a:	f3c4 2403 	ubfx	r4, r4, #8, #4
 8002a4e:	4d48      	ldr	r5, [pc, #288]	; (8002b70 <HAL_RCC_GetPCLK2Freq+0x144>)
 8002a50:	f003 030f 	and.w	r3, r3, #15
 8002a54:	5d0c      	ldrb	r4, [r1, r4]
 8002a56:	5ccb      	ldrb	r3, [r1, r3]
 8002a58:	f004 041f 	and.w	r4, r4, #31
 8002a5c:	f003 031f 	and.w	r3, r3, #31
 8002a60:	40e2      	lsrs	r2, r4
 8002a62:	4c44      	ldr	r4, [pc, #272]	; (8002b74 <HAL_RCC_GetPCLK2Freq+0x148>)
 8002a64:	fa22 f303 	lsr.w	r3, r2, r3
 8002a68:	602a      	str	r2, [r5, #0]
 8002a6a:	6023      	str	r3, [r4, #0]
 8002a6c:	69c2      	ldr	r2, [r0, #28]
 8002a6e:	f3c2 2202 	ubfx	r2, r2, #8, #3
 8002a72:	5c88      	ldrb	r0, [r1, r2]
 8002a74:	f000 001f 	and.w	r0, r0, #31
 8002a78:	bc30      	pop	{r4, r5}
 8002a7a:	fa23 f000 	lsr.w	r0, r3, r0
 8002a7e:	4770      	bx	lr
 8002a80:	680b      	ldr	r3, [r1, #0]
 8002a82:	069a      	lsls	r2, r3, #26
 8002a84:	d547      	bpl.n	8002b16 <HAL_RCC_GetPCLK2Freq+0xea>
 8002a86:	680b      	ldr	r3, [r1, #0]
 8002a88:	4a3b      	ldr	r2, [pc, #236]	; (8002b78 <HAL_RCC_GetPCLK2Freq+0x14c>)
 8002a8a:	f3c3 03c1 	ubfx	r3, r3, #3, #2
 8002a8e:	40da      	lsrs	r2, r3
 8002a90:	e7d7      	b.n	8002a42 <HAL_RCC_GetPCLK2Freq+0x16>
 8002a92:	6a88      	ldr	r0, [r1, #40]	; 0x28
 8002a94:	6a8a      	ldr	r2, [r1, #40]	; 0x28
 8002a96:	6acb      	ldr	r3, [r1, #44]	; 0x2c
 8002a98:	f3c2 1205 	ubfx	r2, r2, #4, #6
 8002a9c:	6b4c      	ldr	r4, [r1, #52]	; 0x34
 8002a9e:	2a00      	cmp	r2, #0
 8002aa0:	d0cf      	beq.n	8002a42 <HAL_RCC_GetPCLK2Freq+0x16>
 8002aa2:	f3c4 04cc 	ubfx	r4, r4, #3, #13
 8002aa6:	f003 0301 	and.w	r3, r3, #1
 8002aaa:	ee07 2a90 	vmov	s15, r2
 8002aae:	f000 0003 	and.w	r0, r0, #3
 8002ab2:	fb03 f304 	mul.w	r3, r3, r4
 8002ab6:	eef8 6ae7 	vcvt.f32.s32	s13, s15
 8002aba:	2801      	cmp	r0, #1
 8002abc:	ee07 3a90 	vmov	s15, r3
 8002ac0:	eefa 7ae9 	vcvt.f32.s32	s15, s15, #13
 8002ac4:	d002      	beq.n	8002acc <HAL_RCC_GetPCLK2Freq+0xa0>
 8002ac6:	d32b      	bcc.n	8002b20 <HAL_RCC_GetPCLK2Freq+0xf4>
 8002ac8:	2802      	cmp	r0, #2
 8002aca:	d026      	beq.n	8002b1a <HAL_RCC_GetPCLK2Freq+0xee>
 8002acc:	ed9f 7a2b 	vldr	s14, [pc, #172]	; 8002b7c <HAL_RCC_GetPCLK2Freq+0x150>
 8002ad0:	ee87 6a26 	vdiv.f32	s12, s14, s13
 8002ad4:	6b0b      	ldr	r3, [r1, #48]	; 0x30
 8002ad6:	f3c3 0308 	ubfx	r3, r3, #0, #9
 8002ada:	ee07 3a10 	vmov	s14, r3
 8002ade:	eef7 5a00 	vmov.f32	s11, #112	; 0x3f800000  1.0
 8002ae2:	eeb8 7ac7 	vcvt.f32.s32	s14, s14
 8002ae6:	ee77 7a27 	vadd.f32	s15, s14, s15
 8002aea:	ee77 7aa5 	vadd.f32	s15, s15, s11
 8002aee:	ee67 7a86 	vmul.f32	s15, s15, s12
 8002af2:	4b1c      	ldr	r3, [pc, #112]	; (8002b64 <HAL_RCC_GetPCLK2Freq+0x138>)
 8002af4:	6b1b      	ldr	r3, [r3, #48]	; 0x30
 8002af6:	f3c3 2346 	ubfx	r3, r3, #9, #7
 8002afa:	3301      	adds	r3, #1
 8002afc:	ee07 3a10 	vmov	s14, r3
 8002b00:	eeb8 7ac7 	vcvt.f32.s32	s14, s14
 8002b04:	eec7 6a87 	vdiv.f32	s13, s15, s14
 8002b08:	eefc 7ae6 	vcvt.u32.f32	s15, s13
 8002b0c:	ee17 2a90 	vmov	r2, s15
 8002b10:	e797      	b.n	8002a42 <HAL_RCC_GetPCLK2Freq+0x16>
 8002b12:	4a1b      	ldr	r2, [pc, #108]	; (8002b80 <HAL_RCC_GetPCLK2Freq+0x154>)
 8002b14:	e795      	b.n	8002a42 <HAL_RCC_GetPCLK2Freq+0x16>
 8002b16:	4a18      	ldr	r2, [pc, #96]	; (8002b78 <HAL_RCC_GetPCLK2Freq+0x14c>)
 8002b18:	e793      	b.n	8002a42 <HAL_RCC_GetPCLK2Freq+0x16>
 8002b1a:	ed9f 7a1a 	vldr	s14, [pc, #104]	; 8002b84 <HAL_RCC_GetPCLK2Freq+0x158>
 8002b1e:	e7d7      	b.n	8002ad0 <HAL_RCC_GetPCLK2Freq+0xa4>
 8002b20:	680b      	ldr	r3, [r1, #0]
 8002b22:	069b      	lsls	r3, r3, #26
 8002b24:	d51a      	bpl.n	8002b5c <HAL_RCC_GetPCLK2Freq+0x130>
 8002b26:	6808      	ldr	r0, [r1, #0]
 8002b28:	eeb7 5a00 	vmov.f32	s10, #112	; 0x3f800000  1.0
 8002b2c:	4a12      	ldr	r2, [pc, #72]	; (8002b78 <HAL_RCC_GetPCLK2Freq+0x14c>)
 8002b2e:	f3c0 00c1 	ubfx	r0, r0, #3, #2
 8002b32:	6b0b      	ldr	r3, [r1, #48]	; 0x30
 8002b34:	40c2      	lsrs	r2, r0
 8002b36:	f3c3 0308 	ubfx	r3, r3, #0, #9
 8002b3a:	ee07 2a10 	vmov	s14, r2
 8002b3e:	eef8 5ac7 	vcvt.f32.s32	s11, s14
 8002b42:	ee07 3a10 	vmov	s14, r3
 8002b46:	eeb8 6ac7 	vcvt.f32.s32	s12, s14
 8002b4a:	ee85 7aa6 	vdiv.f32	s14, s11, s13
 8002b4e:	ee76 7a27 	vadd.f32	s15, s12, s15
 8002b52:	ee77 7a85 	vadd.f32	s15, s15, s10
 8002b56:	ee67 7a27 	vmul.f32	s15, s14, s15
 8002b5a:	e7ca      	b.n	8002af2 <HAL_RCC_GetPCLK2Freq+0xc6>
 8002b5c:	ed9f 7a0a 	vldr	s14, [pc, #40]	; 8002b88 <HAL_RCC_GetPCLK2Freq+0x15c>
 8002b60:	e7b6      	b.n	8002ad0 <HAL_RCC_GetPCLK2Freq+0xa4>
 8002b62:	bf00      	nop
 8002b64:	58024400 	.word	0x58024400
 8002b68:	003d0900 	.word	0x003d0900
 8002b6c:	080088f0 	.word	0x080088f0
 8002b70:	24000000 	.word	0x24000000
 8002b74:	24000004 	.word	0x24000004
 8002b78:	03d09000 	.word	0x03d09000
 8002b7c:	4a742400 	.word	0x4a742400
 8002b80:	02625a00 	.word	0x02625a00
 8002b84:	4c189680 	.word	0x4c189680
 8002b88:	4c742400 	.word	0x4c742400

08002b8c <RCCEx_PLL2_Config>:
 8002b8c:	4a3b      	ldr	r2, [pc, #236]	; (8002c7c <RCCEx_PLL2_Config+0xf0>)
 8002b8e:	b5f8      	push	{r3, r4, r5, r6, r7, lr}
 8002b90:	6a93      	ldr	r3, [r2, #40]	; 0x28
 8002b92:	f003 0303 	and.w	r3, r3, #3
 8002b96:	2b03      	cmp	r3, #3
 8002b98:	d067      	beq.n	8002c6a <RCCEx_PLL2_Config+0xde>
 8002b9a:	6813      	ldr	r3, [r2, #0]
 8002b9c:	460f      	mov	r7, r1
 8002b9e:	4605      	mov	r5, r0
 8002ba0:	4614      	mov	r4, r2
 8002ba2:	f023 6380 	bic.w	r3, r3, #67108864	; 0x4000000
 8002ba6:	6013      	str	r3, [r2, #0]
 8002ba8:	f7fe fe66 	bl	8001878 <HAL_GetTick>
 8002bac:	4606      	mov	r6, r0
 8002bae:	e004      	b.n	8002bba <RCCEx_PLL2_Config+0x2e>
 8002bb0:	f7fe fe62 	bl	8001878 <HAL_GetTick>
 8002bb4:	1b80      	subs	r0, r0, r6
 8002bb6:	2802      	cmp	r0, #2
 8002bb8:	d859      	bhi.n	8002c6e <RCCEx_PLL2_Config+0xe2>
 8002bba:	6823      	ldr	r3, [r4, #0]
 8002bbc:	011a      	lsls	r2, r3, #4
 8002bbe:	d4f7      	bmi.n	8002bb0 <RCCEx_PLL2_Config+0x24>
 8002bc0:	6aa3      	ldr	r3, [r4, #40]	; 0x28
 8002bc2:	682a      	ldr	r2, [r5, #0]
 8002bc4:	f423 337c 	bic.w	r3, r3, #258048	; 0x3f000
 8002bc8:	492d      	ldr	r1, [pc, #180]	; (8002c80 <RCCEx_PLL2_Config+0xf4>)
 8002bca:	ea43 3302 	orr.w	r3, r3, r2, lsl #12
 8002bce:	62a3      	str	r3, [r4, #40]	; 0x28
 8002bd0:	686e      	ldr	r6, [r5, #4]
 8002bd2:	e9d5 3202 	ldrd	r3, r2, [r5, #8]
 8002bd6:	3e01      	subs	r6, #1
 8002bd8:	1e50      	subs	r0, r2, #1
 8002bda:	3b01      	subs	r3, #1
 8002bdc:	692a      	ldr	r2, [r5, #16]
 8002bde:	f3c6 0608 	ubfx	r6, r6, #0, #9
 8002be2:	025b      	lsls	r3, r3, #9
 8002be4:	0400      	lsls	r0, r0, #16
 8002be6:	3a01      	subs	r2, #1
 8002be8:	b29b      	uxth	r3, r3
 8002bea:	f400 00fe 	and.w	r0, r0, #8323072	; 0x7f0000
 8002bee:	0612      	lsls	r2, r2, #24
 8002bf0:	4303      	orrs	r3, r0
 8002bf2:	f002 42fe 	and.w	r2, r2, #2130706432	; 0x7f000000
 8002bf6:	4333      	orrs	r3, r6
 8002bf8:	4313      	orrs	r3, r2
 8002bfa:	63a3      	str	r3, [r4, #56]	; 0x38
 8002bfc:	6ae3      	ldr	r3, [r4, #44]	; 0x2c
 8002bfe:	696a      	ldr	r2, [r5, #20]
 8002c00:	f023 03c0 	bic.w	r3, r3, #192	; 0xc0
 8002c04:	4313      	orrs	r3, r2
 8002c06:	62e3      	str	r3, [r4, #44]	; 0x2c
 8002c08:	6ae3      	ldr	r3, [r4, #44]	; 0x2c
 8002c0a:	69aa      	ldr	r2, [r5, #24]
 8002c0c:	f023 0320 	bic.w	r3, r3, #32
 8002c10:	4313      	orrs	r3, r2
 8002c12:	62e3      	str	r3, [r4, #44]	; 0x2c
 8002c14:	6ae3      	ldr	r3, [r4, #44]	; 0x2c
 8002c16:	f023 0310 	bic.w	r3, r3, #16
 8002c1a:	62e3      	str	r3, [r4, #44]	; 0x2c
 8002c1c:	6be2      	ldr	r2, [r4, #60]	; 0x3c
 8002c1e:	69eb      	ldr	r3, [r5, #28]
 8002c20:	4011      	ands	r1, r2
 8002c22:	ea41 01c3 	orr.w	r1, r1, r3, lsl #3
 8002c26:	63e1      	str	r1, [r4, #60]	; 0x3c
 8002c28:	6ae3      	ldr	r3, [r4, #44]	; 0x2c
 8002c2a:	f043 0310 	orr.w	r3, r3, #16
 8002c2e:	62e3      	str	r3, [r4, #44]	; 0x2c
 8002c30:	6ae3      	ldr	r3, [r4, #44]	; 0x2c
 8002c32:	b1f7      	cbz	r7, 8002c72 <RCCEx_PLL2_Config+0xe6>
 8002c34:	2f01      	cmp	r7, #1
 8002c36:	bf0c      	ite	eq
 8002c38:	f443 1380 	orreq.w	r3, r3, #1048576	; 0x100000
 8002c3c:	f443 1300 	orrne.w	r3, r3, #2097152	; 0x200000
 8002c40:	62e3      	str	r3, [r4, #44]	; 0x2c
 8002c42:	4b0e      	ldr	r3, [pc, #56]	; (8002c7c <RCCEx_PLL2_Config+0xf0>)
 8002c44:	681a      	ldr	r2, [r3, #0]
 8002c46:	461c      	mov	r4, r3
 8002c48:	f042 6280 	orr.w	r2, r2, #67108864	; 0x4000000
 8002c4c:	601a      	str	r2, [r3, #0]
 8002c4e:	f7fe fe13 	bl	8001878 <HAL_GetTick>
 8002c52:	4605      	mov	r5, r0
 8002c54:	e004      	b.n	8002c60 <RCCEx_PLL2_Config+0xd4>
 8002c56:	f7fe fe0f 	bl	8001878 <HAL_GetTick>
 8002c5a:	1b40      	subs	r0, r0, r5
 8002c5c:	2802      	cmp	r0, #2
 8002c5e:	d806      	bhi.n	8002c6e <RCCEx_PLL2_Config+0xe2>
 8002c60:	6823      	ldr	r3, [r4, #0]
 8002c62:	011b      	lsls	r3, r3, #4
 8002c64:	d5f7      	bpl.n	8002c56 <RCCEx_PLL2_Config+0xca>
 8002c66:	2000      	movs	r0, #0
 8002c68:	bdf8      	pop	{r3, r4, r5, r6, r7, pc}
 8002c6a:	2001      	movs	r0, #1
 8002c6c:	bdf8      	pop	{r3, r4, r5, r6, r7, pc}
 8002c6e:	2003      	movs	r0, #3
 8002c70:	bdf8      	pop	{r3, r4, r5, r6, r7, pc}
 8002c72:	f443 2300 	orr.w	r3, r3, #524288	; 0x80000
 8002c76:	62e3      	str	r3, [r4, #44]	; 0x2c
 8002c78:	e7e3      	b.n	8002c42 <RCCEx_PLL2_Config+0xb6>
 8002c7a:	bf00      	nop
 8002c7c:	58024400 	.word	0x58024400
 8002c80:	ffff0007 	.word	0xffff0007

08002c84 <RCCEx_PLL3_Config>:
 8002c84:	4a3b      	ldr	r2, [pc, #236]	; (8002d74 <RCCEx_PLL3_Config+0xf0>)
 8002c86:	b5f8      	push	{r3, r4, r5, r6, r7, lr}
 8002c88:	6a93      	ldr	r3, [r2, #40]	; 0x28
 8002c8a:	f003 0303 	and.w	r3, r3, #3
 8002c8e:	2b03      	cmp	r3, #3
 8002c90:	d067      	beq.n	8002d62 <RCCEx_PLL3_Config+0xde>
 8002c92:	6813      	ldr	r3, [r2, #0]
 8002c94:	460f      	mov	r7, r1
 8002c96:	4605      	mov	r5, r0
 8002c98:	4614      	mov	r4, r2
 8002c9a:	f023 5380 	bic.w	r3, r3, #268435456	; 0x10000000
 8002c9e:	6013      	str	r3, [r2, #0]
 8002ca0:	f7fe fdea 	bl	8001878 <HAL_GetTick>
 8002ca4:	4606      	mov	r6, r0
 8002ca6:	e004      	b.n	8002cb2 <RCCEx_PLL3_Config+0x2e>
 8002ca8:	f7fe fde6 	bl	8001878 <HAL_GetTick>
 8002cac:	1b80      	subs	r0, r0, r6
 8002cae:	2802      	cmp	r0, #2
 8002cb0:	d859      	bhi.n	8002d66 <RCCEx_PLL3_Config+0xe2>
 8002cb2:	6823      	ldr	r3, [r4, #0]
 8002cb4:	009a      	lsls	r2, r3, #2
 8002cb6:	d4f7      	bmi.n	8002ca8 <RCCEx_PLL3_Config+0x24>
 8002cb8:	6aa3      	ldr	r3, [r4, #40]	; 0x28
 8002cba:	682a      	ldr	r2, [r5, #0]
 8002cbc:	f023 737c 	bic.w	r3, r3, #66060288	; 0x3f00000
 8002cc0:	492d      	ldr	r1, [pc, #180]	; (8002d78 <RCCEx_PLL3_Config+0xf4>)
 8002cc2:	ea43 5302 	orr.w	r3, r3, r2, lsl #20
 8002cc6:	62a3      	str	r3, [r4, #40]	; 0x28
 8002cc8:	686e      	ldr	r6, [r5, #4]
 8002cca:	e9d5 3202 	ldrd	r3, r2, [r5, #8]
 8002cce:	3e01      	subs	r6, #1
 8002cd0:	1e50      	subs	r0, r2, #1
 8002cd2:	3b01      	subs	r3, #1
 8002cd4:	692a      	ldr	r2, [r5, #16]
 8002cd6:	f3c6 0608 	ubfx	r6, r6, #0, #9
 8002cda:	025b      	lsls	r3, r3, #9
 8002cdc:	0400      	lsls	r0, r0, #16
 8002cde:	3a01      	subs	r2, #1
 8002ce0:	b29b      	uxth	r3, r3
 8002ce2:	f400 00fe 	and.w	r0, r0, #8323072	; 0x7f0000
 8002ce6:	0612      	lsls	r2, r2, #24
 8002ce8:	4303      	orrs	r3, r0
 8002cea:	f002 42fe 	and.w	r2, r2, #2130706432	; 0x7f000000
 8002cee:	4333      	orrs	r3, r6
 8002cf0:	4313      	orrs	r3, r2
 8002cf2:	6423      	str	r3, [r4, #64]	; 0x40
 8002cf4:	6ae3      	ldr	r3, [r4, #44]	; 0x2c
 8002cf6:	696a      	ldr	r2, [r5, #20]
 8002cf8:	f423 6340 	bic.w	r3, r3, #3072	; 0xc00
 8002cfc:	4313      	orrs	r3, r2
 8002cfe:	62e3      	str	r3, [r4, #44]	; 0x2c
 8002d00:	6ae3      	ldr	r3, [r4, #44]	; 0x2c
 8002d02:	69aa      	ldr	r2, [r5, #24]
 8002d04:	f423 7300 	bic.w	r3, r3, #512	; 0x200
 8002d08:	4313      	orrs	r3, r2
 8002d0a:	62e3      	str	r3, [r4, #44]	; 0x2c
 8002d0c:	6ae3      	ldr	r3, [r4, #44]	; 0x2c
 8002d0e:	f423 7380 	bic.w	r3, r3, #256	; 0x100
 8002d12:	62e3      	str	r3, [r4, #44]	; 0x2c
 8002d14:	6c62      	ldr	r2, [r4, #68]	; 0x44
 8002d16:	69eb      	ldr	r3, [r5, #28]
 8002d18:	4011      	ands	r1, r2
 8002d1a:	ea41 01c3 	orr.w	r1, r1, r3, lsl #3
 8002d1e:	6461      	str	r1, [r4, #68]	; 0x44
 8002d20:	6ae3      	ldr	r3, [r4, #44]	; 0x2c
 8002d22:	f443 7380 	orr.w	r3, r3, #256	; 0x100
 8002d26:	62e3      	str	r3, [r4, #44]	; 0x2c
 8002d28:	6ae3      	ldr	r3, [r4, #44]	; 0x2c
 8002d2a:	b1f7      	cbz	r7, 8002d6a <RCCEx_PLL3_Config+0xe6>
 8002d2c:	2f01      	cmp	r7, #1
 8002d2e:	bf0c      	ite	eq
 8002d30:	f443 0300 	orreq.w	r3, r3, #8388608	; 0x800000
 8002d34:	f043 7380 	orrne.w	r3, r3, #16777216	; 0x1000000
 8002d38:	62e3      	str	r3, [r4, #44]	; 0x2c
 8002d3a:	4b0e      	ldr	r3, [pc, #56]	; (8002d74 <RCCEx_PLL3_Config+0xf0>)
 8002d3c:	681a      	ldr	r2, [r3, #0]
 8002d3e:	461c      	mov	r4, r3
 8002d40:	f042 5280 	orr.w	r2, r2, #268435456	; 0x10000000
 8002d44:	601a      	str	r2, [r3, #0]
 8002d46:	f7fe fd97 	bl	8001878 <HAL_GetTick>
 8002d4a:	4605      	mov	r5, r0
 8002d4c:	e004      	b.n	8002d58 <RCCEx_PLL3_Config+0xd4>
 8002d4e:	f7fe fd93 	bl	8001878 <HAL_GetTick>
 8002d52:	1b40      	subs	r0, r0, r5
 8002d54:	2802      	cmp	r0, #2
 8002d56:	d806      	bhi.n	8002d66 <RCCEx_PLL3_Config+0xe2>
 8002d58:	6823      	ldr	r3, [r4, #0]
 8002d5a:	009b      	lsls	r3, r3, #2
 8002d5c:	d5f7      	bpl.n	8002d4e <RCCEx_PLL3_Config+0xca>
 8002d5e:	2000      	movs	r0, #0
 8002d60:	bdf8      	pop	{r3, r4, r5, r6, r7, pc}
 8002d62:	2001      	movs	r0, #1
 8002d64:	bdf8      	pop	{r3, r4, r5, r6, r7, pc}
 8002d66:	2003      	movs	r0, #3
 8002d68:	bdf8      	pop	{r3, r4, r5, r6, r7, pc}
 8002d6a:	f443 0380 	orr.w	r3, r3, #4194304	; 0x400000
 8002d6e:	62e3      	str	r3, [r4, #44]	; 0x2c
 8002d70:	e7e3      	b.n	8002d3a <RCCEx_PLL3_Config+0xb6>
 8002d72:	bf00      	nop
 8002d74:	58024400 	.word	0x58024400
 8002d78:	ffff0007 	.word	0xffff0007

08002d7c <HAL_RCCEx_PeriphCLKConfig>:
 8002d7c:	e92d 43f8 	stmdb	sp!, {r3, r4, r5, r6, r7, r8, r9, lr}
 8002d80:	6803      	ldr	r3, [r0, #0]
 8002d82:	4604      	mov	r4, r0
 8002d84:	f013 6600 	ands.w	r6, r3, #134217728	; 0x8000000
 8002d88:	d015      	beq.n	8002db6 <HAL_RCCEx_PeriphCLKConfig+0x3a>
 8002d8a:	6e42      	ldr	r2, [r0, #100]	; 0x64
 8002d8c:	f5b2 1f80 	cmp.w	r2, #1048576	; 0x100000
 8002d90:	f000 844e 	beq.w	8003630 <HAL_RCCEx_PeriphCLKConfig+0x8b4>
 8002d94:	f240 8501 	bls.w	800379a <HAL_RCCEx_PeriphCLKConfig+0xa1e>
 8002d98:	f5b2 1f00 	cmp.w	r2, #2097152	; 0x200000
 8002d9c:	f000 8461 	beq.w	8003662 <HAL_RCCEx_PeriphCLKConfig+0x8e6>
 8002da0:	f5b2 1f40 	cmp.w	r2, #3145728	; 0x300000
 8002da4:	f040 8512 	bne.w	80037cc <HAL_RCCEx_PeriphCLKConfig+0xa50>
 8002da8:	48a2      	ldr	r0, [pc, #648]	; (8003034 <HAL_RCCEx_PeriphCLKConfig+0x2b8>)
 8002daa:	2600      	movs	r6, #0
 8002dac:	6d01      	ldr	r1, [r0, #80]	; 0x50
 8002dae:	f421 1140 	bic.w	r1, r1, #3145728	; 0x300000
 8002db2:	430a      	orrs	r2, r1
 8002db4:	6502      	str	r2, [r0, #80]	; 0x50
 8002db6:	05dd      	lsls	r5, r3, #23
 8002db8:	d50a      	bpl.n	8002dd0 <HAL_RCCEx_PeriphCLKConfig+0x54>
 8002dba:	6d62      	ldr	r2, [r4, #84]	; 0x54
 8002dbc:	2a04      	cmp	r2, #4
 8002dbe:	d806      	bhi.n	8002dce <HAL_RCCEx_PeriphCLKConfig+0x52>
 8002dc0:	e8df f012 	tbh	[pc, r2, lsl #1]
 8002dc4:	03e403dd 	.word	0x03e403dd
 8002dc8:	039e03d2 	.word	0x039e03d2
 8002dcc:	039e      	.short	0x039e
 8002dce:	2601      	movs	r6, #1
 8002dd0:	4635      	mov	r5, r6
 8002dd2:	0598      	lsls	r0, r3, #22
 8002dd4:	d51b      	bpl.n	8002e0e <HAL_RCCEx_PeriphCLKConfig+0x92>
 8002dd6:	6da2      	ldr	r2, [r4, #88]	; 0x58
 8002dd8:	2a80      	cmp	r2, #128	; 0x80
 8002dda:	f000 8405 	beq.w	80035e8 <HAL_RCCEx_PeriphCLKConfig+0x86c>
 8002dde:	f200 84d1 	bhi.w	8003784 <HAL_RCCEx_PeriphCLKConfig+0xa08>
 8002de2:	2a00      	cmp	r2, #0
 8002de4:	f000 8443 	beq.w	800366e <HAL_RCCEx_PeriphCLKConfig+0x8f2>
 8002de8:	2a40      	cmp	r2, #64	; 0x40
 8002dea:	f040 84d2 	bne.w	8003792 <HAL_RCCEx_PeriphCLKConfig+0xa16>
 8002dee:	2100      	movs	r1, #0
 8002df0:	1d20      	adds	r0, r4, #4
 8002df2:	f7ff fecb 	bl	8002b8c <RCCEx_PLL2_Config>
 8002df6:	6823      	ldr	r3, [r4, #0]
 8002df8:	4605      	mov	r5, r0
 8002dfa:	2d00      	cmp	r5, #0
 8002dfc:	f040 83fe 	bne.w	80035fc <HAL_RCCEx_PeriphCLKConfig+0x880>
 8002e00:	498c      	ldr	r1, [pc, #560]	; (8003034 <HAL_RCCEx_PeriphCLKConfig+0x2b8>)
 8002e02:	6da0      	ldr	r0, [r4, #88]	; 0x58
 8002e04:	6d0a      	ldr	r2, [r1, #80]	; 0x50
 8002e06:	f422 72e0 	bic.w	r2, r2, #448	; 0x1c0
 8002e0a:	4302      	orrs	r2, r0
 8002e0c:	650a      	str	r2, [r1, #80]	; 0x50
 8002e0e:	0559      	lsls	r1, r3, #21
 8002e10:	d51f      	bpl.n	8002e52 <HAL_RCCEx_PeriphCLKConfig+0xd6>
 8002e12:	f8d4 20a4 	ldr.w	r2, [r4, #164]	; 0xa4
 8002e16:	f5b2 0f80 	cmp.w	r2, #4194304	; 0x400000
 8002e1a:	f000 83d4 	beq.w	80035c6 <HAL_RCCEx_PeriphCLKConfig+0x84a>
 8002e1e:	f200 8499 	bhi.w	8003754 <HAL_RCCEx_PeriphCLKConfig+0x9d8>
 8002e22:	2a00      	cmp	r2, #0
 8002e24:	f000 8410 	beq.w	8003648 <HAL_RCCEx_PeriphCLKConfig+0x8cc>
 8002e28:	f5b2 1f00 	cmp.w	r2, #2097152	; 0x200000
 8002e2c:	f040 849a 	bne.w	8003764 <HAL_RCCEx_PeriphCLKConfig+0x9e8>
 8002e30:	2100      	movs	r1, #0
 8002e32:	1d20      	adds	r0, r4, #4
 8002e34:	f7ff feaa 	bl	8002b8c <RCCEx_PLL2_Config>
 8002e38:	6823      	ldr	r3, [r4, #0]
 8002e3a:	4605      	mov	r5, r0
 8002e3c:	2d00      	cmp	r5, #0
 8002e3e:	f040 83cc 	bne.w	80035da <HAL_RCCEx_PeriphCLKConfig+0x85e>
 8002e42:	497c      	ldr	r1, [pc, #496]	; (8003034 <HAL_RCCEx_PeriphCLKConfig+0x2b8>)
 8002e44:	f8d4 00a4 	ldr.w	r0, [r4, #164]	; 0xa4
 8002e48:	6d8a      	ldr	r2, [r1, #88]	; 0x58
 8002e4a:	f422 0260 	bic.w	r2, r2, #14680064	; 0xe00000
 8002e4e:	4302      	orrs	r2, r0
 8002e50:	658a      	str	r2, [r1, #88]	; 0x58
 8002e52:	051a      	lsls	r2, r3, #20
 8002e54:	d51f      	bpl.n	8002e96 <HAL_RCCEx_PeriphCLKConfig+0x11a>
 8002e56:	f8d4 20a8 	ldr.w	r2, [r4, #168]	; 0xa8
 8002e5a:	f1b2 7f00 	cmp.w	r2, #33554432	; 0x2000000
 8002e5e:	f000 83cf 	beq.w	8003600 <HAL_RCCEx_PeriphCLKConfig+0x884>
 8002e62:	f200 8483 	bhi.w	800376c <HAL_RCCEx_PeriphCLKConfig+0x9f0>
 8002e66:	2a00      	cmp	r2, #0
 8002e68:	f000 8408 	beq.w	800367c <HAL_RCCEx_PeriphCLKConfig+0x900>
 8002e6c:	f1b2 7f80 	cmp.w	r2, #16777216	; 0x1000000
 8002e70:	f040 8484 	bne.w	800377c <HAL_RCCEx_PeriphCLKConfig+0xa00>
 8002e74:	2100      	movs	r1, #0
 8002e76:	1d20      	adds	r0, r4, #4
 8002e78:	f7ff fe88 	bl	8002b8c <RCCEx_PLL2_Config>
 8002e7c:	6823      	ldr	r3, [r4, #0]
 8002e7e:	4605      	mov	r5, r0
 8002e80:	2d00      	cmp	r5, #0
 8002e82:	f040 83c7 	bne.w	8003614 <HAL_RCCEx_PeriphCLKConfig+0x898>
 8002e86:	496b      	ldr	r1, [pc, #428]	; (8003034 <HAL_RCCEx_PeriphCLKConfig+0x2b8>)
 8002e88:	f8d4 00a8 	ldr.w	r0, [r4, #168]	; 0xa8
 8002e8c:	6d8a      	ldr	r2, [r1, #88]	; 0x58
 8002e8e:	f022 62e0 	bic.w	r2, r2, #117440512	; 0x7000000
 8002e92:	4302      	orrs	r2, r0
 8002e94:	658a      	str	r2, [r1, #88]	; 0x58
 8002e96:	019f      	lsls	r7, r3, #6
 8002e98:	d50d      	bpl.n	8002eb6 <HAL_RCCEx_PeriphCLKConfig+0x13a>
 8002e9a:	6ca2      	ldr	r2, [r4, #72]	; 0x48
 8002e9c:	2a10      	cmp	r2, #16
 8002e9e:	f000 830c 	beq.w	80034ba <HAL_RCCEx_PeriphCLKConfig+0x73e>
 8002ea2:	f240 848e 	bls.w	80037c2 <HAL_RCCEx_PeriphCLKConfig+0xa46>
 8002ea6:	2a20      	cmp	r2, #32
 8002ea8:	f000 8349 	beq.w	800353e <HAL_RCCEx_PeriphCLKConfig+0x7c2>
 8002eac:	2a30      	cmp	r2, #48	; 0x30
 8002eae:	f000 8309 	beq.w	80034c4 <HAL_RCCEx_PeriphCLKConfig+0x748>
 8002eb2:	2601      	movs	r6, #1
 8002eb4:	4635      	mov	r5, r6
 8002eb6:	04d8      	lsls	r0, r3, #19
 8002eb8:	d51d      	bpl.n	8002ef6 <HAL_RCCEx_PeriphCLKConfig+0x17a>
 8002eba:	6de2      	ldr	r2, [r4, #92]	; 0x5c
 8002ebc:	f5b2 5f00 	cmp.w	r2, #8192	; 0x2000
 8002ec0:	f000 83aa 	beq.w	8003618 <HAL_RCCEx_PeriphCLKConfig+0x89c>
 8002ec4:	f200 8471 	bhi.w	80037aa <HAL_RCCEx_PeriphCLKConfig+0xa2e>
 8002ec8:	2a00      	cmp	r2, #0
 8002eca:	f000 83c4 	beq.w	8003656 <HAL_RCCEx_PeriphCLKConfig+0x8da>
 8002ece:	f5b2 5f80 	cmp.w	r2, #4096	; 0x1000
 8002ed2:	f040 8472 	bne.w	80037ba <HAL_RCCEx_PeriphCLKConfig+0xa3e>
 8002ed6:	2100      	movs	r1, #0
 8002ed8:	1d20      	adds	r0, r4, #4
 8002eda:	f7ff fe57 	bl	8002b8c <RCCEx_PLL2_Config>
 8002ede:	6823      	ldr	r3, [r4, #0]
 8002ee0:	4605      	mov	r5, r0
 8002ee2:	2d00      	cmp	r5, #0
 8002ee4:	f040 83a2 	bne.w	800362c <HAL_RCCEx_PeriphCLKConfig+0x8b0>
 8002ee8:	4952      	ldr	r1, [pc, #328]	; (8003034 <HAL_RCCEx_PeriphCLKConfig+0x2b8>)
 8002eea:	6de0      	ldr	r0, [r4, #92]	; 0x5c
 8002eec:	6d0a      	ldr	r2, [r1, #80]	; 0x50
 8002eee:	f422 42e0 	bic.w	r2, r2, #28672	; 0x7000
 8002ef2:	4302      	orrs	r2, r0
 8002ef4:	650a      	str	r2, [r1, #80]	; 0x50
 8002ef6:	0499      	lsls	r1, r3, #18
 8002ef8:	d51b      	bpl.n	8002f32 <HAL_RCCEx_PeriphCLKConfig+0x1b6>
 8002efa:	6e22      	ldr	r2, [r4, #96]	; 0x60
 8002efc:	f5b2 3f00 	cmp.w	r2, #131072	; 0x20000
 8002f00:	f000 8309 	beq.w	8003516 <HAL_RCCEx_PeriphCLKConfig+0x79a>
 8002f04:	f200 8407 	bhi.w	8003716 <HAL_RCCEx_PeriphCLKConfig+0x99a>
 8002f08:	b14a      	cbz	r2, 8002f1e <HAL_RCCEx_PeriphCLKConfig+0x1a2>
 8002f0a:	f5b2 3f80 	cmp.w	r2, #65536	; 0x10000
 8002f0e:	f040 840e 	bne.w	800372e <HAL_RCCEx_PeriphCLKConfig+0x9b2>
 8002f12:	2101      	movs	r1, #1
 8002f14:	1d20      	adds	r0, r4, #4
 8002f16:	f7ff fe39 	bl	8002b8c <RCCEx_PLL2_Config>
 8002f1a:	6823      	ldr	r3, [r4, #0]
 8002f1c:	4605      	mov	r5, r0
 8002f1e:	2d00      	cmp	r5, #0
 8002f20:	f040 8271 	bne.w	8003406 <HAL_RCCEx_PeriphCLKConfig+0x68a>
 8002f24:	4943      	ldr	r1, [pc, #268]	; (8003034 <HAL_RCCEx_PeriphCLKConfig+0x2b8>)
 8002f26:	6e20      	ldr	r0, [r4, #96]	; 0x60
 8002f28:	6d0a      	ldr	r2, [r1, #80]	; 0x50
 8002f2a:	f422 22e0 	bic.w	r2, r2, #458752	; 0x70000
 8002f2e:	4302      	orrs	r2, r0
 8002f30:	650a      	str	r2, [r1, #80]	; 0x50
 8002f32:	045a      	lsls	r2, r3, #17
 8002f34:	d51d      	bpl.n	8002f72 <HAL_RCCEx_PeriphCLKConfig+0x1f6>
 8002f36:	f8d4 20ac 	ldr.w	r2, [r4, #172]	; 0xac
 8002f3a:	f1b2 5f00 	cmp.w	r2, #536870912	; 0x20000000
 8002f3e:	f000 82b2 	beq.w	80034a6 <HAL_RCCEx_PeriphCLKConfig+0x72a>
 8002f42:	f200 83f8 	bhi.w	8003736 <HAL_RCCEx_PeriphCLKConfig+0x9ba>
 8002f46:	b14a      	cbz	r2, 8002f5c <HAL_RCCEx_PeriphCLKConfig+0x1e0>
 8002f48:	f1b2 5f80 	cmp.w	r2, #268435456	; 0x10000000
 8002f4c:	f040 83ff 	bne.w	800374e <HAL_RCCEx_PeriphCLKConfig+0x9d2>
 8002f50:	2101      	movs	r1, #1
 8002f52:	1d20      	adds	r0, r4, #4
 8002f54:	f7ff fe1a 	bl	8002b8c <RCCEx_PLL2_Config>
 8002f58:	6823      	ldr	r3, [r4, #0]
 8002f5a:	4605      	mov	r5, r0
 8002f5c:	2d00      	cmp	r5, #0
 8002f5e:	f040 8250 	bne.w	8003402 <HAL_RCCEx_PeriphCLKConfig+0x686>
 8002f62:	4934      	ldr	r1, [pc, #208]	; (8003034 <HAL_RCCEx_PeriphCLKConfig+0x2b8>)
 8002f64:	f8d4 00ac 	ldr.w	r0, [r4, #172]	; 0xac
 8002f68:	6d8a      	ldr	r2, [r1, #88]	; 0x58
 8002f6a:	f022 42e0 	bic.w	r2, r2, #1879048192	; 0x70000000
 8002f6e:	4302      	orrs	r2, r0
 8002f70:	658a      	str	r2, [r1, #88]	; 0x58
 8002f72:	041f      	lsls	r7, r3, #16
 8002f74:	d50d      	bpl.n	8002f92 <HAL_RCCEx_PeriphCLKConfig+0x216>
 8002f76:	6ee2      	ldr	r2, [r4, #108]	; 0x6c
 8002f78:	f1b2 5f80 	cmp.w	r2, #268435456	; 0x10000000
 8002f7c:	f000 82d6 	beq.w	800352c <HAL_RCCEx_PeriphCLKConfig+0x7b0>
 8002f80:	f1b2 5f00 	cmp.w	r2, #536870912	; 0x20000000
 8002f84:	f000 81ad 	beq.w	80032e2 <HAL_RCCEx_PeriphCLKConfig+0x566>
 8002f88:	2a00      	cmp	r2, #0
 8002f8a:	f000 81b0 	beq.w	80032ee <HAL_RCCEx_PeriphCLKConfig+0x572>
 8002f8e:	2601      	movs	r6, #1
 8002f90:	4635      	mov	r5, r6
 8002f92:	01d8      	lsls	r0, r3, #7
 8002f94:	d519      	bpl.n	8002fca <HAL_RCCEx_PeriphCLKConfig+0x24e>
 8002f96:	6c62      	ldr	r2, [r4, #68]	; 0x44
 8002f98:	2a03      	cmp	r2, #3
 8002f9a:	f200 8442 	bhi.w	8003822 <HAL_RCCEx_PeriphCLKConfig+0xaa6>
 8002f9e:	e8df f012 	tbh	[pc, r2, lsl #1]
 8002fa2:	000a      	.short	0x000a
 8002fa4:	00040264 	.word	0x00040264
 8002fa8:	000a      	.short	0x000a
 8002faa:	2102      	movs	r1, #2
 8002fac:	1d20      	adds	r0, r4, #4
 8002fae:	f7ff fded 	bl	8002b8c <RCCEx_PLL2_Config>
 8002fb2:	6823      	ldr	r3, [r4, #0]
 8002fb4:	4605      	mov	r5, r0
 8002fb6:	2d00      	cmp	r5, #0
 8002fb8:	f040 821b 	bne.w	80033f2 <HAL_RCCEx_PeriphCLKConfig+0x676>
 8002fbc:	491d      	ldr	r1, [pc, #116]	; (8003034 <HAL_RCCEx_PeriphCLKConfig+0x2b8>)
 8002fbe:	6c60      	ldr	r0, [r4, #68]	; 0x44
 8002fc0:	6cca      	ldr	r2, [r1, #76]	; 0x4c
 8002fc2:	f022 0203 	bic.w	r2, r2, #3
 8002fc6:	4302      	orrs	r2, r0
 8002fc8:	64ca      	str	r2, [r1, #76]	; 0x4c
 8002fca:	0259      	lsls	r1, r3, #9
 8002fcc:	f100 81cb 	bmi.w	8003366 <HAL_RCCEx_PeriphCLKConfig+0x5ea>
 8002fd0:	07df      	lsls	r7, r3, #31
 8002fd2:	d542      	bpl.n	800305a <HAL_RCCEx_PeriphCLKConfig+0x2de>
 8002fd4:	6fa2      	ldr	r2, [r4, #120]	; 0x78
 8002fd6:	2a28      	cmp	r2, #40	; 0x28
 8002fd8:	f200 8369 	bhi.w	80036ae <HAL_RCCEx_PeriphCLKConfig+0x932>
 8002fdc:	e8df f012 	tbh	[pc, r2, lsl #1]
 8002fe0:	03670033 	.word	0x03670033
 8002fe4:	03670367 	.word	0x03670367
 8002fe8:	03670367 	.word	0x03670367
 8002fec:	03670367 	.word	0x03670367
 8002ff0:	03670256 	.word	0x03670256
 8002ff4:	03670367 	.word	0x03670367
 8002ff8:	03670367 	.word	0x03670367
 8002ffc:	03670367 	.word	0x03670367
 8003000:	0367002c 	.word	0x0367002c
 8003004:	03670367 	.word	0x03670367
 8003008:	03670367 	.word	0x03670367
 800300c:	03670367 	.word	0x03670367
 8003010:	03670033 	.word	0x03670033
 8003014:	03670367 	.word	0x03670367
 8003018:	03670367 	.word	0x03670367
 800301c:	03670367 	.word	0x03670367
 8003020:	03670033 	.word	0x03670033
 8003024:	03670367 	.word	0x03670367
 8003028:	03670367 	.word	0x03670367
 800302c:	03670367 	.word	0x03670367
 8003030:	0033      	.short	0x0033
 8003032:	bf00      	nop
 8003034:	58024400 	.word	0x58024400
 8003038:	2101      	movs	r1, #1
 800303a:	f104 0024 	add.w	r0, r4, #36	; 0x24
 800303e:	f7ff fe21 	bl	8002c84 <RCCEx_PLL3_Config>
 8003042:	6823      	ldr	r3, [r4, #0]
 8003044:	4605      	mov	r5, r0
 8003046:	2d00      	cmp	r5, #0
 8003048:	f040 81d1 	bne.w	80033ee <HAL_RCCEx_PeriphCLKConfig+0x672>
 800304c:	49ad      	ldr	r1, [pc, #692]	; (8003304 <HAL_RCCEx_PeriphCLKConfig+0x588>)
 800304e:	6fa0      	ldr	r0, [r4, #120]	; 0x78
 8003050:	6d4a      	ldr	r2, [r1, #84]	; 0x54
 8003052:	f022 0238 	bic.w	r2, r2, #56	; 0x38
 8003056:	4302      	orrs	r2, r0
 8003058:	654a      	str	r2, [r1, #84]	; 0x54
 800305a:	0798      	lsls	r0, r3, #30
 800305c:	d51c      	bpl.n	8003098 <HAL_RCCEx_PeriphCLKConfig+0x31c>
 800305e:	6f62      	ldr	r2, [r4, #116]	; 0x74
 8003060:	2a05      	cmp	r2, #5
 8003062:	f200 83d8 	bhi.w	8003816 <HAL_RCCEx_PeriphCLKConfig+0xa9a>
 8003066:	e8df f012 	tbh	[pc, r2, lsl #1]
 800306a:	000d      	.short	0x000d
 800306c:	000601f7 	.word	0x000601f7
 8003070:	000d000d 	.word	0x000d000d
 8003074:	000d      	.short	0x000d
 8003076:	2101      	movs	r1, #1
 8003078:	f104 0024 	add.w	r0, r4, #36	; 0x24
 800307c:	f7ff fe02 	bl	8002c84 <RCCEx_PLL3_Config>
 8003080:	6823      	ldr	r3, [r4, #0]
 8003082:	4605      	mov	r5, r0
 8003084:	2d00      	cmp	r5, #0
 8003086:	f040 81b6 	bne.w	80033f6 <HAL_RCCEx_PeriphCLKConfig+0x67a>
 800308a:	499e      	ldr	r1, [pc, #632]	; (8003304 <HAL_RCCEx_PeriphCLKConfig+0x588>)
 800308c:	6f60      	ldr	r0, [r4, #116]	; 0x74
 800308e:	6d4a      	ldr	r2, [r1, #84]	; 0x54
 8003090:	f022 0207 	bic.w	r2, r2, #7
 8003094:	4302      	orrs	r2, r0
 8003096:	654a      	str	r2, [r1, #84]	; 0x54
 8003098:	0759      	lsls	r1, r3, #29
 800309a:	d51e      	bpl.n	80030da <HAL_RCCEx_PeriphCLKConfig+0x35e>
 800309c:	f8d4 2090 	ldr.w	r2, [r4, #144]	; 0x90
 80030a0:	2a05      	cmp	r2, #5
 80030a2:	f200 83bb 	bhi.w	800381c <HAL_RCCEx_PeriphCLKConfig+0xaa0>
 80030a6:	e8df f012 	tbh	[pc, r2, lsl #1]
 80030aa:	000d      	.short	0x000d
 80030ac:	000601e8 	.word	0x000601e8
 80030b0:	000d000d 	.word	0x000d000d
 80030b4:	000d      	.short	0x000d
 80030b6:	2101      	movs	r1, #1
 80030b8:	f104 0024 	add.w	r0, r4, #36	; 0x24
 80030bc:	f7ff fde2 	bl	8002c84 <RCCEx_PLL3_Config>
 80030c0:	6823      	ldr	r3, [r4, #0]
 80030c2:	4605      	mov	r5, r0
 80030c4:	2d00      	cmp	r5, #0
 80030c6:	f040 8198 	bne.w	80033fa <HAL_RCCEx_PeriphCLKConfig+0x67e>
 80030ca:	498e      	ldr	r1, [pc, #568]	; (8003304 <HAL_RCCEx_PeriphCLKConfig+0x588>)
 80030cc:	f8d4 0090 	ldr.w	r0, [r4, #144]	; 0x90
 80030d0:	6d8a      	ldr	r2, [r1, #88]	; 0x58
 80030d2:	f022 0207 	bic.w	r2, r2, #7
 80030d6:	4302      	orrs	r2, r0
 80030d8:	658a      	str	r2, [r1, #88]	; 0x58
 80030da:	069a      	lsls	r2, r3, #26
 80030dc:	d51d      	bpl.n	800311a <HAL_RCCEx_PeriphCLKConfig+0x39e>
 80030de:	f8d4 208c 	ldr.w	r2, [r4, #140]	; 0x8c
 80030e2:	f1b2 5f00 	cmp.w	r2, #536870912	; 0x20000000
 80030e6:	f000 81f7 	beq.w	80034d8 <HAL_RCCEx_PeriphCLKConfig+0x75c>
 80030ea:	f200 82e7 	bhi.w	80036bc <HAL_RCCEx_PeriphCLKConfig+0x940>
 80030ee:	b14a      	cbz	r2, 8003104 <HAL_RCCEx_PeriphCLKConfig+0x388>
 80030f0:	f1b2 5f80 	cmp.w	r2, #268435456	; 0x10000000
 80030f4:	f040 82ee 	bne.w	80036d4 <HAL_RCCEx_PeriphCLKConfig+0x958>
 80030f8:	2100      	movs	r1, #0
 80030fa:	1d20      	adds	r0, r4, #4
 80030fc:	f7ff fd46 	bl	8002b8c <RCCEx_PLL2_Config>
 8003100:	6823      	ldr	r3, [r4, #0]
 8003102:	4605      	mov	r5, r0
 8003104:	2d00      	cmp	r5, #0
 8003106:	f040 817a 	bne.w	80033fe <HAL_RCCEx_PeriphCLKConfig+0x682>
 800310a:	497e      	ldr	r1, [pc, #504]	; (8003304 <HAL_RCCEx_PeriphCLKConfig+0x588>)
 800310c:	f8d4 008c 	ldr.w	r0, [r4, #140]	; 0x8c
 8003110:	6d4a      	ldr	r2, [r1, #84]	; 0x54
 8003112:	f022 42e0 	bic.w	r2, r2, #1879048192	; 0x70000000
 8003116:	4302      	orrs	r2, r0
 8003118:	654a      	str	r2, [r1, #84]	; 0x54
 800311a:	065f      	lsls	r7, r3, #25
 800311c:	d51d      	bpl.n	800315a <HAL_RCCEx_PeriphCLKConfig+0x3de>
 800311e:	f8d4 2098 	ldr.w	r2, [r4, #152]	; 0x98
 8003122:	f5b2 6f00 	cmp.w	r2, #2048	; 0x800
 8003126:	f000 81e1 	beq.w	80034ec <HAL_RCCEx_PeriphCLKConfig+0x770>
 800312a:	f200 82d6 	bhi.w	80036da <HAL_RCCEx_PeriphCLKConfig+0x95e>
 800312e:	b14a      	cbz	r2, 8003144 <HAL_RCCEx_PeriphCLKConfig+0x3c8>
 8003130:	f5b2 6f80 	cmp.w	r2, #1024	; 0x400
 8003134:	f040 82dd 	bne.w	80036f2 <HAL_RCCEx_PeriphCLKConfig+0x976>
 8003138:	2100      	movs	r1, #0
 800313a:	1d20      	adds	r0, r4, #4
 800313c:	f7ff fd26 	bl	8002b8c <RCCEx_PLL2_Config>
 8003140:	6823      	ldr	r3, [r4, #0]
 8003142:	4605      	mov	r5, r0
 8003144:	2d00      	cmp	r5, #0
 8003146:	f040 8162 	bne.w	800340e <HAL_RCCEx_PeriphCLKConfig+0x692>
 800314a:	496e      	ldr	r1, [pc, #440]	; (8003304 <HAL_RCCEx_PeriphCLKConfig+0x588>)
 800314c:	f8d4 0098 	ldr.w	r0, [r4, #152]	; 0x98
 8003150:	6d8a      	ldr	r2, [r1, #88]	; 0x58
 8003152:	f422 52e0 	bic.w	r2, r2, #7168	; 0x1c00
 8003156:	4302      	orrs	r2, r0
 8003158:	658a      	str	r2, [r1, #88]	; 0x58
 800315a:	0618      	lsls	r0, r3, #24
 800315c:	d51d      	bpl.n	800319a <HAL_RCCEx_PeriphCLKConfig+0x41e>
 800315e:	f8d4 209c 	ldr.w	r2, [r4, #156]	; 0x9c
 8003162:	f5b2 4f80 	cmp.w	r2, #16384	; 0x4000
 8003166:	f000 81f4 	beq.w	8003552 <HAL_RCCEx_PeriphCLKConfig+0x7d6>
 800316a:	f200 82c5 	bhi.w	80036f8 <HAL_RCCEx_PeriphCLKConfig+0x97c>
 800316e:	b14a      	cbz	r2, 8003184 <HAL_RCCEx_PeriphCLKConfig+0x408>
 8003170:	f5b2 5f00 	cmp.w	r2, #8192	; 0x2000
 8003174:	f040 82cc 	bne.w	8003710 <HAL_RCCEx_PeriphCLKConfig+0x994>
 8003178:	2100      	movs	r1, #0
 800317a:	1d20      	adds	r0, r4, #4
 800317c:	f7ff fd06 	bl	8002b8c <RCCEx_PLL2_Config>
 8003180:	6823      	ldr	r3, [r4, #0]
 8003182:	4605      	mov	r5, r0
 8003184:	2d00      	cmp	r5, #0
 8003186:	f040 8144 	bne.w	8003412 <HAL_RCCEx_PeriphCLKConfig+0x696>
 800318a:	495e      	ldr	r1, [pc, #376]	; (8003304 <HAL_RCCEx_PeriphCLKConfig+0x588>)
 800318c:	f8d4 009c 	ldr.w	r0, [r4, #156]	; 0x9c
 8003190:	6d8a      	ldr	r2, [r1, #88]	; 0x58
 8003192:	f422 4260 	bic.w	r2, r2, #57344	; 0xe000
 8003196:	4302      	orrs	r2, r0
 8003198:	658a      	str	r2, [r1, #88]	; 0x58
 800319a:	0719      	lsls	r1, r3, #28
 800319c:	d50b      	bpl.n	80031b6 <HAL_RCCEx_PeriphCLKConfig+0x43a>
 800319e:	f8d4 1080 	ldr.w	r1, [r4, #128]	; 0x80
 80031a2:	f5b1 5f80 	cmp.w	r1, #4096	; 0x1000
 80031a6:	f000 81f8 	beq.w	800359a <HAL_RCCEx_PeriphCLKConfig+0x81e>
 80031aa:	4856      	ldr	r0, [pc, #344]	; (8003304 <HAL_RCCEx_PeriphCLKConfig+0x588>)
 80031ac:	6d42      	ldr	r2, [r0, #84]	; 0x54
 80031ae:	f422 5240 	bic.w	r2, r2, #12288	; 0x3000
 80031b2:	430a      	orrs	r2, r1
 80031b4:	6542      	str	r2, [r0, #84]	; 0x54
 80031b6:	06da      	lsls	r2, r3, #27
 80031b8:	d50b      	bpl.n	80031d2 <HAL_RCCEx_PeriphCLKConfig+0x456>
 80031ba:	f8d4 1094 	ldr.w	r1, [r4, #148]	; 0x94
 80031be:	f5b1 7f80 	cmp.w	r1, #256	; 0x100
 80031c2:	f000 81f5 	beq.w	80035b0 <HAL_RCCEx_PeriphCLKConfig+0x834>
 80031c6:	484f      	ldr	r0, [pc, #316]	; (8003304 <HAL_RCCEx_PeriphCLKConfig+0x588>)
 80031c8:	6d82      	ldr	r2, [r0, #88]	; 0x58
 80031ca:	f422 7240 	bic.w	r2, r2, #768	; 0x300
 80031ce:	430a      	orrs	r2, r1
 80031d0:	6582      	str	r2, [r0, #88]	; 0x58
 80031d2:	031f      	lsls	r7, r3, #12
 80031d4:	d50e      	bpl.n	80031f4 <HAL_RCCEx_PeriphCLKConfig+0x478>
 80031d6:	f8d4 10a0 	ldr.w	r1, [r4, #160]	; 0xa0
 80031da:	f5b1 3f80 	cmp.w	r1, #65536	; 0x10000
 80031de:	f000 8093 	beq.w	8003308 <HAL_RCCEx_PeriphCLKConfig+0x58c>
 80031e2:	f5b1 3f00 	cmp.w	r1, #131072	; 0x20000
 80031e6:	f000 8096 	beq.w	8003316 <HAL_RCCEx_PeriphCLKConfig+0x59a>
 80031ea:	2900      	cmp	r1, #0
 80031ec:	f000 824d 	beq.w	800368a <HAL_RCCEx_PeriphCLKConfig+0x90e>
 80031f0:	2601      	movs	r6, #1
 80031f2:	4635      	mov	r5, r6
 80031f4:	0358      	lsls	r0, r3, #13
 80031f6:	d50f      	bpl.n	8003218 <HAL_RCCEx_PeriphCLKConfig+0x49c>
 80031f8:	f8d4 2084 	ldr.w	r2, [r4, #132]	; 0x84
 80031fc:	f5b2 1f00 	cmp.w	r2, #2097152	; 0x200000
 8003200:	f000 8094 	beq.w	800332c <HAL_RCCEx_PeriphCLKConfig+0x5b0>
 8003204:	f5b2 1f40 	cmp.w	r2, #3145728	; 0x300000
 8003208:	f000 8097 	beq.w	800333a <HAL_RCCEx_PeriphCLKConfig+0x5be>
 800320c:	f5b2 1f80 	cmp.w	r2, #1048576	; 0x100000
 8003210:	f000 8244 	beq.w	800369c <HAL_RCCEx_PeriphCLKConfig+0x920>
 8003214:	2601      	movs	r6, #1
 8003216:	4635      	mov	r5, r6
 8003218:	03d9      	lsls	r1, r3, #15
 800321a:	d517      	bpl.n	800324c <HAL_RCCEx_PeriphCLKConfig+0x4d0>
 800321c:	6ce2      	ldr	r2, [r4, #76]	; 0x4c
 800321e:	2a00      	cmp	r2, #0
 8003220:	f000 8110 	beq.w	8003444 <HAL_RCCEx_PeriphCLKConfig+0x6c8>
 8003224:	f5b2 3f80 	cmp.w	r2, #65536	; 0x10000
 8003228:	f040 80f7 	bne.w	800341a <HAL_RCCEx_PeriphCLKConfig+0x69e>
 800322c:	2102      	movs	r1, #2
 800322e:	1d20      	adds	r0, r4, #4
 8003230:	f7ff fcac 	bl	8002b8c <RCCEx_PLL2_Config>
 8003234:	4605      	mov	r5, r0
 8003236:	6823      	ldr	r3, [r4, #0]
 8003238:	2d00      	cmp	r5, #0
 800323a:	f040 810b 	bne.w	8003454 <HAL_RCCEx_PeriphCLKConfig+0x6d8>
 800323e:	4931      	ldr	r1, [pc, #196]	; (8003304 <HAL_RCCEx_PeriphCLKConfig+0x588>)
 8003240:	6ce0      	ldr	r0, [r4, #76]	; 0x4c
 8003242:	6cca      	ldr	r2, [r1, #76]	; 0x4c
 8003244:	f422 3280 	bic.w	r2, r2, #65536	; 0x10000
 8003248:	4302      	orrs	r2, r0
 800324a:	64ca      	str	r2, [r1, #76]	; 0x4c
 800324c:	009a      	lsls	r2, r3, #2
 800324e:	d47f      	bmi.n	8003350 <HAL_RCCEx_PeriphCLKConfig+0x5d4>
 8003250:	039f      	lsls	r7, r3, #14
 8003252:	d435      	bmi.n	80032c0 <HAL_RCCEx_PeriphCLKConfig+0x544>
 8003254:	1c30      	adds	r0, r6, #0
 8003256:	bf18      	it	ne
 8003258:	2001      	movne	r0, #1
 800325a:	02de      	lsls	r6, r3, #11
 800325c:	d506      	bpl.n	800326c <HAL_RCCEx_PeriphCLKConfig+0x4f0>
 800325e:	4929      	ldr	r1, [pc, #164]	; (8003304 <HAL_RCCEx_PeriphCLKConfig+0x588>)
 8003260:	6f25      	ldr	r5, [r4, #112]	; 0x70
 8003262:	6d0a      	ldr	r2, [r1, #80]	; 0x50
 8003264:	f022 4200 	bic.w	r2, r2, #2147483648	; 0x80000000
 8003268:	432a      	orrs	r2, r5
 800326a:	650a      	str	r2, [r1, #80]	; 0x50
 800326c:	00dd      	lsls	r5, r3, #3
 800326e:	d507      	bpl.n	8003280 <HAL_RCCEx_PeriphCLKConfig+0x504>
 8003270:	4924      	ldr	r1, [pc, #144]	; (8003304 <HAL_RCCEx_PeriphCLKConfig+0x588>)
 8003272:	f8d4 50b4 	ldr.w	r5, [r4, #180]	; 0xb4
 8003276:	690a      	ldr	r2, [r1, #16]
 8003278:	f422 4280 	bic.w	r2, r2, #16384	; 0x4000
 800327c:	432a      	orrs	r2, r5
 800327e:	610a      	str	r2, [r1, #16]
 8003280:	0299      	lsls	r1, r3, #10
 8003282:	d506      	bpl.n	8003292 <HAL_RCCEx_PeriphCLKConfig+0x516>
 8003284:	491f      	ldr	r1, [pc, #124]	; (8003304 <HAL_RCCEx_PeriphCLKConfig+0x588>)
 8003286:	6ea5      	ldr	r5, [r4, #104]	; 0x68
 8003288:	6d0a      	ldr	r2, [r1, #80]	; 0x50
 800328a:	f022 7280 	bic.w	r2, r2, #16777216	; 0x1000000
 800328e:	432a      	orrs	r2, r5
 8003290:	650a      	str	r2, [r1, #80]	; 0x50
 8003292:	005a      	lsls	r2, r3, #1
 8003294:	d509      	bpl.n	80032aa <HAL_RCCEx_PeriphCLKConfig+0x52e>
 8003296:	4a1b      	ldr	r2, [pc, #108]	; (8003304 <HAL_RCCEx_PeriphCLKConfig+0x588>)
 8003298:	6911      	ldr	r1, [r2, #16]
 800329a:	f421 4100 	bic.w	r1, r1, #32768	; 0x8000
 800329e:	6111      	str	r1, [r2, #16]
 80032a0:	6911      	ldr	r1, [r2, #16]
 80032a2:	f8d4 50b8 	ldr.w	r5, [r4, #184]	; 0xb8
 80032a6:	4329      	orrs	r1, r5
 80032a8:	6111      	str	r1, [r2, #16]
 80032aa:	2b00      	cmp	r3, #0
 80032ac:	da06      	bge.n	80032bc <HAL_RCCEx_PeriphCLKConfig+0x540>
 80032ae:	4a15      	ldr	r2, [pc, #84]	; (8003304 <HAL_RCCEx_PeriphCLKConfig+0x588>)
 80032b0:	6d21      	ldr	r1, [r4, #80]	; 0x50
 80032b2:	6cd3      	ldr	r3, [r2, #76]	; 0x4c
 80032b4:	f023 5340 	bic.w	r3, r3, #805306368	; 0x30000000
 80032b8:	430b      	orrs	r3, r1
 80032ba:	64d3      	str	r3, [r2, #76]	; 0x4c
 80032bc:	e8bd 83f8 	ldmia.w	sp!, {r3, r4, r5, r6, r7, r8, r9, pc}
 80032c0:	6fe2      	ldr	r2, [r4, #124]	; 0x7c
 80032c2:	f5b2 7f80 	cmp.w	r2, #256	; 0x100
 80032c6:	f000 80ab 	beq.w	8003420 <HAL_RCCEx_PeriphCLKConfig+0x6a4>
 80032ca:	f240 80e8 	bls.w	800349e <HAL_RCCEx_PeriphCLKConfig+0x722>
 80032ce:	f5b2 7f00 	cmp.w	r2, #512	; 0x200
 80032d2:	f000 80aa 	beq.w	800342a <HAL_RCCEx_PeriphCLKConfig+0x6ae>
 80032d6:	f5b2 7f40 	cmp.w	r2, #768	; 0x300
 80032da:	f000 80a6 	beq.w	800342a <HAL_RCCEx_PeriphCLKConfig+0x6ae>
 80032de:	2001      	movs	r0, #1
 80032e0:	e7bb      	b.n	800325a <HAL_RCCEx_PeriphCLKConfig+0x4de>
 80032e2:	2101      	movs	r1, #1
 80032e4:	1d20      	adds	r0, r4, #4
 80032e6:	f7ff fc51 	bl	8002b8c <RCCEx_PLL2_Config>
 80032ea:	6823      	ldr	r3, [r4, #0]
 80032ec:	4605      	mov	r5, r0
 80032ee:	2d00      	cmp	r5, #0
 80032f0:	f040 808b 	bne.w	800340a <HAL_RCCEx_PeriphCLKConfig+0x68e>
 80032f4:	4903      	ldr	r1, [pc, #12]	; (8003304 <HAL_RCCEx_PeriphCLKConfig+0x588>)
 80032f6:	6ee0      	ldr	r0, [r4, #108]	; 0x6c
 80032f8:	6d0a      	ldr	r2, [r1, #80]	; 0x50
 80032fa:	f022 5240 	bic.w	r2, r2, #805306368	; 0x30000000
 80032fe:	4302      	orrs	r2, r0
 8003300:	650a      	str	r2, [r1, #80]	; 0x50
 8003302:	e646      	b.n	8002f92 <HAL_RCCEx_PeriphCLKConfig+0x216>
 8003304:	58024400 	.word	0x58024400
 8003308:	2102      	movs	r1, #2
 800330a:	f104 0024 	add.w	r0, r4, #36	; 0x24
 800330e:	f7ff fcb9 	bl	8002c84 <RCCEx_PLL3_Config>
 8003312:	6823      	ldr	r3, [r4, #0]
 8003314:	4605      	mov	r5, r0
 8003316:	2d00      	cmp	r5, #0
 8003318:	d17d      	bne.n	8003416 <HAL_RCCEx_PeriphCLKConfig+0x69a>
 800331a:	49b1      	ldr	r1, [pc, #708]	; (80035e0 <HAL_RCCEx_PeriphCLKConfig+0x864>)
 800331c:	f8d4 00a0 	ldr.w	r0, [r4, #160]	; 0xa0
 8003320:	6d8a      	ldr	r2, [r1, #88]	; 0x58
 8003322:	f422 3240 	bic.w	r2, r2, #196608	; 0x30000
 8003326:	4302      	orrs	r2, r0
 8003328:	658a      	str	r2, [r1, #88]	; 0x58
 800332a:	e763      	b.n	80031f4 <HAL_RCCEx_PeriphCLKConfig+0x478>
 800332c:	2101      	movs	r1, #1
 800332e:	f104 0024 	add.w	r0, r4, #36	; 0x24
 8003332:	f7ff fca7 	bl	8002c84 <RCCEx_PLL3_Config>
 8003336:	6823      	ldr	r3, [r4, #0]
 8003338:	4605      	mov	r5, r0
 800333a:	2d00      	cmp	r5, #0
 800333c:	d155      	bne.n	80033ea <HAL_RCCEx_PeriphCLKConfig+0x66e>
 800333e:	49a8      	ldr	r1, [pc, #672]	; (80035e0 <HAL_RCCEx_PeriphCLKConfig+0x864>)
 8003340:	f8d4 0084 	ldr.w	r0, [r4, #132]	; 0x84
 8003344:	6d4a      	ldr	r2, [r1, #84]	; 0x54
 8003346:	f422 1240 	bic.w	r2, r2, #3145728	; 0x300000
 800334a:	4302      	orrs	r2, r0
 800334c:	654a      	str	r2, [r1, #84]	; 0x54
 800334e:	e763      	b.n	8003218 <HAL_RCCEx_PeriphCLKConfig+0x49c>
 8003350:	2102      	movs	r1, #2
 8003352:	f104 0024 	add.w	r0, r4, #36	; 0x24
 8003356:	f7ff fc95 	bl	8002c84 <RCCEx_PLL3_Config>
 800335a:	6823      	ldr	r3, [r4, #0]
 800335c:	2800      	cmp	r0, #0
 800335e:	f43f af77 	beq.w	8003250 <HAL_RCCEx_PeriphCLKConfig+0x4d4>
 8003362:	2601      	movs	r6, #1
 8003364:	e774      	b.n	8003250 <HAL_RCCEx_PeriphCLKConfig+0x4d4>
 8003366:	4b9f      	ldr	r3, [pc, #636]	; (80035e4 <HAL_RCCEx_PeriphCLKConfig+0x868>)
 8003368:	681a      	ldr	r2, [r3, #0]
 800336a:	461f      	mov	r7, r3
 800336c:	f442 7280 	orr.w	r2, r2, #256	; 0x100
 8003370:	601a      	str	r2, [r3, #0]
 8003372:	f7fe fa81 	bl	8001878 <HAL_GetTick>
 8003376:	4680      	mov	r8, r0
 8003378:	e006      	b.n	8003388 <HAL_RCCEx_PeriphCLKConfig+0x60c>
 800337a:	f7fe fa7d 	bl	8001878 <HAL_GetTick>
 800337e:	eba0 0008 	sub.w	r0, r0, r8
 8003382:	2864      	cmp	r0, #100	; 0x64
 8003384:	f200 8196 	bhi.w	80036b4 <HAL_RCCEx_PeriphCLKConfig+0x938>
 8003388:	683b      	ldr	r3, [r7, #0]
 800338a:	05da      	lsls	r2, r3, #23
 800338c:	d5f5      	bpl.n	800337a <HAL_RCCEx_PeriphCLKConfig+0x5fe>
 800338e:	2d00      	cmp	r5, #0
 8003390:	f040 823d 	bne.w	800380e <HAL_RCCEx_PeriphCLKConfig+0xa92>
 8003394:	4a92      	ldr	r2, [pc, #584]	; (80035e0 <HAL_RCCEx_PeriphCLKConfig+0x864>)
 8003396:	f8d4 30b0 	ldr.w	r3, [r4, #176]	; 0xb0
 800339a:	6f11      	ldr	r1, [r2, #112]	; 0x70
 800339c:	4059      	eors	r1, r3
 800339e:	f411 7f40 	tst.w	r1, #768	; 0x300
 80033a2:	d00b      	beq.n	80033bc <HAL_RCCEx_PeriphCLKConfig+0x640>
 80033a4:	6f11      	ldr	r1, [r2, #112]	; 0x70
 80033a6:	6f10      	ldr	r0, [r2, #112]	; 0x70
 80033a8:	f421 7140 	bic.w	r1, r1, #768	; 0x300
 80033ac:	f440 3080 	orr.w	r0, r0, #65536	; 0x10000
 80033b0:	6710      	str	r0, [r2, #112]	; 0x70
 80033b2:	6f10      	ldr	r0, [r2, #112]	; 0x70
 80033b4:	f420 3080 	bic.w	r0, r0, #65536	; 0x10000
 80033b8:	6710      	str	r0, [r2, #112]	; 0x70
 80033ba:	6711      	str	r1, [r2, #112]	; 0x70
 80033bc:	f5b3 7f80 	cmp.w	r3, #256	; 0x100
 80033c0:	f000 8207 	beq.w	80037d2 <HAL_RCCEx_PeriphCLKConfig+0xa56>
 80033c4:	f403 7240 	and.w	r2, r3, #768	; 0x300
 80033c8:	f5b2 7f40 	cmp.w	r2, #768	; 0x300
 80033cc:	f000 8215 	beq.w	80037fa <HAL_RCCEx_PeriphCLKConfig+0xa7e>
 80033d0:	4983      	ldr	r1, [pc, #524]	; (80035e0 <HAL_RCCEx_PeriphCLKConfig+0x864>)
 80033d2:	690a      	ldr	r2, [r1, #16]
 80033d4:	f422 527c 	bic.w	r2, r2, #16128	; 0x3f00
 80033d8:	610a      	str	r2, [r1, #16]
 80033da:	4a81      	ldr	r2, [pc, #516]	; (80035e0 <HAL_RCCEx_PeriphCLKConfig+0x864>)
 80033dc:	f3c3 030b 	ubfx	r3, r3, #0, #12
 80033e0:	6f11      	ldr	r1, [r2, #112]	; 0x70
 80033e2:	430b      	orrs	r3, r1
 80033e4:	6713      	str	r3, [r2, #112]	; 0x70
 80033e6:	6823      	ldr	r3, [r4, #0]
 80033e8:	e5f2      	b.n	8002fd0 <HAL_RCCEx_PeriphCLKConfig+0x254>
 80033ea:	462e      	mov	r6, r5
 80033ec:	e714      	b.n	8003218 <HAL_RCCEx_PeriphCLKConfig+0x49c>
 80033ee:	462e      	mov	r6, r5
 80033f0:	e633      	b.n	800305a <HAL_RCCEx_PeriphCLKConfig+0x2de>
 80033f2:	462e      	mov	r6, r5
 80033f4:	e5e9      	b.n	8002fca <HAL_RCCEx_PeriphCLKConfig+0x24e>
 80033f6:	462e      	mov	r6, r5
 80033f8:	e64e      	b.n	8003098 <HAL_RCCEx_PeriphCLKConfig+0x31c>
 80033fa:	462e      	mov	r6, r5
 80033fc:	e66d      	b.n	80030da <HAL_RCCEx_PeriphCLKConfig+0x35e>
 80033fe:	462e      	mov	r6, r5
 8003400:	e68b      	b.n	800311a <HAL_RCCEx_PeriphCLKConfig+0x39e>
 8003402:	462e      	mov	r6, r5
 8003404:	e5b5      	b.n	8002f72 <HAL_RCCEx_PeriphCLKConfig+0x1f6>
 8003406:	462e      	mov	r6, r5
 8003408:	e593      	b.n	8002f32 <HAL_RCCEx_PeriphCLKConfig+0x1b6>
 800340a:	462e      	mov	r6, r5
 800340c:	e5c1      	b.n	8002f92 <HAL_RCCEx_PeriphCLKConfig+0x216>
 800340e:	462e      	mov	r6, r5
 8003410:	e6a3      	b.n	800315a <HAL_RCCEx_PeriphCLKConfig+0x3de>
 8003412:	462e      	mov	r6, r5
 8003414:	e6c1      	b.n	800319a <HAL_RCCEx_PeriphCLKConfig+0x41e>
 8003416:	462e      	mov	r6, r5
 8003418:	e6ec      	b.n	80031f4 <HAL_RCCEx_PeriphCLKConfig+0x478>
 800341a:	2601      	movs	r6, #1
 800341c:	4635      	mov	r5, r6
 800341e:	e715      	b.n	800324c <HAL_RCCEx_PeriphCLKConfig+0x4d0>
 8003420:	486f      	ldr	r0, [pc, #444]	; (80035e0 <HAL_RCCEx_PeriphCLKConfig+0x864>)
 8003422:	6ac1      	ldr	r1, [r0, #44]	; 0x2c
 8003424:	f441 3100 	orr.w	r1, r1, #131072	; 0x20000
 8003428:	62c1      	str	r1, [r0, #44]	; 0x2c
 800342a:	2d00      	cmp	r5, #0
 800342c:	f47f af57 	bne.w	80032de <HAL_RCCEx_PeriphCLKConfig+0x562>
 8003430:	4d6b      	ldr	r5, [pc, #428]	; (80035e0 <HAL_RCCEx_PeriphCLKConfig+0x864>)
 8003432:	1c30      	adds	r0, r6, #0
 8003434:	6d69      	ldr	r1, [r5, #84]	; 0x54
 8003436:	bf18      	it	ne
 8003438:	2001      	movne	r0, #1
 800343a:	f421 7140 	bic.w	r1, r1, #768	; 0x300
 800343e:	430a      	orrs	r2, r1
 8003440:	656a      	str	r2, [r5, #84]	; 0x54
 8003442:	e70a      	b.n	800325a <HAL_RCCEx_PeriphCLKConfig+0x4de>
 8003444:	4966      	ldr	r1, [pc, #408]	; (80035e0 <HAL_RCCEx_PeriphCLKConfig+0x864>)
 8003446:	6aca      	ldr	r2, [r1, #44]	; 0x2c
 8003448:	f442 3200 	orr.w	r2, r2, #131072	; 0x20000
 800344c:	62ca      	str	r2, [r1, #44]	; 0x2c
 800344e:	2d00      	cmp	r5, #0
 8003450:	f43f aef5 	beq.w	800323e <HAL_RCCEx_PeriphCLKConfig+0x4c2>
 8003454:	462e      	mov	r6, r5
 8003456:	e6f9      	b.n	800324c <HAL_RCCEx_PeriphCLKConfig+0x4d0>
 8003458:	2101      	movs	r1, #1
 800345a:	1d20      	adds	r0, r4, #4
 800345c:	f7ff fb96 	bl	8002b8c <RCCEx_PLL2_Config>
 8003460:	4605      	mov	r5, r0
 8003462:	6823      	ldr	r3, [r4, #0]
 8003464:	2d00      	cmp	r5, #0
 8003466:	d1c6      	bne.n	80033f6 <HAL_RCCEx_PeriphCLKConfig+0x67a>
 8003468:	e60f      	b.n	800308a <HAL_RCCEx_PeriphCLKConfig+0x30e>
 800346a:	495d      	ldr	r1, [pc, #372]	; (80035e0 <HAL_RCCEx_PeriphCLKConfig+0x864>)
 800346c:	6aca      	ldr	r2, [r1, #44]	; 0x2c
 800346e:	f442 3200 	orr.w	r2, r2, #131072	; 0x20000
 8003472:	62ca      	str	r2, [r1, #44]	; 0x2c
 8003474:	2d00      	cmp	r5, #0
 8003476:	d1bc      	bne.n	80033f2 <HAL_RCCEx_PeriphCLKConfig+0x676>
 8003478:	e5a0      	b.n	8002fbc <HAL_RCCEx_PeriphCLKConfig+0x240>
 800347a:	2101      	movs	r1, #1
 800347c:	1d20      	adds	r0, r4, #4
 800347e:	f7ff fb85 	bl	8002b8c <RCCEx_PLL2_Config>
 8003482:	4605      	mov	r5, r0
 8003484:	6823      	ldr	r3, [r4, #0]
 8003486:	2d00      	cmp	r5, #0
 8003488:	d1b7      	bne.n	80033fa <HAL_RCCEx_PeriphCLKConfig+0x67e>
 800348a:	e61e      	b.n	80030ca <HAL_RCCEx_PeriphCLKConfig+0x34e>
 800348c:	2101      	movs	r1, #1
 800348e:	1d20      	adds	r0, r4, #4
 8003490:	f7ff fb7c 	bl	8002b8c <RCCEx_PLL2_Config>
 8003494:	4605      	mov	r5, r0
 8003496:	6823      	ldr	r3, [r4, #0]
 8003498:	2d00      	cmp	r5, #0
 800349a:	d1a8      	bne.n	80033ee <HAL_RCCEx_PeriphCLKConfig+0x672>
 800349c:	e5d6      	b.n	800304c <HAL_RCCEx_PeriphCLKConfig+0x2d0>
 800349e:	2a00      	cmp	r2, #0
 80034a0:	f47f af1d 	bne.w	80032de <HAL_RCCEx_PeriphCLKConfig+0x562>
 80034a4:	e7c1      	b.n	800342a <HAL_RCCEx_PeriphCLKConfig+0x6ae>
 80034a6:	2101      	movs	r1, #1
 80034a8:	f104 0024 	add.w	r0, r4, #36	; 0x24
 80034ac:	f7ff fbea 	bl	8002c84 <RCCEx_PLL3_Config>
 80034b0:	4605      	mov	r5, r0
 80034b2:	6823      	ldr	r3, [r4, #0]
 80034b4:	2d00      	cmp	r5, #0
 80034b6:	d1a4      	bne.n	8003402 <HAL_RCCEx_PeriphCLKConfig+0x686>
 80034b8:	e553      	b.n	8002f62 <HAL_RCCEx_PeriphCLKConfig+0x1e6>
 80034ba:	4949      	ldr	r1, [pc, #292]	; (80035e0 <HAL_RCCEx_PeriphCLKConfig+0x864>)
 80034bc:	6aca      	ldr	r2, [r1, #44]	; 0x2c
 80034be:	f442 3200 	orr.w	r2, r2, #131072	; 0x20000
 80034c2:	62ca      	str	r2, [r1, #44]	; 0x2c
 80034c4:	2d00      	cmp	r5, #0
 80034c6:	d142      	bne.n	800354e <HAL_RCCEx_PeriphCLKConfig+0x7d2>
 80034c8:	4945      	ldr	r1, [pc, #276]	; (80035e0 <HAL_RCCEx_PeriphCLKConfig+0x864>)
 80034ca:	6ca0      	ldr	r0, [r4, #72]	; 0x48
 80034cc:	6cca      	ldr	r2, [r1, #76]	; 0x4c
 80034ce:	f022 0230 	bic.w	r2, r2, #48	; 0x30
 80034d2:	4302      	orrs	r2, r0
 80034d4:	64ca      	str	r2, [r1, #76]	; 0x4c
 80034d6:	e4ee      	b.n	8002eb6 <HAL_RCCEx_PeriphCLKConfig+0x13a>
 80034d8:	2102      	movs	r1, #2
 80034da:	f104 0024 	add.w	r0, r4, #36	; 0x24
 80034de:	f7ff fbd1 	bl	8002c84 <RCCEx_PLL3_Config>
 80034e2:	4605      	mov	r5, r0
 80034e4:	6823      	ldr	r3, [r4, #0]
 80034e6:	2d00      	cmp	r5, #0
 80034e8:	d189      	bne.n	80033fe <HAL_RCCEx_PeriphCLKConfig+0x682>
 80034ea:	e60e      	b.n	800310a <HAL_RCCEx_PeriphCLKConfig+0x38e>
 80034ec:	2102      	movs	r1, #2
 80034ee:	f104 0024 	add.w	r0, r4, #36	; 0x24
 80034f2:	f7ff fbc7 	bl	8002c84 <RCCEx_PLL3_Config>
 80034f6:	4605      	mov	r5, r0
 80034f8:	6823      	ldr	r3, [r4, #0]
 80034fa:	2d00      	cmp	r5, #0
 80034fc:	d187      	bne.n	800340e <HAL_RCCEx_PeriphCLKConfig+0x692>
 80034fe:	e624      	b.n	800314a <HAL_RCCEx_PeriphCLKConfig+0x3ce>
 8003500:	4635      	mov	r5, r6
 8003502:	2d00      	cmp	r5, #0
 8003504:	d139      	bne.n	800357a <HAL_RCCEx_PeriphCLKConfig+0x7fe>
 8003506:	4936      	ldr	r1, [pc, #216]	; (80035e0 <HAL_RCCEx_PeriphCLKConfig+0x864>)
 8003508:	6d60      	ldr	r0, [r4, #84]	; 0x54
 800350a:	6d0a      	ldr	r2, [r1, #80]	; 0x50
 800350c:	f022 0207 	bic.w	r2, r2, #7
 8003510:	4302      	orrs	r2, r0
 8003512:	650a      	str	r2, [r1, #80]	; 0x50
 8003514:	e45d      	b.n	8002dd2 <HAL_RCCEx_PeriphCLKConfig+0x56>
 8003516:	2101      	movs	r1, #1
 8003518:	f104 0024 	add.w	r0, r4, #36	; 0x24
 800351c:	f7ff fbb2 	bl	8002c84 <RCCEx_PLL3_Config>
 8003520:	4605      	mov	r5, r0
 8003522:	6823      	ldr	r3, [r4, #0]
 8003524:	2d00      	cmp	r5, #0
 8003526:	f47f af6e 	bne.w	8003406 <HAL_RCCEx_PeriphCLKConfig+0x68a>
 800352a:	e4fb      	b.n	8002f24 <HAL_RCCEx_PeriphCLKConfig+0x1a8>
 800352c:	492c      	ldr	r1, [pc, #176]	; (80035e0 <HAL_RCCEx_PeriphCLKConfig+0x864>)
 800352e:	6aca      	ldr	r2, [r1, #44]	; 0x2c
 8003530:	f442 3200 	orr.w	r2, r2, #131072	; 0x20000
 8003534:	62ca      	str	r2, [r1, #44]	; 0x2c
 8003536:	2d00      	cmp	r5, #0
 8003538:	f47f af67 	bne.w	800340a <HAL_RCCEx_PeriphCLKConfig+0x68e>
 800353c:	e6da      	b.n	80032f4 <HAL_RCCEx_PeriphCLKConfig+0x578>
 800353e:	2102      	movs	r1, #2
 8003540:	1d20      	adds	r0, r4, #4
 8003542:	f7ff fb23 	bl	8002b8c <RCCEx_PLL2_Config>
 8003546:	4605      	mov	r5, r0
 8003548:	6823      	ldr	r3, [r4, #0]
 800354a:	2d00      	cmp	r5, #0
 800354c:	d0bc      	beq.n	80034c8 <HAL_RCCEx_PeriphCLKConfig+0x74c>
 800354e:	462e      	mov	r6, r5
 8003550:	e4b1      	b.n	8002eb6 <HAL_RCCEx_PeriphCLKConfig+0x13a>
 8003552:	2102      	movs	r1, #2
 8003554:	f104 0024 	add.w	r0, r4, #36	; 0x24
 8003558:	f7ff fb94 	bl	8002c84 <RCCEx_PLL3_Config>
 800355c:	4605      	mov	r5, r0
 800355e:	6823      	ldr	r3, [r4, #0]
 8003560:	2d00      	cmp	r5, #0
 8003562:	f47f af56 	bne.w	8003412 <HAL_RCCEx_PeriphCLKConfig+0x696>
 8003566:	e610      	b.n	800318a <HAL_RCCEx_PeriphCLKConfig+0x40e>
 8003568:	2100      	movs	r1, #0
 800356a:	f104 0024 	add.w	r0, r4, #36	; 0x24
 800356e:	f7ff fb89 	bl	8002c84 <RCCEx_PLL3_Config>
 8003572:	4605      	mov	r5, r0
 8003574:	6823      	ldr	r3, [r4, #0]
 8003576:	2d00      	cmp	r5, #0
 8003578:	d0c5      	beq.n	8003506 <HAL_RCCEx_PeriphCLKConfig+0x78a>
 800357a:	462e      	mov	r6, r5
 800357c:	e429      	b.n	8002dd2 <HAL_RCCEx_PeriphCLKConfig+0x56>
 800357e:	4918      	ldr	r1, [pc, #96]	; (80035e0 <HAL_RCCEx_PeriphCLKConfig+0x864>)
 8003580:	4635      	mov	r5, r6
 8003582:	6aca      	ldr	r2, [r1, #44]	; 0x2c
 8003584:	f442 3200 	orr.w	r2, r2, #131072	; 0x20000
 8003588:	62ca      	str	r2, [r1, #44]	; 0x2c
 800358a:	e7ba      	b.n	8003502 <HAL_RCCEx_PeriphCLKConfig+0x786>
 800358c:	2100      	movs	r1, #0
 800358e:	1d20      	adds	r0, r4, #4
 8003590:	f7ff fafc 	bl	8002b8c <RCCEx_PLL2_Config>
 8003594:	6823      	ldr	r3, [r4, #0]
 8003596:	4605      	mov	r5, r0
 8003598:	e7b3      	b.n	8003502 <HAL_RCCEx_PeriphCLKConfig+0x786>
 800359a:	2102      	movs	r1, #2
 800359c:	f104 0024 	add.w	r0, r4, #36	; 0x24
 80035a0:	f7ff fb70 	bl	8002c84 <RCCEx_PLL3_Config>
 80035a4:	f8d4 1080 	ldr.w	r1, [r4, #128]	; 0x80
 80035a8:	b100      	cbz	r0, 80035ac <HAL_RCCEx_PeriphCLKConfig+0x830>
 80035aa:	2601      	movs	r6, #1
 80035ac:	6823      	ldr	r3, [r4, #0]
 80035ae:	e5fc      	b.n	80031aa <HAL_RCCEx_PeriphCLKConfig+0x42e>
 80035b0:	2102      	movs	r1, #2
 80035b2:	f104 0024 	add.w	r0, r4, #36	; 0x24
 80035b6:	f7ff fb65 	bl	8002c84 <RCCEx_PLL3_Config>
 80035ba:	f8d4 1094 	ldr.w	r1, [r4, #148]	; 0x94
 80035be:	b100      	cbz	r0, 80035c2 <HAL_RCCEx_PeriphCLKConfig+0x846>
 80035c0:	2601      	movs	r6, #1
 80035c2:	6823      	ldr	r3, [r4, #0]
 80035c4:	e5ff      	b.n	80031c6 <HAL_RCCEx_PeriphCLKConfig+0x44a>
 80035c6:	2100      	movs	r1, #0
 80035c8:	f104 0024 	add.w	r0, r4, #36	; 0x24
 80035cc:	f7ff fb5a 	bl	8002c84 <RCCEx_PLL3_Config>
 80035d0:	4605      	mov	r5, r0
 80035d2:	6823      	ldr	r3, [r4, #0]
 80035d4:	2d00      	cmp	r5, #0
 80035d6:	f43f ac34 	beq.w	8002e42 <HAL_RCCEx_PeriphCLKConfig+0xc6>
 80035da:	462e      	mov	r6, r5
 80035dc:	e439      	b.n	8002e52 <HAL_RCCEx_PeriphCLKConfig+0xd6>
 80035de:	bf00      	nop
 80035e0:	58024400 	.word	0x58024400
 80035e4:	58024800 	.word	0x58024800
 80035e8:	2100      	movs	r1, #0
 80035ea:	f104 0024 	add.w	r0, r4, #36	; 0x24
 80035ee:	f7ff fb49 	bl	8002c84 <RCCEx_PLL3_Config>
 80035f2:	4605      	mov	r5, r0
 80035f4:	6823      	ldr	r3, [r4, #0]
 80035f6:	2d00      	cmp	r5, #0
 80035f8:	f43f ac02 	beq.w	8002e00 <HAL_RCCEx_PeriphCLKConfig+0x84>
 80035fc:	462e      	mov	r6, r5
 80035fe:	e406      	b.n	8002e0e <HAL_RCCEx_PeriphCLKConfig+0x92>
 8003600:	2100      	movs	r1, #0
 8003602:	f104 0024 	add.w	r0, r4, #36	; 0x24
 8003606:	f7ff fb3d 	bl	8002c84 <RCCEx_PLL3_Config>
 800360a:	4605      	mov	r5, r0
 800360c:	6823      	ldr	r3, [r4, #0]
 800360e:	2d00      	cmp	r5, #0
 8003610:	f43f ac39 	beq.w	8002e86 <HAL_RCCEx_PeriphCLKConfig+0x10a>
 8003614:	462e      	mov	r6, r5
 8003616:	e43e      	b.n	8002e96 <HAL_RCCEx_PeriphCLKConfig+0x11a>
 8003618:	2100      	movs	r1, #0
 800361a:	f104 0024 	add.w	r0, r4, #36	; 0x24
 800361e:	f7ff fb31 	bl	8002c84 <RCCEx_PLL3_Config>
 8003622:	4605      	mov	r5, r0
 8003624:	6823      	ldr	r3, [r4, #0]
 8003626:	2d00      	cmp	r5, #0
 8003628:	f43f ac5e 	beq.w	8002ee8 <HAL_RCCEx_PeriphCLKConfig+0x16c>
 800362c:	462e      	mov	r6, r5
 800362e:	e462      	b.n	8002ef6 <HAL_RCCEx_PeriphCLKConfig+0x17a>
 8003630:	2102      	movs	r1, #2
 8003632:	3004      	adds	r0, #4
 8003634:	f7ff faaa 	bl	8002b8c <RCCEx_PLL2_Config>
 8003638:	4606      	mov	r6, r0
 800363a:	6823      	ldr	r3, [r4, #0]
 800363c:	2e00      	cmp	r6, #0
 800363e:	f47f abba 	bne.w	8002db6 <HAL_RCCEx_PeriphCLKConfig+0x3a>
 8003642:	6e62      	ldr	r2, [r4, #100]	; 0x64
 8003644:	f7ff bbb0 	b.w	8002da8 <HAL_RCCEx_PeriphCLKConfig+0x2c>
 8003648:	4978      	ldr	r1, [pc, #480]	; (800382c <HAL_RCCEx_PeriphCLKConfig+0xab0>)
 800364a:	6aca      	ldr	r2, [r1, #44]	; 0x2c
 800364c:	f442 3200 	orr.w	r2, r2, #131072	; 0x20000
 8003650:	62ca      	str	r2, [r1, #44]	; 0x2c
 8003652:	f7ff bbf3 	b.w	8002e3c <HAL_RCCEx_PeriphCLKConfig+0xc0>
 8003656:	4975      	ldr	r1, [pc, #468]	; (800382c <HAL_RCCEx_PeriphCLKConfig+0xab0>)
 8003658:	6aca      	ldr	r2, [r1, #44]	; 0x2c
 800365a:	f442 3200 	orr.w	r2, r2, #131072	; 0x20000
 800365e:	62ca      	str	r2, [r1, #44]	; 0x2c
 8003660:	e43f      	b.n	8002ee2 <HAL_RCCEx_PeriphCLKConfig+0x166>
 8003662:	2102      	movs	r1, #2
 8003664:	3024      	adds	r0, #36	; 0x24
 8003666:	f7ff fb0d 	bl	8002c84 <RCCEx_PLL3_Config>
 800366a:	4606      	mov	r6, r0
 800366c:	e7e5      	b.n	800363a <HAL_RCCEx_PeriphCLKConfig+0x8be>
 800366e:	496f      	ldr	r1, [pc, #444]	; (800382c <HAL_RCCEx_PeriphCLKConfig+0xab0>)
 8003670:	6aca      	ldr	r2, [r1, #44]	; 0x2c
 8003672:	f442 3200 	orr.w	r2, r2, #131072	; 0x20000
 8003676:	62ca      	str	r2, [r1, #44]	; 0x2c
 8003678:	f7ff bbbf 	b.w	8002dfa <HAL_RCCEx_PeriphCLKConfig+0x7e>
 800367c:	496b      	ldr	r1, [pc, #428]	; (800382c <HAL_RCCEx_PeriphCLKConfig+0xab0>)
 800367e:	6aca      	ldr	r2, [r1, #44]	; 0x2c
 8003680:	f442 3200 	orr.w	r2, r2, #131072	; 0x20000
 8003684:	62ca      	str	r2, [r1, #44]	; 0x2c
 8003686:	f7ff bbfb 	b.w	8002e80 <HAL_RCCEx_PeriphCLKConfig+0x104>
 800368a:	1d20      	adds	r0, r4, #4
 800368c:	f7ff fa7e 	bl	8002b8c <RCCEx_PLL2_Config>
 8003690:	4605      	mov	r5, r0
 8003692:	6823      	ldr	r3, [r4, #0]
 8003694:	2d00      	cmp	r5, #0
 8003696:	f47f aebe 	bne.w	8003416 <HAL_RCCEx_PeriphCLKConfig+0x69a>
 800369a:	e63e      	b.n	800331a <HAL_RCCEx_PeriphCLKConfig+0x59e>
 800369c:	4963      	ldr	r1, [pc, #396]	; (800382c <HAL_RCCEx_PeriphCLKConfig+0xab0>)
 800369e:	6aca      	ldr	r2, [r1, #44]	; 0x2c
 80036a0:	f442 3200 	orr.w	r2, r2, #131072	; 0x20000
 80036a4:	62ca      	str	r2, [r1, #44]	; 0x2c
 80036a6:	2d00      	cmp	r5, #0
 80036a8:	f47f ae9f 	bne.w	80033ea <HAL_RCCEx_PeriphCLKConfig+0x66e>
 80036ac:	e647      	b.n	800333e <HAL_RCCEx_PeriphCLKConfig+0x5c2>
 80036ae:	2601      	movs	r6, #1
 80036b0:	4635      	mov	r5, r6
 80036b2:	e4d2      	b.n	800305a <HAL_RCCEx_PeriphCLKConfig+0x2de>
 80036b4:	2603      	movs	r6, #3
 80036b6:	6823      	ldr	r3, [r4, #0]
 80036b8:	4635      	mov	r5, r6
 80036ba:	e489      	b.n	8002fd0 <HAL_RCCEx_PeriphCLKConfig+0x254>
 80036bc:	f1b2 4f80 	cmp.w	r2, #1073741824	; 0x40000000
 80036c0:	f43f ad20 	beq.w	8003104 <HAL_RCCEx_PeriphCLKConfig+0x388>
 80036c4:	f1b2 4fa0 	cmp.w	r2, #1342177280	; 0x50000000
 80036c8:	f43f ad1c 	beq.w	8003104 <HAL_RCCEx_PeriphCLKConfig+0x388>
 80036cc:	f1b2 5f40 	cmp.w	r2, #805306368	; 0x30000000
 80036d0:	f43f ad18 	beq.w	8003104 <HAL_RCCEx_PeriphCLKConfig+0x388>
 80036d4:	2601      	movs	r6, #1
 80036d6:	4635      	mov	r5, r6
 80036d8:	e51f      	b.n	800311a <HAL_RCCEx_PeriphCLKConfig+0x39e>
 80036da:	f5b2 5f80 	cmp.w	r2, #4096	; 0x1000
 80036de:	f43f ad31 	beq.w	8003144 <HAL_RCCEx_PeriphCLKConfig+0x3c8>
 80036e2:	f5b2 5fa0 	cmp.w	r2, #5120	; 0x1400
 80036e6:	f43f ad2d 	beq.w	8003144 <HAL_RCCEx_PeriphCLKConfig+0x3c8>
 80036ea:	f5b2 6f40 	cmp.w	r2, #3072	; 0xc00
 80036ee:	f43f ad29 	beq.w	8003144 <HAL_RCCEx_PeriphCLKConfig+0x3c8>
 80036f2:	2601      	movs	r6, #1
 80036f4:	4635      	mov	r5, r6
 80036f6:	e530      	b.n	800315a <HAL_RCCEx_PeriphCLKConfig+0x3de>
 80036f8:	f5b2 4f00 	cmp.w	r2, #32768	; 0x8000
 80036fc:	f43f ad42 	beq.w	8003184 <HAL_RCCEx_PeriphCLKConfig+0x408>
 8003700:	f5b2 4f20 	cmp.w	r2, #40960	; 0xa000
 8003704:	f43f ad3e 	beq.w	8003184 <HAL_RCCEx_PeriphCLKConfig+0x408>
 8003708:	f5b2 4fc0 	cmp.w	r2, #24576	; 0x6000
 800370c:	f43f ad3a 	beq.w	8003184 <HAL_RCCEx_PeriphCLKConfig+0x408>
 8003710:	2601      	movs	r6, #1
 8003712:	4635      	mov	r5, r6
 8003714:	e541      	b.n	800319a <HAL_RCCEx_PeriphCLKConfig+0x41e>
 8003716:	f5b2 2f80 	cmp.w	r2, #262144	; 0x40000
 800371a:	f43f ac00 	beq.w	8002f1e <HAL_RCCEx_PeriphCLKConfig+0x1a2>
 800371e:	f5b2 2fa0 	cmp.w	r2, #327680	; 0x50000
 8003722:	f43f abfc 	beq.w	8002f1e <HAL_RCCEx_PeriphCLKConfig+0x1a2>
 8003726:	f5b2 3f40 	cmp.w	r2, #196608	; 0x30000
 800372a:	f43f abf8 	beq.w	8002f1e <HAL_RCCEx_PeriphCLKConfig+0x1a2>
 800372e:	2601      	movs	r6, #1
 8003730:	4635      	mov	r5, r6
 8003732:	f7ff bbfe 	b.w	8002f32 <HAL_RCCEx_PeriphCLKConfig+0x1b6>
 8003736:	f1b2 4f80 	cmp.w	r2, #1073741824	; 0x40000000
 800373a:	f43f ac0f 	beq.w	8002f5c <HAL_RCCEx_PeriphCLKConfig+0x1e0>
 800373e:	f1b2 4fa0 	cmp.w	r2, #1342177280	; 0x50000000
 8003742:	f43f ac0b 	beq.w	8002f5c <HAL_RCCEx_PeriphCLKConfig+0x1e0>
 8003746:	f1b2 5f40 	cmp.w	r2, #805306368	; 0x30000000
 800374a:	f43f ac07 	beq.w	8002f5c <HAL_RCCEx_PeriphCLKConfig+0x1e0>
 800374e:	2601      	movs	r6, #1
 8003750:	4635      	mov	r5, r6
 8003752:	e40e      	b.n	8002f72 <HAL_RCCEx_PeriphCLKConfig+0x1f6>
 8003754:	f5b2 0fc0 	cmp.w	r2, #6291456	; 0x600000
 8003758:	f43f ab70 	beq.w	8002e3c <HAL_RCCEx_PeriphCLKConfig+0xc0>
 800375c:	f5b2 0f00 	cmp.w	r2, #8388608	; 0x800000
 8003760:	f43f ab6c 	beq.w	8002e3c <HAL_RCCEx_PeriphCLKConfig+0xc0>
 8003764:	2601      	movs	r6, #1
 8003766:	4635      	mov	r5, r6
 8003768:	f7ff bb73 	b.w	8002e52 <HAL_RCCEx_PeriphCLKConfig+0xd6>
 800376c:	f1b2 7f40 	cmp.w	r2, #50331648	; 0x3000000
 8003770:	f43f ab86 	beq.w	8002e80 <HAL_RCCEx_PeriphCLKConfig+0x104>
 8003774:	f1b2 6f80 	cmp.w	r2, #67108864	; 0x4000000
 8003778:	f43f ab82 	beq.w	8002e80 <HAL_RCCEx_PeriphCLKConfig+0x104>
 800377c:	2601      	movs	r6, #1
 800377e:	4635      	mov	r5, r6
 8003780:	f7ff bb89 	b.w	8002e96 <HAL_RCCEx_PeriphCLKConfig+0x11a>
 8003784:	2ac0      	cmp	r2, #192	; 0xc0
 8003786:	f43f ab38 	beq.w	8002dfa <HAL_RCCEx_PeriphCLKConfig+0x7e>
 800378a:	f5b2 7f80 	cmp.w	r2, #256	; 0x100
 800378e:	f43f ab34 	beq.w	8002dfa <HAL_RCCEx_PeriphCLKConfig+0x7e>
 8003792:	2601      	movs	r6, #1
 8003794:	4635      	mov	r5, r6
 8003796:	f7ff bb3a 	b.w	8002e0e <HAL_RCCEx_PeriphCLKConfig+0x92>
 800379a:	b9ba      	cbnz	r2, 80037cc <HAL_RCCEx_PeriphCLKConfig+0xa50>
 800379c:	4823      	ldr	r0, [pc, #140]	; (800382c <HAL_RCCEx_PeriphCLKConfig+0xab0>)
 800379e:	6ac1      	ldr	r1, [r0, #44]	; 0x2c
 80037a0:	f441 3100 	orr.w	r1, r1, #131072	; 0x20000
 80037a4:	62c1      	str	r1, [r0, #44]	; 0x2c
 80037a6:	f7ff baff 	b.w	8002da8 <HAL_RCCEx_PeriphCLKConfig+0x2c>
 80037aa:	f5b2 5f40 	cmp.w	r2, #12288	; 0x3000
 80037ae:	f43f ab98 	beq.w	8002ee2 <HAL_RCCEx_PeriphCLKConfig+0x166>
 80037b2:	f5b2 4f80 	cmp.w	r2, #16384	; 0x4000
 80037b6:	f43f ab94 	beq.w	8002ee2 <HAL_RCCEx_PeriphCLKConfig+0x166>
 80037ba:	2601      	movs	r6, #1
 80037bc:	4635      	mov	r5, r6
 80037be:	f7ff bb9a 	b.w	8002ef6 <HAL_RCCEx_PeriphCLKConfig+0x17a>
 80037c2:	2a00      	cmp	r2, #0
 80037c4:	f43f ae7e 	beq.w	80034c4 <HAL_RCCEx_PeriphCLKConfig+0x748>
 80037c8:	f7ff bb73 	b.w	8002eb2 <HAL_RCCEx_PeriphCLKConfig+0x136>
 80037cc:	2601      	movs	r6, #1
 80037ce:	f7ff baf2 	b.w	8002db6 <HAL_RCCEx_PeriphCLKConfig+0x3a>
 80037d2:	f7fe f851 	bl	8001878 <HAL_GetTick>
 80037d6:	4f15      	ldr	r7, [pc, #84]	; (800382c <HAL_RCCEx_PeriphCLKConfig+0xab0>)
 80037d8:	4681      	mov	r9, r0
 80037da:	f241 3888 	movw	r8, #5000	; 0x1388
 80037de:	e006      	b.n	80037ee <HAL_RCCEx_PeriphCLKConfig+0xa72>
 80037e0:	f7fe f84a 	bl	8001878 <HAL_GetTick>
 80037e4:	eba0 0009 	sub.w	r0, r0, r9
 80037e8:	4540      	cmp	r0, r8
 80037ea:	f63f af63 	bhi.w	80036b4 <HAL_RCCEx_PeriphCLKConfig+0x938>
 80037ee:	6f3b      	ldr	r3, [r7, #112]	; 0x70
 80037f0:	079b      	lsls	r3, r3, #30
 80037f2:	d5f5      	bpl.n	80037e0 <HAL_RCCEx_PeriphCLKConfig+0xa64>
 80037f4:	f8d4 30b0 	ldr.w	r3, [r4, #176]	; 0xb0
 80037f8:	e5e4      	b.n	80033c4 <HAL_RCCEx_PeriphCLKConfig+0x648>
 80037fa:	480c      	ldr	r0, [pc, #48]	; (800382c <HAL_RCCEx_PeriphCLKConfig+0xab0>)
 80037fc:	4a0c      	ldr	r2, [pc, #48]	; (8003830 <HAL_RCCEx_PeriphCLKConfig+0xab4>)
 80037fe:	6901      	ldr	r1, [r0, #16]
 8003800:	ea02 1213 	and.w	r2, r2, r3, lsr #4
 8003804:	f421 517c 	bic.w	r1, r1, #16128	; 0x3f00
 8003808:	430a      	orrs	r2, r1
 800380a:	6102      	str	r2, [r0, #16]
 800380c:	e5e5      	b.n	80033da <HAL_RCCEx_PeriphCLKConfig+0x65e>
 800380e:	6823      	ldr	r3, [r4, #0]
 8003810:	462e      	mov	r6, r5
 8003812:	f7ff bbdd 	b.w	8002fd0 <HAL_RCCEx_PeriphCLKConfig+0x254>
 8003816:	2601      	movs	r6, #1
 8003818:	4635      	mov	r5, r6
 800381a:	e43d      	b.n	8003098 <HAL_RCCEx_PeriphCLKConfig+0x31c>
 800381c:	2601      	movs	r6, #1
 800381e:	4635      	mov	r5, r6
 8003820:	e45b      	b.n	80030da <HAL_RCCEx_PeriphCLKConfig+0x35e>
 8003822:	2601      	movs	r6, #1
 8003824:	4635      	mov	r5, r6
 8003826:	f7ff bbd0 	b.w	8002fca <HAL_RCCEx_PeriphCLKConfig+0x24e>
 800382a:	bf00      	nop
 800382c:	58024400 	.word	0x58024400
 8003830:	00ffffcf 	.word	0x00ffffcf

08003834 <HAL_RCCEx_GetD3PCLK1Freq>:
 8003834:	b508      	push	{r3, lr}
 8003836:	f7fe ffa1 	bl	800277c <HAL_RCC_GetHCLKFreq>
 800383a:	4b05      	ldr	r3, [pc, #20]	; (8003850 <HAL_RCCEx_GetD3PCLK1Freq+0x1c>)
 800383c:	4a05      	ldr	r2, [pc, #20]	; (8003854 <HAL_RCCEx_GetD3PCLK1Freq+0x20>)
 800383e:	6a1b      	ldr	r3, [r3, #32]
 8003840:	f3c3 1302 	ubfx	r3, r3, #4, #3
 8003844:	5cd3      	ldrb	r3, [r2, r3]
 8003846:	f003 031f 	and.w	r3, r3, #31
 800384a:	40d8      	lsrs	r0, r3
 800384c:	bd08      	pop	{r3, pc}
 800384e:	bf00      	nop
 8003850:	58024400 	.word	0x58024400
 8003854:	080088f0 	.word	0x080088f0

08003858 <HAL_RCCEx_GetPLL2ClockFreq>:
 8003858:	4a46      	ldr	r2, [pc, #280]	; (8003974 <HAL_RCCEx_GetPLL2ClockFreq+0x11c>)
 800385a:	b430      	push	{r4, r5}
 800385c:	6a94      	ldr	r4, [r2, #40]	; 0x28
 800385e:	6a93      	ldr	r3, [r2, #40]	; 0x28
 8003860:	6ad1      	ldr	r1, [r2, #44]	; 0x2c
 8003862:	f3c3 3305 	ubfx	r3, r3, #12, #6
 8003866:	6bd5      	ldr	r5, [r2, #60]	; 0x3c
 8003868:	2b00      	cmp	r3, #0
 800386a:	d059      	beq.n	8003920 <HAL_RCCEx_GetPLL2ClockFreq+0xc8>
 800386c:	f3c5 05cc 	ubfx	r5, r5, #3, #13
 8003870:	f3c1 1100 	ubfx	r1, r1, #4, #1
 8003874:	f004 0403 	and.w	r4, r4, #3
 8003878:	ee07 3a90 	vmov	s15, r3
 800387c:	fb01 f105 	mul.w	r1, r1, r5
 8003880:	2c01      	cmp	r4, #1
 8003882:	eef8 7ae7 	vcvt.f32.s32	s15, s15
 8003886:	ee06 1a90 	vmov	s13, r1
 800388a:	eefa 6ae9 	vcvt.f32.s32	s13, s13, #13
 800388e:	d002      	beq.n	8003896 <HAL_RCCEx_GetPLL2ClockFreq+0x3e>
 8003890:	d34e      	bcc.n	8003930 <HAL_RCCEx_GetPLL2ClockFreq+0xd8>
 8003892:	2c02      	cmp	r4, #2
 8003894:	d049      	beq.n	800392a <HAL_RCCEx_GetPLL2ClockFreq+0xd2>
 8003896:	ed9f 7a38 	vldr	s14, [pc, #224]	; 8003978 <HAL_RCCEx_GetPLL2ClockFreq+0x120>
 800389a:	ee87 6a27 	vdiv.f32	s12, s14, s15
 800389e:	6b93      	ldr	r3, [r2, #56]	; 0x38
 80038a0:	f3c3 0308 	ubfx	r3, r3, #0, #9
 80038a4:	ee07 3a90 	vmov	s15, r3
 80038a8:	eef7 5a00 	vmov.f32	s11, #112	; 0x3f800000  1.0
 80038ac:	eeb8 7ae7 	vcvt.f32.s32	s14, s15
 80038b0:	ee77 7a26 	vadd.f32	s15, s14, s13
 80038b4:	ee77 7aa5 	vadd.f32	s15, s15, s11
 80038b8:	ee67 7a86 	vmul.f32	s15, s15, s12
 80038bc:	4a2d      	ldr	r2, [pc, #180]	; (8003974 <HAL_RCCEx_GetPLL2ClockFreq+0x11c>)
 80038be:	eeb7 6a00 	vmov.f32	s12, #112	; 0x3f800000  1.0
 80038c2:	6b93      	ldr	r3, [r2, #56]	; 0x38
 80038c4:	f3c3 2346 	ubfx	r3, r3, #9, #7
 80038c8:	ee06 3a90 	vmov	s13, r3
 80038cc:	eef8 6ae6 	vcvt.f32.s32	s13, s13
 80038d0:	bc30      	pop	{r4, r5}
 80038d2:	ee76 6a86 	vadd.f32	s13, s13, s12
 80038d6:	ee87 7aa6 	vdiv.f32	s14, s15, s13
 80038da:	eebc 7ac7 	vcvt.u32.f32	s14, s14
 80038de:	ed80 7a00 	vstr	s14, [r0]
 80038e2:	6b93      	ldr	r3, [r2, #56]	; 0x38
 80038e4:	f3c3 4306 	ubfx	r3, r3, #16, #7
 80038e8:	ee06 3a90 	vmov	s13, r3
 80038ec:	eef8 6ae6 	vcvt.f32.s32	s13, s13
 80038f0:	ee76 6a86 	vadd.f32	s13, s13, s12
 80038f4:	ee87 7aa6 	vdiv.f32	s14, s15, s13
 80038f8:	eebc 7ac7 	vcvt.u32.f32	s14, s14
 80038fc:	ed80 7a01 	vstr	s14, [r0, #4]
 8003900:	6b93      	ldr	r3, [r2, #56]	; 0x38
 8003902:	f3c3 6306 	ubfx	r3, r3, #24, #7
 8003906:	ee07 3a10 	vmov	s14, r3
 800390a:	eeb8 7ac7 	vcvt.f32.s32	s14, s14
 800390e:	ee37 7a06 	vadd.f32	s14, s14, s12
 8003912:	eec7 6a87 	vdiv.f32	s13, s15, s14
 8003916:	eefc 6ae6 	vcvt.u32.f32	s13, s13
 800391a:	edc0 6a02 	vstr	s13, [r0, #8]
 800391e:	4770      	bx	lr
 8003920:	e9c0 3300 	strd	r3, r3, [r0]
 8003924:	6083      	str	r3, [r0, #8]
 8003926:	bc30      	pop	{r4, r5}
 8003928:	4770      	bx	lr
 800392a:	ed9f 7a14 	vldr	s14, [pc, #80]	; 800397c <HAL_RCCEx_GetPLL2ClockFreq+0x124>
 800392e:	e7b4      	b.n	800389a <HAL_RCCEx_GetPLL2ClockFreq+0x42>
 8003930:	6813      	ldr	r3, [r2, #0]
 8003932:	069b      	lsls	r3, r3, #26
 8003934:	d51a      	bpl.n	800396c <HAL_RCCEx_GetPLL2ClockFreq+0x114>
 8003936:	6814      	ldr	r4, [r2, #0]
 8003938:	eeb7 5a00 	vmov.f32	s10, #112	; 0x3f800000  1.0
 800393c:	4910      	ldr	r1, [pc, #64]	; (8003980 <HAL_RCCEx_GetPLL2ClockFreq+0x128>)
 800393e:	f3c4 04c1 	ubfx	r4, r4, #3, #2
 8003942:	6b93      	ldr	r3, [r2, #56]	; 0x38
 8003944:	40e1      	lsrs	r1, r4
 8003946:	f3c3 0308 	ubfx	r3, r3, #0, #9
 800394a:	ee07 1a10 	vmov	s14, r1
 800394e:	eef8 5ac7 	vcvt.f32.s32	s11, s14
 8003952:	ee07 3a10 	vmov	s14, r3
 8003956:	eeb8 6ac7 	vcvt.f32.s32	s12, s14
 800395a:	ee85 7aa7 	vdiv.f32	s14, s11, s15
 800395e:	ee76 7a26 	vadd.f32	s15, s12, s13
 8003962:	ee77 7a85 	vadd.f32	s15, s15, s10
 8003966:	ee67 7a27 	vmul.f32	s15, s14, s15
 800396a:	e7a7      	b.n	80038bc <HAL_RCCEx_GetPLL2ClockFreq+0x64>
 800396c:	ed9f 7a05 	vldr	s14, [pc, #20]	; 8003984 <HAL_RCCEx_GetPLL2ClockFreq+0x12c>
 8003970:	e793      	b.n	800389a <HAL_RCCEx_GetPLL2ClockFreq+0x42>
 8003972:	bf00      	nop
 8003974:	58024400 	.word	0x58024400
 8003978:	4a742400 	.word	0x4a742400
 800397c:	4c189680 	.word	0x4c189680
 8003980:	03d09000 	.word	0x03d09000
 8003984:	4c742400 	.word	0x4c742400

08003988 <HAL_RCCEx_GetPLL3ClockFreq>:
 8003988:	4a46      	ldr	r2, [pc, #280]	; (8003aa4 <HAL_RCCEx_GetPLL3ClockFreq+0x11c>)
 800398a:	b430      	push	{r4, r5}
 800398c:	6a94      	ldr	r4, [r2, #40]	; 0x28
 800398e:	6a93      	ldr	r3, [r2, #40]	; 0x28
 8003990:	6ad1      	ldr	r1, [r2, #44]	; 0x2c
 8003992:	f3c3 5305 	ubfx	r3, r3, #20, #6
 8003996:	6c55      	ldr	r5, [r2, #68]	; 0x44
 8003998:	2b00      	cmp	r3, #0
 800399a:	d059      	beq.n	8003a50 <HAL_RCCEx_GetPLL3ClockFreq+0xc8>
 800399c:	f3c5 05cc 	ubfx	r5, r5, #3, #13
 80039a0:	f3c1 2100 	ubfx	r1, r1, #8, #1
 80039a4:	f004 0403 	and.w	r4, r4, #3
 80039a8:	ee07 3a90 	vmov	s15, r3
 80039ac:	fb01 f105 	mul.w	r1, r1, r5
 80039b0:	2c01      	cmp	r4, #1
 80039b2:	eef8 7ae7 	vcvt.f32.s32	s15, s15
 80039b6:	ee06 1a90 	vmov	s13, r1
 80039ba:	eefa 6ae9 	vcvt.f32.s32	s13, s13, #13
 80039be:	d002      	beq.n	80039c6 <HAL_RCCEx_GetPLL3ClockFreq+0x3e>
 80039c0:	d34e      	bcc.n	8003a60 <HAL_RCCEx_GetPLL3ClockFreq+0xd8>
 80039c2:	2c02      	cmp	r4, #2
 80039c4:	d049      	beq.n	8003a5a <HAL_RCCEx_GetPLL3ClockFreq+0xd2>
 80039c6:	ed9f 7a38 	vldr	s14, [pc, #224]	; 8003aa8 <HAL_RCCEx_GetPLL3ClockFreq+0x120>
 80039ca:	ee87 6a27 	vdiv.f32	s12, s14, s15
 80039ce:	6c13      	ldr	r3, [r2, #64]	; 0x40
 80039d0:	f3c3 0308 	ubfx	r3, r3, #0, #9
 80039d4:	ee07 3a90 	vmov	s15, r3
 80039d8:	eef7 5a00 	vmov.f32	s11, #112	; 0x3f800000  1.0
 80039dc:	eeb8 7ae7 	vcvt.f32.s32	s14, s15
 80039e0:	ee77 7a26 	vadd.f32	s15, s14, s13
 80039e4:	ee77 7aa5 	vadd.f32	s15, s15, s11
 80039e8:	ee67 7a86 	vmul.f32	s15, s15, s12
 80039ec:	4a2d      	ldr	r2, [pc, #180]	; (8003aa4 <HAL_RCCEx_GetPLL3ClockFreq+0x11c>)
 80039ee:	eeb7 6a00 	vmov.f32	s12, #112	; 0x3f800000  1.0
 80039f2:	6c13      	ldr	r3, [r2, #64]	; 0x40
 80039f4:	f3c3 2346 	ubfx	r3, r3, #9, #7
 80039f8:	ee06 3a90 	vmov	s13, r3
 80039fc:	eef8 6ae6 	vcvt.f32.s32	s13, s13
 8003a00:	bc30      	pop	{r4, r5}
 8003a02:	ee76 6a86 	vadd.f32	s13, s13, s12
 8003a06:	ee87 7aa6 	vdiv.f32	s14, s15, s13
 8003a0a:	eebc 7ac7 	vcvt.u32.f32	s14, s14
 8003a0e:	ed80 7a00 	vstr	s14, [r0]
 8003a12:	6c13      	ldr	r3, [r2, #64]	; 0x40
 8003a14:	f3c3 4306 	ubfx	r3, r3, #16, #7
 8003a18:	ee06 3a90 	vmov	s13, r3
 8003a1c:	eef8 6ae6 	vcvt.f32.s32	s13, s13
 8003a20:	ee76 6a86 	vadd.f32	s13, s13, s12
 8003a24:	ee87 7aa6 	vdiv.f32	s14, s15, s13
 8003a28:	eebc 7ac7 	vcvt.u32.f32	s14, s14
 8003a2c:	ed80 7a01 	vstr	s14, [r0, #4]
 8003a30:	6c13      	ldr	r3, [r2, #64]	; 0x40
 8003a32:	f3c3 6306 	ubfx	r3, r3, #24, #7
 8003a36:	ee07 3a10 	vmov	s14, r3
 8003a3a:	eeb8 7ac7 	vcvt.f32.s32	s14, s14
 8003a3e:	ee37 7a06 	vadd.f32	s14, s14, s12
 8003a42:	eec7 6a87 	vdiv.f32	s13, s15, s14
 8003a46:	eefc 6ae6 	vcvt.u32.f32	s13, s13
 8003a4a:	edc0 6a02 	vstr	s13, [r0, #8]
 8003a4e:	4770      	bx	lr
 8003a50:	e9c0 3300 	strd	r3, r3, [r0]
 8003a54:	6083      	str	r3, [r0, #8]
 8003a56:	bc30      	pop	{r4, r5}
 8003a58:	4770      	bx	lr
 8003a5a:	ed9f 7a14 	vldr	s14, [pc, #80]	; 8003aac <HAL_RCCEx_GetPLL3ClockFreq+0x124>
 8003a5e:	e7b4      	b.n	80039ca <HAL_RCCEx_GetPLL3ClockFreq+0x42>
 8003a60:	6813      	ldr	r3, [r2, #0]
 8003a62:	069b      	lsls	r3, r3, #26
 8003a64:	d51a      	bpl.n	8003a9c <HAL_RCCEx_GetPLL3ClockFreq+0x114>
 8003a66:	6814      	ldr	r4, [r2, #0]
 8003a68:	eeb7 5a00 	vmov.f32	s10, #112	; 0x3f800000  1.0
 8003a6c:	4910      	ldr	r1, [pc, #64]	; (8003ab0 <HAL_RCCEx_GetPLL3ClockFreq+0x128>)
 8003a6e:	f3c4 04c1 	ubfx	r4, r4, #3, #2
 8003a72:	6c13      	ldr	r3, [r2, #64]	; 0x40
 8003a74:	40e1      	lsrs	r1, r4
 8003a76:	f3c3 0308 	ubfx	r3, r3, #0, #9
 8003a7a:	ee07 1a10 	vmov	s14, r1
 8003a7e:	eef8 5ac7 	vcvt.f32.s32	s11, s14
 8003a82:	ee07 3a10 	vmov	s14, r3
 8003a86:	eeb8 6ac7 	vcvt.f32.s32	s12, s14
 8003a8a:	ee85 7aa7 	vdiv.f32	s14, s11, s15
 8003a8e:	ee76 7a26 	vadd.f32	s15, s12, s13
 8003a92:	ee77 7a85 	vadd.f32	s15, s15, s10
 8003a96:	ee67 7a27 	vmul.f32	s15, s14, s15
 8003a9a:	e7a7      	b.n	80039ec <HAL_RCCEx_GetPLL3ClockFreq+0x64>
 8003a9c:	ed9f 7a05 	vldr	s14, [pc, #20]	; 8003ab4 <HAL_RCCEx_GetPLL3ClockFreq+0x12c>
 8003aa0:	e793      	b.n	80039ca <HAL_RCCEx_GetPLL3ClockFreq+0x42>
 8003aa2:	bf00      	nop
 8003aa4:	58024400 	.word	0x58024400
 8003aa8:	4a742400 	.word	0x4a742400
 8003aac:	4c189680 	.word	0x4c189680
 8003ab0:	03d09000 	.word	0x03d09000
 8003ab4:	4c742400 	.word	0x4c742400

08003ab8 <HAL_TIM_Base_Init>:
 8003ab8:	2800      	cmp	r0, #0
 8003aba:	d076      	beq.n	8003baa <HAL_TIM_Base_Init+0xf2>
 8003abc:	f890 303d 	ldrb.w	r3, [r0, #61]	; 0x3d
 8003ac0:	b570      	push	{r4, r5, r6, lr}
 8003ac2:	f003 02ff 	and.w	r2, r3, #255	; 0xff
 8003ac6:	4604      	mov	r4, r0
 8003ac8:	2b00      	cmp	r3, #0
 8003aca:	d069      	beq.n	8003ba0 <HAL_TIM_Base_Init+0xe8>
 8003acc:	6822      	ldr	r2, [r4, #0]
 8003ace:	2302      	movs	r3, #2
 8003ad0:	493c      	ldr	r1, [pc, #240]	; (8003bc4 <HAL_TIM_Base_Init+0x10c>)
 8003ad2:	4e3d      	ldr	r6, [pc, #244]	; (8003bc8 <HAL_TIM_Base_Init+0x110>)
 8003ad4:	f1b2 4f80 	cmp.w	r2, #1073741824	; 0x40000000
 8003ad8:	eba2 0101 	sub.w	r1, r2, r1
 8003adc:	f884 303d 	strb.w	r3, [r4, #61]	; 0x3d
 8003ae0:	eba2 0606 	sub.w	r6, r2, r6
 8003ae4:	6813      	ldr	r3, [r2, #0]
 8003ae6:	fab1 f181 	clz	r1, r1
 8003aea:	fab6 f686 	clz	r6, r6
 8003aee:	ea4f 1151 	mov.w	r1, r1, lsr #5
 8003af2:	ea4f 1656 	mov.w	r6, r6, lsr #5
 8003af6:	d018      	beq.n	8003b2a <HAL_TIM_Base_Init+0x72>
 8003af8:	b9b9      	cbnz	r1, 8003b2a <HAL_TIM_Base_Init+0x72>
 8003afa:	4834      	ldr	r0, [pc, #208]	; (8003bcc <HAL_TIM_Base_Init+0x114>)
 8003afc:	4282      	cmp	r2, r0
 8003afe:	d014      	beq.n	8003b2a <HAL_TIM_Base_Init+0x72>
 8003b00:	f500 6080 	add.w	r0, r0, #1024	; 0x400
 8003b04:	4282      	cmp	r2, r0
 8003b06:	d010      	beq.n	8003b2a <HAL_TIM_Base_Init+0x72>
 8003b08:	f500 6080 	add.w	r0, r0, #1024	; 0x400
 8003b0c:	4282      	cmp	r2, r0
 8003b0e:	d04e      	beq.n	8003bae <HAL_TIM_Base_Init+0xf6>
 8003b10:	2e00      	cmp	r6, #0
 8003b12:	d14c      	bne.n	8003bae <HAL_TIM_Base_Init+0xf6>
 8003b14:	4d2e      	ldr	r5, [pc, #184]	; (8003bd0 <HAL_TIM_Base_Init+0x118>)
 8003b16:	482f      	ldr	r0, [pc, #188]	; (8003bd4 <HAL_TIM_Base_Init+0x11c>)
 8003b18:	4282      	cmp	r2, r0
 8003b1a:	bf18      	it	ne
 8003b1c:	42aa      	cmpne	r2, r5
 8003b1e:	d008      	beq.n	8003b32 <HAL_TIM_Base_Init+0x7a>
 8003b20:	f500 6080 	add.w	r0, r0, #1024	; 0x400
 8003b24:	4282      	cmp	r2, r0
 8003b26:	d108      	bne.n	8003b3a <HAL_TIM_Base_Init+0x82>
 8003b28:	e003      	b.n	8003b32 <HAL_TIM_Base_Init+0x7a>
 8003b2a:	f023 0370 	bic.w	r3, r3, #112	; 0x70
 8003b2e:	68a0      	ldr	r0, [r4, #8]
 8003b30:	4303      	orrs	r3, r0
 8003b32:	f423 7340 	bic.w	r3, r3, #768	; 0x300
 8003b36:	6920      	ldr	r0, [r4, #16]
 8003b38:	4303      	orrs	r3, r0
 8003b3a:	69a0      	ldr	r0, [r4, #24]
 8003b3c:	f023 0380 	bic.w	r3, r3, #128	; 0x80
 8003b40:	68e5      	ldr	r5, [r4, #12]
 8003b42:	4303      	orrs	r3, r0
 8003b44:	6860      	ldr	r0, [r4, #4]
 8003b46:	6013      	str	r3, [r2, #0]
 8003b48:	62d5      	str	r5, [r2, #44]	; 0x2c
 8003b4a:	6290      	str	r0, [r2, #40]	; 0x28
 8003b4c:	b951      	cbnz	r1, 8003b64 <HAL_TIM_Base_Init+0xac>
 8003b4e:	b94e      	cbnz	r6, 8003b64 <HAL_TIM_Base_Init+0xac>
 8003b50:	491f      	ldr	r1, [pc, #124]	; (8003bd0 <HAL_TIM_Base_Init+0x118>)
 8003b52:	4b20      	ldr	r3, [pc, #128]	; (8003bd4 <HAL_TIM_Base_Init+0x11c>)
 8003b54:	429a      	cmp	r2, r3
 8003b56:	bf18      	it	ne
 8003b58:	428a      	cmpne	r2, r1
 8003b5a:	d003      	beq.n	8003b64 <HAL_TIM_Base_Init+0xac>
 8003b5c:	f503 6380 	add.w	r3, r3, #1024	; 0x400
 8003b60:	429a      	cmp	r2, r3
 8003b62:	d101      	bne.n	8003b68 <HAL_TIM_Base_Init+0xb0>
 8003b64:	6963      	ldr	r3, [r4, #20]
 8003b66:	6313      	str	r3, [r2, #48]	; 0x30
 8003b68:	2301      	movs	r3, #1
 8003b6a:	2000      	movs	r0, #0
 8003b6c:	6153      	str	r3, [r2, #20]
 8003b6e:	f884 3048 	strb.w	r3, [r4, #72]	; 0x48
 8003b72:	f884 303e 	strb.w	r3, [r4, #62]	; 0x3e
 8003b76:	f884 303f 	strb.w	r3, [r4, #63]	; 0x3f
 8003b7a:	f884 3040 	strb.w	r3, [r4, #64]	; 0x40
 8003b7e:	f884 3041 	strb.w	r3, [r4, #65]	; 0x41
 8003b82:	f884 3042 	strb.w	r3, [r4, #66]	; 0x42
 8003b86:	f884 3043 	strb.w	r3, [r4, #67]	; 0x43
 8003b8a:	f884 3044 	strb.w	r3, [r4, #68]	; 0x44
 8003b8e:	f884 3045 	strb.w	r3, [r4, #69]	; 0x45
 8003b92:	f884 3046 	strb.w	r3, [r4, #70]	; 0x46
 8003b96:	f884 3047 	strb.w	r3, [r4, #71]	; 0x47
 8003b9a:	f884 303d 	strb.w	r3, [r4, #61]	; 0x3d
 8003b9e:	bd70      	pop	{r4, r5, r6, pc}
 8003ba0:	f880 203c 	strb.w	r2, [r0, #60]	; 0x3c
 8003ba4:	f7fd fd48 	bl	8001638 <HAL_TIM_Base_MspInit>
 8003ba8:	e790      	b.n	8003acc <HAL_TIM_Base_Init+0x14>
 8003baa:	2001      	movs	r0, #1
 8003bac:	4770      	bx	lr
 8003bae:	480a      	ldr	r0, [pc, #40]	; (8003bd8 <HAL_TIM_Base_Init+0x120>)
 8003bb0:	f023 0370 	bic.w	r3, r3, #112	; 0x70
 8003bb4:	68a5      	ldr	r5, [r4, #8]
 8003bb6:	4282      	cmp	r2, r0
 8003bb8:	ea43 0305 	orr.w	r3, r3, r5
 8003bbc:	d0b9      	beq.n	8003b32 <HAL_TIM_Base_Init+0x7a>
 8003bbe:	2e00      	cmp	r6, #0
 8003bc0:	d1b7      	bne.n	8003b32 <HAL_TIM_Base_Init+0x7a>
 8003bc2:	e7a7      	b.n	8003b14 <HAL_TIM_Base_Init+0x5c>
 8003bc4:	40010000 	.word	0x40010000
 8003bc8:	40010400 	.word	0x40010400
 8003bcc:	40000400 	.word	0x40000400
 8003bd0:	40014000 	.word	0x40014000
 8003bd4:	40014400 	.word	0x40014400
 8003bd8:	40000c00 	.word	0x40000c00

08003bdc <HAL_TIM_Base_Start>:
 8003bdc:	f890 303d 	ldrb.w	r3, [r0, #61]	; 0x3d
 8003be0:	2b01      	cmp	r3, #1
 8003be2:	d001      	beq.n	8003be8 <HAL_TIM_Base_Start+0xc>
 8003be4:	2001      	movs	r0, #1
 8003be6:	4770      	bx	lr
 8003be8:	2102      	movs	r1, #2
 8003bea:	6802      	ldr	r2, [r0, #0]
 8003bec:	4b08      	ldr	r3, [pc, #32]	; (8003c10 <HAL_TIM_Base_Start+0x34>)
 8003bee:	f880 103d 	strb.w	r1, [r0, #61]	; 0x3d
 8003bf2:	6891      	ldr	r1, [r2, #8]
 8003bf4:	400b      	ands	r3, r1
 8003bf6:	2b06      	cmp	r3, #6
 8003bf8:	d008      	beq.n	8003c0c <HAL_TIM_Base_Start+0x30>
 8003bfa:	f5b3 3f80 	cmp.w	r3, #65536	; 0x10000
 8003bfe:	d005      	beq.n	8003c0c <HAL_TIM_Base_Start+0x30>
 8003c00:	6813      	ldr	r3, [r2, #0]
 8003c02:	2000      	movs	r0, #0
 8003c04:	f043 0301 	orr.w	r3, r3, #1
 8003c08:	6013      	str	r3, [r2, #0]
 8003c0a:	4770      	bx	lr
 8003c0c:	2000      	movs	r0, #0
 8003c0e:	4770      	bx	lr
 8003c10:	00010007 	.word	0x00010007

08003c14 <HAL_TIM_ConfigClockSource>:
 8003c14:	f890 303c 	ldrb.w	r3, [r0, #60]	; 0x3c
 8003c18:	2b01      	cmp	r3, #1
 8003c1a:	f000 8081 	beq.w	8003d20 <HAL_TIM_ConfigClockSource+0x10c>
 8003c1e:	4602      	mov	r2, r0
 8003c20:	2002      	movs	r0, #2
 8003c22:	6813      	ldr	r3, [r2, #0]
 8003c24:	b4f0      	push	{r4, r5, r6, r7}
 8003c26:	f882 003d 	strb.w	r0, [r2, #61]	; 0x3d
 8003c2a:	2501      	movs	r5, #1
 8003c2c:	6898      	ldr	r0, [r3, #8]
 8003c2e:	4c56      	ldr	r4, [pc, #344]	; (8003d88 <HAL_TIM_ConfigClockSource+0x174>)
 8003c30:	f882 503c 	strb.w	r5, [r2, #60]	; 0x3c
 8003c34:	4004      	ands	r4, r0
 8003c36:	6808      	ldr	r0, [r1, #0]
 8003c38:	2860      	cmp	r0, #96	; 0x60
 8003c3a:	609c      	str	r4, [r3, #8]
 8003c3c:	d072      	beq.n	8003d24 <HAL_TIM_ConfigClockSource+0x110>
 8003c3e:	d91f      	bls.n	8003c80 <HAL_TIM_ConfigClockSource+0x6c>
 8003c40:	f1b0 1f10 	cmp.w	r0, #1048592	; 0x100010
 8003c44:	f000 808a 	beq.w	8003d5c <HAL_TIM_ConfigClockSource+0x148>
 8003c48:	f200 8090 	bhi.w	8003d6c <HAL_TIM_ConfigClockSource+0x158>
 8003c4c:	f5b0 5f00 	cmp.w	r0, #8192	; 0x2000
 8003c50:	d03d      	beq.n	8003cce <HAL_TIM_ConfigClockSource+0xba>
 8003c52:	f5b0 1f80 	cmp.w	r0, #1048576	; 0x100000
 8003c56:	f000 8081 	beq.w	8003d5c <HAL_TIM_ConfigClockSource+0x148>
 8003c5a:	2870      	cmp	r0, #112	; 0x70
 8003c5c:	d12e      	bne.n	8003cbc <HAL_TIM_ConfigClockSource+0xa8>
 8003c5e:	68cc      	ldr	r4, [r1, #12]
 8003c60:	e9d1 5001 	ldrd	r5, r0, [r1, #4]
 8003c64:	ea40 0105 	orr.w	r1, r0, r5
 8003c68:	6898      	ldr	r0, [r3, #8]
 8003c6a:	ea41 2104 	orr.w	r1, r1, r4, lsl #8
 8003c6e:	f420 407f 	bic.w	r0, r0, #65280	; 0xff00
 8003c72:	4301      	orrs	r1, r0
 8003c74:	6099      	str	r1, [r3, #8]
 8003c76:	6899      	ldr	r1, [r3, #8]
 8003c78:	f041 0177 	orr.w	r1, r1, #119	; 0x77
 8003c7c:	6099      	str	r1, [r3, #8]
 8003c7e:	e01d      	b.n	8003cbc <HAL_TIM_ConfigClockSource+0xa8>
 8003c80:	2820      	cmp	r0, #32
 8003c82:	d06b      	beq.n	8003d5c <HAL_TIM_ConfigClockSource+0x148>
 8003c84:	d967      	bls.n	8003d56 <HAL_TIM_ConfigClockSource+0x142>
 8003c86:	2840      	cmp	r0, #64	; 0x40
 8003c88:	d032      	beq.n	8003cf0 <HAL_TIM_ConfigClockSource+0xdc>
 8003c8a:	2850      	cmp	r0, #80	; 0x50
 8003c8c:	d178      	bne.n	8003d80 <HAL_TIM_ConfigClockSource+0x16c>
 8003c8e:	6a1e      	ldr	r6, [r3, #32]
 8003c90:	6a1d      	ldr	r5, [r3, #32]
 8003c92:	684c      	ldr	r4, [r1, #4]
 8003c94:	f026 060a 	bic.w	r6, r6, #10
 8003c98:	f025 0501 	bic.w	r5, r5, #1
 8003c9c:	68cf      	ldr	r7, [r1, #12]
 8003c9e:	4334      	orrs	r4, r6
 8003ca0:	493a      	ldr	r1, [pc, #232]	; (8003d8c <HAL_TIM_ConfigClockSource+0x178>)
 8003ca2:	621d      	str	r5, [r3, #32]
 8003ca4:	6998      	ldr	r0, [r3, #24]
 8003ca6:	f020 00f0 	bic.w	r0, r0, #240	; 0xf0
 8003caa:	ea40 1007 	orr.w	r0, r0, r7, lsl #4
 8003cae:	6198      	str	r0, [r3, #24]
 8003cb0:	621c      	str	r4, [r3, #32]
 8003cb2:	6898      	ldr	r0, [r3, #8]
 8003cb4:	4001      	ands	r1, r0
 8003cb6:	f041 0157 	orr.w	r1, r1, #87	; 0x57
 8003cba:	6099      	str	r1, [r3, #8]
 8003cbc:	2300      	movs	r3, #0
 8003cbe:	2101      	movs	r1, #1
 8003cc0:	4618      	mov	r0, r3
 8003cc2:	f882 103d 	strb.w	r1, [r2, #61]	; 0x3d
 8003cc6:	f882 303c 	strb.w	r3, [r2, #60]	; 0x3c
 8003cca:	bcf0      	pop	{r4, r5, r6, r7}
 8003ccc:	4770      	bx	lr
 8003cce:	e9d1 5001 	ldrd	r5, r0, [r1, #4]
 8003cd2:	68cc      	ldr	r4, [r1, #12]
 8003cd4:	ea40 0105 	orr.w	r1, r0, r5
 8003cd8:	6898      	ldr	r0, [r3, #8]
 8003cda:	ea41 2104 	orr.w	r1, r1, r4, lsl #8
 8003cde:	f420 407f 	bic.w	r0, r0, #65280	; 0xff00
 8003ce2:	4301      	orrs	r1, r0
 8003ce4:	6099      	str	r1, [r3, #8]
 8003ce6:	6899      	ldr	r1, [r3, #8]
 8003ce8:	f441 4180 	orr.w	r1, r1, #16384	; 0x4000
 8003cec:	6099      	str	r1, [r3, #8]
 8003cee:	e7e5      	b.n	8003cbc <HAL_TIM_ConfigClockSource+0xa8>
 8003cf0:	6a1e      	ldr	r6, [r3, #32]
 8003cf2:	6a1d      	ldr	r5, [r3, #32]
 8003cf4:	684c      	ldr	r4, [r1, #4]
 8003cf6:	f026 060a 	bic.w	r6, r6, #10
 8003cfa:	f025 0501 	bic.w	r5, r5, #1
 8003cfe:	68cf      	ldr	r7, [r1, #12]
 8003d00:	4334      	orrs	r4, r6
 8003d02:	4922      	ldr	r1, [pc, #136]	; (8003d8c <HAL_TIM_ConfigClockSource+0x178>)
 8003d04:	621d      	str	r5, [r3, #32]
 8003d06:	6998      	ldr	r0, [r3, #24]
 8003d08:	f020 00f0 	bic.w	r0, r0, #240	; 0xf0
 8003d0c:	ea40 1007 	orr.w	r0, r0, r7, lsl #4
 8003d10:	6198      	str	r0, [r3, #24]
 8003d12:	621c      	str	r4, [r3, #32]
 8003d14:	6898      	ldr	r0, [r3, #8]
 8003d16:	4001      	ands	r1, r0
 8003d18:	f041 0147 	orr.w	r1, r1, #71	; 0x47
 8003d1c:	6099      	str	r1, [r3, #8]
 8003d1e:	e7cd      	b.n	8003cbc <HAL_TIM_ConfigClockSource+0xa8>
 8003d20:	2002      	movs	r0, #2
 8003d22:	4770      	bx	lr
 8003d24:	6a1d      	ldr	r5, [r3, #32]
 8003d26:	684e      	ldr	r6, [r1, #4]
 8003d28:	f025 0510 	bic.w	r5, r5, #16
 8003d2c:	68cf      	ldr	r7, [r1, #12]
 8003d2e:	4917      	ldr	r1, [pc, #92]	; (8003d8c <HAL_TIM_ConfigClockSource+0x178>)
 8003d30:	621d      	str	r5, [r3, #32]
 8003d32:	699c      	ldr	r4, [r3, #24]
 8003d34:	6a18      	ldr	r0, [r3, #32]
 8003d36:	f424 4470 	bic.w	r4, r4, #61440	; 0xf000
 8003d3a:	f020 00a0 	bic.w	r0, r0, #160	; 0xa0
 8003d3e:	ea44 3407 	orr.w	r4, r4, r7, lsl #12
 8003d42:	ea40 1006 	orr.w	r0, r0, r6, lsl #4
 8003d46:	619c      	str	r4, [r3, #24]
 8003d48:	6218      	str	r0, [r3, #32]
 8003d4a:	6898      	ldr	r0, [r3, #8]
 8003d4c:	4001      	ands	r1, r0
 8003d4e:	f041 0167 	orr.w	r1, r1, #103	; 0x67
 8003d52:	6099      	str	r1, [r3, #8]
 8003d54:	e7b2      	b.n	8003cbc <HAL_TIM_ConfigClockSource+0xa8>
 8003d56:	b108      	cbz	r0, 8003d5c <HAL_TIM_ConfigClockSource+0x148>
 8003d58:	2810      	cmp	r0, #16
 8003d5a:	d1af      	bne.n	8003cbc <HAL_TIM_ConfigClockSource+0xa8>
 8003d5c:	689c      	ldr	r4, [r3, #8]
 8003d5e:	f040 0007 	orr.w	r0, r0, #7
 8003d62:	490a      	ldr	r1, [pc, #40]	; (8003d8c <HAL_TIM_ConfigClockSource+0x178>)
 8003d64:	4021      	ands	r1, r4
 8003d66:	4308      	orrs	r0, r1
 8003d68:	6098      	str	r0, [r3, #8]
 8003d6a:	e7a7      	b.n	8003cbc <HAL_TIM_ConfigClockSource+0xa8>
 8003d6c:	4908      	ldr	r1, [pc, #32]	; (8003d90 <HAL_TIM_ConfigClockSource+0x17c>)
 8003d6e:	4288      	cmp	r0, r1
 8003d70:	d0f4      	beq.n	8003d5c <HAL_TIM_ConfigClockSource+0x148>
 8003d72:	3110      	adds	r1, #16
 8003d74:	4288      	cmp	r0, r1
 8003d76:	d0f1      	beq.n	8003d5c <HAL_TIM_ConfigClockSource+0x148>
 8003d78:	3920      	subs	r1, #32
 8003d7a:	4288      	cmp	r0, r1
 8003d7c:	d19e      	bne.n	8003cbc <HAL_TIM_ConfigClockSource+0xa8>
 8003d7e:	e7ed      	b.n	8003d5c <HAL_TIM_ConfigClockSource+0x148>
 8003d80:	2830      	cmp	r0, #48	; 0x30
 8003d82:	d19b      	bne.n	8003cbc <HAL_TIM_ConfigClockSource+0xa8>
 8003d84:	e7ea      	b.n	8003d5c <HAL_TIM_ConfigClockSource+0x148>
 8003d86:	bf00      	nop
 8003d88:	ffce0088 	.word	0xffce0088
 8003d8c:	ffcfff8f 	.word	0xffcfff8f
 8003d90:	00100030 	.word	0x00100030

08003d94 <HAL_TIMEx_MasterConfigSynchronization>:
 8003d94:	f890 303c 	ldrb.w	r3, [r0, #60]	; 0x3c
 8003d98:	2b01      	cmp	r3, #1
 8003d9a:	d045      	beq.n	8003e28 <HAL_TIMEx_MasterConfigSynchronization+0x94>
 8003d9c:	6803      	ldr	r3, [r0, #0]
 8003d9e:	4a24      	ldr	r2, [pc, #144]	; (8003e30 <HAL_TIMEx_MasterConfigSynchronization+0x9c>)
 8003da0:	b4f0      	push	{r4, r5, r6, r7}
 8003da2:	4e24      	ldr	r6, [pc, #144]	; (8003e34 <HAL_TIMEx_MasterConfigSynchronization+0xa0>)
 8003da4:	2502      	movs	r5, #2
 8003da6:	2401      	movs	r4, #1
 8003da8:	4293      	cmp	r3, r2
 8003daa:	bf18      	it	ne
 8003dac:	42b3      	cmpne	r3, r6
 8003dae:	f880 503d 	strb.w	r5, [r0, #61]	; 0x3d
 8003db2:	f880 403c 	strb.w	r4, [r0, #60]	; 0x3c
 8003db6:	bf08      	it	eq
 8003db8:	2601      	moveq	r6, #1
 8003dba:	685c      	ldr	r4, [r3, #4]
 8003dbc:	bf18      	it	ne
 8003dbe:	2600      	movne	r6, #0
 8003dc0:	689d      	ldr	r5, [r3, #8]
 8003dc2:	d103      	bne.n	8003dcc <HAL_TIMEx_MasterConfigSynchronization+0x38>
 8003dc4:	f424 0470 	bic.w	r4, r4, #15728640	; 0xf00000
 8003dc8:	684a      	ldr	r2, [r1, #4]
 8003dca:	4314      	orrs	r4, r2
 8003dcc:	4a1a      	ldr	r2, [pc, #104]	; (8003e38 <HAL_TIMEx_MasterConfigSynchronization+0xa4>)
 8003dce:	f024 0470 	bic.w	r4, r4, #112	; 0x70
 8003dd2:	680f      	ldr	r7, [r1, #0]
 8003dd4:	4293      	cmp	r3, r2
 8003dd6:	bf18      	it	ne
 8003dd8:	f1b3 4f80 	cmpne.w	r3, #1073741824	; 0x40000000
 8003ddc:	f8df c064 	ldr.w	ip, [pc, #100]	; 8003e44 <HAL_TIMEx_MasterConfigSynchronization+0xb0>
 8003de0:	ea44 0407 	orr.w	r4, r4, r7
 8003de4:	4f15      	ldr	r7, [pc, #84]	; (8003e3c <HAL_TIMEx_MasterConfigSynchronization+0xa8>)
 8003de6:	bf0c      	ite	eq
 8003de8:	2201      	moveq	r2, #1
 8003dea:	2200      	movne	r2, #0
 8003dec:	605c      	str	r4, [r3, #4]
 8003dee:	4563      	cmp	r3, ip
 8003df0:	bf08      	it	eq
 8003df2:	f042 0201 	orreq.w	r2, r2, #1
 8003df6:	4c12      	ldr	r4, [pc, #72]	; (8003e40 <HAL_TIMEx_MasterConfigSynchronization+0xac>)
 8003df8:	42bb      	cmp	r3, r7
 8003dfa:	bf08      	it	eq
 8003dfc:	f042 0201 	orreq.w	r2, r2, #1
 8003e00:	42a3      	cmp	r3, r4
 8003e02:	bf08      	it	eq
 8003e04:	f042 0201 	orreq.w	r2, r2, #1
 8003e08:	b902      	cbnz	r2, 8003e0c <HAL_TIMEx_MasterConfigSynchronization+0x78>
 8003e0a:	b126      	cbz	r6, 8003e16 <HAL_TIMEx_MasterConfigSynchronization+0x82>
 8003e0c:	688a      	ldr	r2, [r1, #8]
 8003e0e:	f025 0580 	bic.w	r5, r5, #128	; 0x80
 8003e12:	4315      	orrs	r5, r2
 8003e14:	609d      	str	r5, [r3, #8]
 8003e16:	2300      	movs	r3, #0
 8003e18:	2201      	movs	r2, #1
 8003e1a:	f880 303c 	strb.w	r3, [r0, #60]	; 0x3c
 8003e1e:	f880 203d 	strb.w	r2, [r0, #61]	; 0x3d
 8003e22:	4618      	mov	r0, r3
 8003e24:	bcf0      	pop	{r4, r5, r6, r7}
 8003e26:	4770      	bx	lr
 8003e28:	2202      	movs	r2, #2
 8003e2a:	4610      	mov	r0, r2
 8003e2c:	4770      	bx	lr
 8003e2e:	bf00      	nop
 8003e30:	40010400 	.word	0x40010400
 8003e34:	40010000 	.word	0x40010000
 8003e38:	40000400 	.word	0x40000400
 8003e3c:	40000c00 	.word	0x40000c00
 8003e40:	40001800 	.word	0x40001800
 8003e44:	40000800 	.word	0x40000800

08003e48 <UART_TxISR_16BIT>:
 8003e48:	f8d0 3080 	ldr.w	r3, [r0, #128]	; 0x80
 8003e4c:	2b21      	cmp	r3, #33	; 0x21
 8003e4e:	d000      	beq.n	8003e52 <UART_TxISR_16BIT+0xa>
 8003e50:	4770      	bx	lr
 8003e52:	f8b0 3056 	ldrh.w	r3, [r0, #86]	; 0x56
 8003e56:	6802      	ldr	r2, [r0, #0]
 8003e58:	b29b      	uxth	r3, r3
 8003e5a:	b16b      	cbz	r3, 8003e78 <UART_TxISR_16BIT+0x30>
 8003e5c:	6d01      	ldr	r1, [r0, #80]	; 0x50
 8003e5e:	f831 3b02 	ldrh.w	r3, [r1], #2
 8003e62:	f3c3 0308 	ubfx	r3, r3, #0, #9
 8003e66:	6293      	str	r3, [r2, #40]	; 0x28
 8003e68:	f8b0 3056 	ldrh.w	r3, [r0, #86]	; 0x56
 8003e6c:	6501      	str	r1, [r0, #80]	; 0x50
 8003e6e:	3b01      	subs	r3, #1
 8003e70:	b29b      	uxth	r3, r3
 8003e72:	f8a0 3056 	strh.w	r3, [r0, #86]	; 0x56
 8003e76:	4770      	bx	lr
 8003e78:	6813      	ldr	r3, [r2, #0]
 8003e7a:	f023 0380 	bic.w	r3, r3, #128	; 0x80
 8003e7e:	6013      	str	r3, [r2, #0]
 8003e80:	6813      	ldr	r3, [r2, #0]
 8003e82:	f043 0340 	orr.w	r3, r3, #64	; 0x40
 8003e86:	6013      	str	r3, [r2, #0]
 8003e88:	4770      	bx	lr
 8003e8a:	bf00      	nop

08003e8c <UART_TxISR_16BIT_FIFOEN>:
 8003e8c:	f8d0 3080 	ldr.w	r3, [r0, #128]	; 0x80
 8003e90:	2b21      	cmp	r3, #33	; 0x21
 8003e92:	d000      	beq.n	8003e96 <UART_TxISR_16BIT_FIFOEN+0xa>
 8003e94:	4770      	bx	lr
 8003e96:	f8b0 306a 	ldrh.w	r3, [r0, #106]	; 0x6a
 8003e9a:	2b00      	cmp	r3, #0
 8003e9c:	d0fa      	beq.n	8003e94 <UART_TxISR_16BIT_FIFOEN+0x8>
 8003e9e:	f8b0 2056 	ldrh.w	r2, [r0, #86]	; 0x56
 8003ea2:	b292      	uxth	r2, r2
 8003ea4:	b410      	push	{r4}
 8003ea6:	6804      	ldr	r4, [r0, #0]
 8003ea8:	b1c2      	cbz	r2, 8003edc <UART_TxISR_16BIT_FIFOEN+0x50>
 8003eaa:	69e2      	ldr	r2, [r4, #28]
 8003eac:	3b01      	subs	r3, #1
 8003eae:	f012 0f80 	tst.w	r2, #128	; 0x80
 8003eb2:	b29b      	uxth	r3, r3
 8003eb4:	d00c      	beq.n	8003ed0 <UART_TxISR_16BIT_FIFOEN+0x44>
 8003eb6:	6d01      	ldr	r1, [r0, #80]	; 0x50
 8003eb8:	f831 2b02 	ldrh.w	r2, [r1], #2
 8003ebc:	f3c2 0208 	ubfx	r2, r2, #0, #9
 8003ec0:	62a2      	str	r2, [r4, #40]	; 0x28
 8003ec2:	f8b0 2056 	ldrh.w	r2, [r0, #86]	; 0x56
 8003ec6:	6501      	str	r1, [r0, #80]	; 0x50
 8003ec8:	3a01      	subs	r2, #1
 8003eca:	b292      	uxth	r2, r2
 8003ecc:	f8a0 2056 	strh.w	r2, [r0, #86]	; 0x56
 8003ed0:	b163      	cbz	r3, 8003eec <UART_TxISR_16BIT_FIFOEN+0x60>
 8003ed2:	f8b0 2056 	ldrh.w	r2, [r0, #86]	; 0x56
 8003ed6:	b292      	uxth	r2, r2
 8003ed8:	2a00      	cmp	r2, #0
 8003eda:	d1e6      	bne.n	8003eaa <UART_TxISR_16BIT_FIFOEN+0x1e>
 8003edc:	68a3      	ldr	r3, [r4, #8]
 8003ede:	f423 0300 	bic.w	r3, r3, #8388608	; 0x800000
 8003ee2:	60a3      	str	r3, [r4, #8]
 8003ee4:	6823      	ldr	r3, [r4, #0]
 8003ee6:	f043 0340 	orr.w	r3, r3, #64	; 0x40
 8003eea:	6023      	str	r3, [r4, #0]
 8003eec:	f85d 4b04 	ldr.w	r4, [sp], #4
 8003ef0:	4770      	bx	lr
 8003ef2:	bf00      	nop

08003ef4 <UART_TxISR_8BIT>:
 8003ef4:	f8d0 3080 	ldr.w	r3, [r0, #128]	; 0x80
 8003ef8:	2b21      	cmp	r3, #33	; 0x21
 8003efa:	d000      	beq.n	8003efe <UART_TxISR_8BIT+0xa>
 8003efc:	4770      	bx	lr
 8003efe:	f8b0 3056 	ldrh.w	r3, [r0, #86]	; 0x56
 8003f02:	6802      	ldr	r2, [r0, #0]
 8003f04:	b29b      	uxth	r3, r3
 8003f06:	b15b      	cbz	r3, 8003f20 <UART_TxISR_8BIT+0x2c>
 8003f08:	6d01      	ldr	r1, [r0, #80]	; 0x50
 8003f0a:	f811 3b01 	ldrb.w	r3, [r1], #1
 8003f0e:	6293      	str	r3, [r2, #40]	; 0x28
 8003f10:	f8b0 3056 	ldrh.w	r3, [r0, #86]	; 0x56
 8003f14:	6501      	str	r1, [r0, #80]	; 0x50
 8003f16:	3b01      	subs	r3, #1
 8003f18:	b29b      	uxth	r3, r3
 8003f1a:	f8a0 3056 	strh.w	r3, [r0, #86]	; 0x56
 8003f1e:	4770      	bx	lr
 8003f20:	6813      	ldr	r3, [r2, #0]
 8003f22:	f023 0380 	bic.w	r3, r3, #128	; 0x80
 8003f26:	6013      	str	r3, [r2, #0]
 8003f28:	6813      	ldr	r3, [r2, #0]
 8003f2a:	f043 0340 	orr.w	r3, r3, #64	; 0x40
 8003f2e:	6013      	str	r3, [r2, #0]
 8003f30:	4770      	bx	lr
 8003f32:	bf00      	nop

08003f34 <UART_TxISR_8BIT_FIFOEN>:
 8003f34:	f8d0 3080 	ldr.w	r3, [r0, #128]	; 0x80
 8003f38:	2b21      	cmp	r3, #33	; 0x21
 8003f3a:	d000      	beq.n	8003f3e <UART_TxISR_8BIT_FIFOEN+0xa>
 8003f3c:	4770      	bx	lr
 8003f3e:	f8b0 306a 	ldrh.w	r3, [r0, #106]	; 0x6a
 8003f42:	2b00      	cmp	r3, #0
 8003f44:	d0fa      	beq.n	8003f3c <UART_TxISR_8BIT_FIFOEN+0x8>
 8003f46:	f8b0 2056 	ldrh.w	r2, [r0, #86]	; 0x56
 8003f4a:	b292      	uxth	r2, r2
 8003f4c:	b410      	push	{r4}
 8003f4e:	6804      	ldr	r4, [r0, #0]
 8003f50:	b1b2      	cbz	r2, 8003f80 <UART_TxISR_8BIT_FIFOEN+0x4c>
 8003f52:	69e2      	ldr	r2, [r4, #28]
 8003f54:	3b01      	subs	r3, #1
 8003f56:	f012 0f80 	tst.w	r2, #128	; 0x80
 8003f5a:	b29b      	uxth	r3, r3
 8003f5c:	d00a      	beq.n	8003f74 <UART_TxISR_8BIT_FIFOEN+0x40>
 8003f5e:	6d01      	ldr	r1, [r0, #80]	; 0x50
 8003f60:	f811 2b01 	ldrb.w	r2, [r1], #1
 8003f64:	62a2      	str	r2, [r4, #40]	; 0x28
 8003f66:	f8b0 2056 	ldrh.w	r2, [r0, #86]	; 0x56
 8003f6a:	6501      	str	r1, [r0, #80]	; 0x50
 8003f6c:	3a01      	subs	r2, #1
 8003f6e:	b292      	uxth	r2, r2
 8003f70:	f8a0 2056 	strh.w	r2, [r0, #86]	; 0x56
 8003f74:	b163      	cbz	r3, 8003f90 <UART_TxISR_8BIT_FIFOEN+0x5c>
 8003f76:	f8b0 2056 	ldrh.w	r2, [r0, #86]	; 0x56
 8003f7a:	b292      	uxth	r2, r2
 8003f7c:	2a00      	cmp	r2, #0
 8003f7e:	d1e8      	bne.n	8003f52 <UART_TxISR_8BIT_FIFOEN+0x1e>
 8003f80:	68a3      	ldr	r3, [r4, #8]
 8003f82:	f423 0300 	bic.w	r3, r3, #8388608	; 0x800000
 8003f86:	60a3      	str	r3, [r4, #8]
 8003f88:	6823      	ldr	r3, [r4, #0]
 8003f8a:	f043 0340 	orr.w	r3, r3, #64	; 0x40
 8003f8e:	6023      	str	r3, [r4, #0]
 8003f90:	f85d 4b04 	ldr.w	r4, [sp], #4
 8003f94:	4770      	bx	lr
 8003f96:	bf00      	nop

08003f98 <HAL_UART_Transmit_IT>:
 8003f98:	4603      	mov	r3, r0
 8003f9a:	f8d0 0080 	ldr.w	r0, [r0, #128]	; 0x80
 8003f9e:	2820      	cmp	r0, #32
 8003fa0:	d12e      	bne.n	8004000 <HAL_UART_Transmit_IT+0x68>
 8003fa2:	b359      	cbz	r1, 8003ffc <HAL_UART_Transmit_IT+0x64>
 8003fa4:	fab2 f082 	clz	r0, r2
 8003fa8:	0940      	lsrs	r0, r0, #5
 8003faa:	bb38      	cbnz	r0, 8003ffc <HAL_UART_Transmit_IT+0x64>
 8003fac:	b430      	push	{r4, r5}
 8003fae:	f893 407c 	ldrb.w	r4, [r3, #124]	; 0x7c
 8003fb2:	2c01      	cmp	r4, #1
 8003fb4:	d035      	beq.n	8004022 <HAL_UART_Transmit_IT+0x8a>
 8003fb6:	6519      	str	r1, [r3, #80]	; 0x50
 8003fb8:	2501      	movs	r5, #1
 8003fba:	6e59      	ldr	r1, [r3, #100]	; 0x64
 8003fbc:	2421      	movs	r4, #33	; 0x21
 8003fbe:	f8a3 2056 	strh.w	r2, [r3, #86]	; 0x56
 8003fc2:	f1b1 5f00 	cmp.w	r1, #536870912	; 0x20000000
 8003fc6:	f8c3 0088 	str.w	r0, [r3, #136]	; 0x88
 8003fca:	f8a3 2054 	strh.w	r2, [r3, #84]	; 0x54
 8003fce:	6718      	str	r0, [r3, #112]	; 0x70
 8003fd0:	f883 507c 	strb.w	r5, [r3, #124]	; 0x7c
 8003fd4:	f8c3 4080 	str.w	r4, [r3, #128]	; 0x80
 8003fd8:	689a      	ldr	r2, [r3, #8]
 8003fda:	d013      	beq.n	8004004 <HAL_UART_Transmit_IT+0x6c>
 8003fdc:	f5b2 5f80 	cmp.w	r2, #4096	; 0x1000
 8003fe0:	d021      	beq.n	8004026 <HAL_UART_Transmit_IT+0x8e>
 8003fe2:	4a18      	ldr	r2, [pc, #96]	; (8004044 <HAL_UART_Transmit_IT+0xac>)
 8003fe4:	6819      	ldr	r1, [r3, #0]
 8003fe6:	2400      	movs	r4, #0
 8003fe8:	671a      	str	r2, [r3, #112]	; 0x70
 8003fea:	680a      	ldr	r2, [r1, #0]
 8003fec:	4620      	mov	r0, r4
 8003fee:	f883 407c 	strb.w	r4, [r3, #124]	; 0x7c
 8003ff2:	f042 0280 	orr.w	r2, r2, #128	; 0x80
 8003ff6:	600a      	str	r2, [r1, #0]
 8003ff8:	bc30      	pop	{r4, r5}
 8003ffa:	4770      	bx	lr
 8003ffc:	2001      	movs	r0, #1
 8003ffe:	4770      	bx	lr
 8004000:	2002      	movs	r0, #2
 8004002:	4770      	bx	lr
 8004004:	f5b2 5f80 	cmp.w	r2, #4096	; 0x1000
 8004008:	d014      	beq.n	8004034 <HAL_UART_Transmit_IT+0x9c>
 800400a:	4a0f      	ldr	r2, [pc, #60]	; (8004048 <HAL_UART_Transmit_IT+0xb0>)
 800400c:	6819      	ldr	r1, [r3, #0]
 800400e:	2400      	movs	r4, #0
 8004010:	671a      	str	r2, [r3, #112]	; 0x70
 8004012:	688a      	ldr	r2, [r1, #8]
 8004014:	4620      	mov	r0, r4
 8004016:	f883 407c 	strb.w	r4, [r3, #124]	; 0x7c
 800401a:	f442 0200 	orr.w	r2, r2, #8388608	; 0x800000
 800401e:	608a      	str	r2, [r1, #8]
 8004020:	e7ea      	b.n	8003ff8 <HAL_UART_Transmit_IT+0x60>
 8004022:	2002      	movs	r0, #2
 8004024:	e7e8      	b.n	8003ff8 <HAL_UART_Transmit_IT+0x60>
 8004026:	6918      	ldr	r0, [r3, #16]
 8004028:	4a06      	ldr	r2, [pc, #24]	; (8004044 <HAL_UART_Transmit_IT+0xac>)
 800402a:	4908      	ldr	r1, [pc, #32]	; (800404c <HAL_UART_Transmit_IT+0xb4>)
 800402c:	2800      	cmp	r0, #0
 800402e:	bf08      	it	eq
 8004030:	460a      	moveq	r2, r1
 8004032:	e7d7      	b.n	8003fe4 <HAL_UART_Transmit_IT+0x4c>
 8004034:	6918      	ldr	r0, [r3, #16]
 8004036:	4a04      	ldr	r2, [pc, #16]	; (8004048 <HAL_UART_Transmit_IT+0xb0>)
 8004038:	4905      	ldr	r1, [pc, #20]	; (8004050 <HAL_UART_Transmit_IT+0xb8>)
 800403a:	2800      	cmp	r0, #0
 800403c:	bf08      	it	eq
 800403e:	460a      	moveq	r2, r1
 8004040:	e7e4      	b.n	800400c <HAL_UART_Transmit_IT+0x74>
 8004042:	bf00      	nop
 8004044:	08003ef5 	.word	0x08003ef5
 8004048:	08003f35 	.word	0x08003f35
 800404c:	08003e49 	.word	0x08003e49
 8004050:	08003e8d 	.word	0x08003e8d

08004054 <HAL_UART_Receive_IT>:
 8004054:	f8d0 3084 	ldr.w	r3, [r0, #132]	; 0x84
 8004058:	2b20      	cmp	r3, #32
 800405a:	d13d      	bne.n	80040d8 <HAL_UART_Receive_IT+0x84>
 800405c:	2900      	cmp	r1, #0
 800405e:	d039      	beq.n	80040d4 <HAL_UART_Receive_IT+0x80>
 8004060:	fab2 f382 	clz	r3, r2
 8004064:	095b      	lsrs	r3, r3, #5
 8004066:	2b00      	cmp	r3, #0
 8004068:	d134      	bne.n	80040d4 <HAL_UART_Receive_IT+0x80>
 800406a:	b470      	push	{r4, r5, r6}
 800406c:	f890 407c 	ldrb.w	r4, [r0, #124]	; 0x7c
 8004070:	2c01      	cmp	r4, #1
 8004072:	d062      	beq.n	800413a <HAL_UART_Receive_IT+0xe6>
 8004074:	6884      	ldr	r4, [r0, #8]
 8004076:	2501      	movs	r5, #1
 8004078:	6581      	str	r1, [r0, #88]	; 0x58
 800407a:	f5b4 5f80 	cmp.w	r4, #4096	; 0x1000
 800407e:	f880 507c 	strb.w	r5, [r0, #124]	; 0x7c
 8004082:	f8a0 205c 	strh.w	r2, [r0, #92]	; 0x5c
 8004086:	f8a0 205e 	strh.w	r2, [r0, #94]	; 0x5e
 800408a:	66c3      	str	r3, [r0, #108]	; 0x6c
 800408c:	6801      	ldr	r1, [r0, #0]
 800408e:	6e45      	ldr	r5, [r0, #100]	; 0x64
 8004090:	d024      	beq.n	80040dc <HAL_UART_Receive_IT+0x88>
 8004092:	2c00      	cmp	r4, #0
 8004094:	d146      	bne.n	8004124 <HAL_UART_Receive_IT+0xd0>
 8004096:	6903      	ldr	r3, [r0, #16]
 8004098:	2b00      	cmp	r3, #0
 800409a:	d066      	beq.n	800416a <HAL_UART_Receive_IT+0x116>
 800409c:	237f      	movs	r3, #127	; 0x7f
 800409e:	f8a0 3060 	strh.w	r3, [r0, #96]	; 0x60
 80040a2:	2400      	movs	r4, #0
 80040a4:	2322      	movs	r3, #34	; 0x22
 80040a6:	f8c0 4088 	str.w	r4, [r0, #136]	; 0x88
 80040aa:	f8c0 3084 	str.w	r3, [r0, #132]	; 0x84
 80040ae:	688b      	ldr	r3, [r1, #8]
 80040b0:	f1b5 5f00 	cmp.w	r5, #536870912	; 0x20000000
 80040b4:	f043 0301 	orr.w	r3, r3, #1
 80040b8:	608b      	str	r3, [r1, #8]
 80040ba:	d020      	beq.n	80040fe <HAL_UART_Receive_IT+0xaa>
 80040bc:	4c31      	ldr	r4, [pc, #196]	; (8004184 <HAL_UART_Receive_IT+0x130>)
 80040be:	680a      	ldr	r2, [r1, #0]
 80040c0:	2300      	movs	r3, #0
 80040c2:	66c4      	str	r4, [r0, #108]	; 0x6c
 80040c4:	f880 307c 	strb.w	r3, [r0, #124]	; 0x7c
 80040c8:	f442 7290 	orr.w	r2, r2, #288	; 0x120
 80040cc:	4618      	mov	r0, r3
 80040ce:	600a      	str	r2, [r1, #0]
 80040d0:	bc70      	pop	{r4, r5, r6}
 80040d2:	4770      	bx	lr
 80040d4:	2001      	movs	r0, #1
 80040d6:	4770      	bx	lr
 80040d8:	2002      	movs	r0, #2
 80040da:	4770      	bx	lr
 80040dc:	6904      	ldr	r4, [r0, #16]
 80040de:	b374      	cbz	r4, 800413e <HAL_UART_Receive_IT+0xea>
 80040e0:	2622      	movs	r6, #34	; 0x22
 80040e2:	f8c0 3088 	str.w	r3, [r0, #136]	; 0x88
 80040e6:	24ff      	movs	r4, #255	; 0xff
 80040e8:	f1b5 5f00 	cmp.w	r5, #536870912	; 0x20000000
 80040ec:	f8c0 6084 	str.w	r6, [r0, #132]	; 0x84
 80040f0:	688b      	ldr	r3, [r1, #8]
 80040f2:	f8a0 4060 	strh.w	r4, [r0, #96]	; 0x60
 80040f6:	f043 0301 	orr.w	r3, r3, #1
 80040fa:	608b      	str	r3, [r1, #8]
 80040fc:	d1de      	bne.n	80040bc <HAL_UART_Receive_IT+0x68>
 80040fe:	f8b0 3068 	ldrh.w	r3, [r0, #104]	; 0x68
 8004102:	4293      	cmp	r3, r2
 8004104:	d8da      	bhi.n	80040bc <HAL_UART_Receive_IT+0x68>
 8004106:	4c20      	ldr	r4, [pc, #128]	; (8004188 <HAL_UART_Receive_IT+0x134>)
 8004108:	680a      	ldr	r2, [r1, #0]
 800410a:	2300      	movs	r3, #0
 800410c:	66c4      	str	r4, [r0, #108]	; 0x6c
 800410e:	f442 7280 	orr.w	r2, r2, #256	; 0x100
 8004112:	f880 307c 	strb.w	r3, [r0, #124]	; 0x7c
 8004116:	4618      	mov	r0, r3
 8004118:	600a      	str	r2, [r1, #0]
 800411a:	688b      	ldr	r3, [r1, #8]
 800411c:	f043 5380 	orr.w	r3, r3, #268435456	; 0x10000000
 8004120:	608b      	str	r3, [r1, #8]
 8004122:	e7d5      	b.n	80040d0 <HAL_UART_Receive_IT+0x7c>
 8004124:	f1b4 5f80 	cmp.w	r4, #268435456	; 0x10000000
 8004128:	d023      	beq.n	8004172 <HAL_UART_Receive_IT+0x11e>
 800412a:	2422      	movs	r4, #34	; 0x22
 800412c:	f8c0 3088 	str.w	r3, [r0, #136]	; 0x88
 8004130:	f8a0 3060 	strh.w	r3, [r0, #96]	; 0x60
 8004134:	f8c0 4084 	str.w	r4, [r0, #132]	; 0x84
 8004138:	e7b9      	b.n	80040ae <HAL_UART_Receive_IT+0x5a>
 800413a:	2002      	movs	r0, #2
 800413c:	e7c8      	b.n	80040d0 <HAL_UART_Receive_IT+0x7c>
 800413e:	2322      	movs	r3, #34	; 0x22
 8004140:	f8c0 4088 	str.w	r4, [r0, #136]	; 0x88
 8004144:	f1b5 5f00 	cmp.w	r5, #536870912	; 0x20000000
 8004148:	f240 14ff 	movw	r4, #511	; 0x1ff
 800414c:	f8c0 3084 	str.w	r3, [r0, #132]	; 0x84
 8004150:	688b      	ldr	r3, [r1, #8]
 8004152:	f8a0 4060 	strh.w	r4, [r0, #96]	; 0x60
 8004156:	f043 0301 	orr.w	r3, r3, #1
 800415a:	608b      	str	r3, [r1, #8]
 800415c:	d103      	bne.n	8004166 <HAL_UART_Receive_IT+0x112>
 800415e:	f8b0 3068 	ldrh.w	r3, [r0, #104]	; 0x68
 8004162:	4293      	cmp	r3, r2
 8004164:	d90c      	bls.n	8004180 <HAL_UART_Receive_IT+0x12c>
 8004166:	4c09      	ldr	r4, [pc, #36]	; (800418c <HAL_UART_Receive_IT+0x138>)
 8004168:	e7a9      	b.n	80040be <HAL_UART_Receive_IT+0x6a>
 800416a:	23ff      	movs	r3, #255	; 0xff
 800416c:	f8a0 3060 	strh.w	r3, [r0, #96]	; 0x60
 8004170:	e797      	b.n	80040a2 <HAL_UART_Receive_IT+0x4e>
 8004172:	6903      	ldr	r3, [r0, #16]
 8004174:	2b00      	cmp	r3, #0
 8004176:	d091      	beq.n	800409c <HAL_UART_Receive_IT+0x48>
 8004178:	233f      	movs	r3, #63	; 0x3f
 800417a:	f8a0 3060 	strh.w	r3, [r0, #96]	; 0x60
 800417e:	e790      	b.n	80040a2 <HAL_UART_Receive_IT+0x4e>
 8004180:	4c03      	ldr	r4, [pc, #12]	; (8004190 <HAL_UART_Receive_IT+0x13c>)
 8004182:	e7c1      	b.n	8004108 <HAL_UART_Receive_IT+0xb4>
 8004184:	08004195 	.word	0x08004195
 8004188:	08004251 	.word	0x08004251
 800418c:	080041f5 	.word	0x080041f5
 8004190:	08004309 	.word	0x08004309

08004194 <UART_RxISR_8BIT>:
 8004194:	f8d0 1084 	ldr.w	r1, [r0, #132]	; 0x84
 8004198:	6802      	ldr	r2, [r0, #0]
 800419a:	2922      	cmp	r1, #34	; 0x22
 800419c:	b538      	push	{r3, r4, r5, lr}
 800419e:	d004      	beq.n	80041aa <UART_RxISR_8BIT+0x16>
 80041a0:	6993      	ldr	r3, [r2, #24]
 80041a2:	f043 0308 	orr.w	r3, r3, #8
 80041a6:	6193      	str	r3, [r2, #24]
 80041a8:	bd38      	pop	{r3, r4, r5, pc}
 80041aa:	6a52      	ldr	r2, [r2, #36]	; 0x24
 80041ac:	f890 4060 	ldrb.w	r4, [r0, #96]	; 0x60
 80041b0:	6d81      	ldr	r1, [r0, #88]	; 0x58
 80041b2:	4022      	ands	r2, r4
 80041b4:	700a      	strb	r2, [r1, #0]
 80041b6:	f8b0 205e 	ldrh.w	r2, [r0, #94]	; 0x5e
 80041ba:	6d81      	ldr	r1, [r0, #88]	; 0x58
 80041bc:	3a01      	subs	r2, #1
 80041be:	3101      	adds	r1, #1
 80041c0:	b292      	uxth	r2, r2
 80041c2:	6581      	str	r1, [r0, #88]	; 0x58
 80041c4:	f8a0 205e 	strh.w	r2, [r0, #94]	; 0x5e
 80041c8:	f8b0 205e 	ldrh.w	r2, [r0, #94]	; 0x5e
 80041cc:	b292      	uxth	r2, r2
 80041ce:	2a00      	cmp	r2, #0
 80041d0:	d1ea      	bne.n	80041a8 <UART_RxISR_8BIT+0x14>
 80041d2:	6801      	ldr	r1, [r0, #0]
 80041d4:	2520      	movs	r5, #32
 80041d6:	680c      	ldr	r4, [r1, #0]
 80041d8:	f424 7490 	bic.w	r4, r4, #288	; 0x120
 80041dc:	600c      	str	r4, [r1, #0]
 80041de:	688c      	ldr	r4, [r1, #8]
 80041e0:	f024 0401 	bic.w	r4, r4, #1
 80041e4:	608c      	str	r4, [r1, #8]
 80041e6:	66c2      	str	r2, [r0, #108]	; 0x6c
 80041e8:	f8c0 5084 	str.w	r5, [r0, #132]	; 0x84
 80041ec:	f7fd f99e 	bl	800152c <HAL_UART_RxCpltCallback>
 80041f0:	bd38      	pop	{r3, r4, r5, pc}
 80041f2:	bf00      	nop

080041f4 <UART_RxISR_16BIT>:
 80041f4:	f8d0 1084 	ldr.w	r1, [r0, #132]	; 0x84
 80041f8:	6802      	ldr	r2, [r0, #0]
 80041fa:	2922      	cmp	r1, #34	; 0x22
 80041fc:	b538      	push	{r3, r4, r5, lr}
 80041fe:	d004      	beq.n	800420a <UART_RxISR_16BIT+0x16>
 8004200:	6993      	ldr	r3, [r2, #24]
 8004202:	f043 0308 	orr.w	r3, r3, #8
 8004206:	6193      	str	r3, [r2, #24]
 8004208:	bd38      	pop	{r3, r4, r5, pc}
 800420a:	6a51      	ldr	r1, [r2, #36]	; 0x24
 800420c:	f8b0 5060 	ldrh.w	r5, [r0, #96]	; 0x60
 8004210:	6d84      	ldr	r4, [r0, #88]	; 0x58
 8004212:	4029      	ands	r1, r5
 8004214:	f824 1b02 	strh.w	r1, [r4], #2
 8004218:	f8b0 105e 	ldrh.w	r1, [r0, #94]	; 0x5e
 800421c:	6584      	str	r4, [r0, #88]	; 0x58
 800421e:	3901      	subs	r1, #1
 8004220:	b289      	uxth	r1, r1
 8004222:	f8a0 105e 	strh.w	r1, [r0, #94]	; 0x5e
 8004226:	f8b0 105e 	ldrh.w	r1, [r0, #94]	; 0x5e
 800422a:	b289      	uxth	r1, r1
 800422c:	2900      	cmp	r1, #0
 800422e:	d1eb      	bne.n	8004208 <UART_RxISR_16BIT+0x14>
 8004230:	6814      	ldr	r4, [r2, #0]
 8004232:	2520      	movs	r5, #32
 8004234:	f424 7490 	bic.w	r4, r4, #288	; 0x120
 8004238:	6014      	str	r4, [r2, #0]
 800423a:	6894      	ldr	r4, [r2, #8]
 800423c:	f024 0401 	bic.w	r4, r4, #1
 8004240:	6094      	str	r4, [r2, #8]
 8004242:	66c1      	str	r1, [r0, #108]	; 0x6c
 8004244:	f8c0 5084 	str.w	r5, [r0, #132]	; 0x84
 8004248:	f7fd f970 	bl	800152c <HAL_UART_RxCpltCallback>
 800424c:	bd38      	pop	{r3, r4, r5, pc}
 800424e:	bf00      	nop

08004250 <UART_RxISR_8BIT_FIFOEN>:
 8004250:	f8d0 3084 	ldr.w	r3, [r0, #132]	; 0x84
 8004254:	2b22      	cmp	r3, #34	; 0x22
 8004256:	d005      	beq.n	8004264 <UART_RxISR_8BIT_FIFOEN+0x14>
 8004258:	6802      	ldr	r2, [r0, #0]
 800425a:	6993      	ldr	r3, [r2, #24]
 800425c:	f043 0308 	orr.w	r3, r3, #8
 8004260:	6193      	str	r3, [r2, #24]
 8004262:	4770      	bx	lr
 8004264:	e92d 41f0 	stmdb	sp!, {r4, r5, r6, r7, r8, lr}
 8004268:	f8b0 5068 	ldrh.w	r5, [r0, #104]	; 0x68
 800426c:	2d00      	cmp	r5, #0
 800426e:	d043      	beq.n	80042f8 <UART_RxISR_8BIT_FIFOEN+0xa8>
 8004270:	4604      	mov	r4, r0
 8004272:	f890 8060 	ldrb.w	r8, [r0, #96]	; 0x60
 8004276:	2720      	movs	r7, #32
 8004278:	4e21      	ldr	r6, [pc, #132]	; (8004300 <UART_RxISR_8BIT_FIFOEN+0xb0>)
 800427a:	e002      	b.n	8004282 <UART_RxISR_8BIT_FIFOEN+0x32>
 800427c:	3d01      	subs	r5, #1
 800427e:	b2ad      	uxth	r5, r5
 8004280:	b32d      	cbz	r5, 80042ce <UART_RxISR_8BIT_FIFOEN+0x7e>
 8004282:	6823      	ldr	r3, [r4, #0]
 8004284:	6da2      	ldr	r2, [r4, #88]	; 0x58
 8004286:	6a5b      	ldr	r3, [r3, #36]	; 0x24
 8004288:	ea08 0303 	and.w	r3, r8, r3
 800428c:	7013      	strb	r3, [r2, #0]
 800428e:	f8b4 305e 	ldrh.w	r3, [r4, #94]	; 0x5e
 8004292:	6da2      	ldr	r2, [r4, #88]	; 0x58
 8004294:	3b01      	subs	r3, #1
 8004296:	3201      	adds	r2, #1
 8004298:	b29b      	uxth	r3, r3
 800429a:	65a2      	str	r2, [r4, #88]	; 0x58
 800429c:	f8a4 305e 	strh.w	r3, [r4, #94]	; 0x5e
 80042a0:	f8b4 305e 	ldrh.w	r3, [r4, #94]	; 0x5e
 80042a4:	b29b      	uxth	r3, r3
 80042a6:	2b00      	cmp	r3, #0
 80042a8:	d1e8      	bne.n	800427c <UART_RxISR_8BIT_FIFOEN+0x2c>
 80042aa:	6822      	ldr	r2, [r4, #0]
 80042ac:	3d01      	subs	r5, #1
 80042ae:	4620      	mov	r0, r4
 80042b0:	6811      	ldr	r1, [r2, #0]
 80042b2:	b2ad      	uxth	r5, r5
 80042b4:	f421 7180 	bic.w	r1, r1, #256	; 0x100
 80042b8:	6011      	str	r1, [r2, #0]
 80042ba:	6891      	ldr	r1, [r2, #8]
 80042bc:	4031      	ands	r1, r6
 80042be:	6091      	str	r1, [r2, #8]
 80042c0:	f8c4 7084 	str.w	r7, [r4, #132]	; 0x84
 80042c4:	66e3      	str	r3, [r4, #108]	; 0x6c
 80042c6:	f7fd f931 	bl	800152c <HAL_UART_RxCpltCallback>
 80042ca:	2d00      	cmp	r5, #0
 80042cc:	d1d9      	bne.n	8004282 <UART_RxISR_8BIT_FIFOEN+0x32>
 80042ce:	f8b4 305e 	ldrh.w	r3, [r4, #94]	; 0x5e
 80042d2:	b29b      	uxth	r3, r3
 80042d4:	b173      	cbz	r3, 80042f4 <UART_RxISR_8BIT_FIFOEN+0xa4>
 80042d6:	f8b4 2068 	ldrh.w	r2, [r4, #104]	; 0x68
 80042da:	429a      	cmp	r2, r3
 80042dc:	d90a      	bls.n	80042f4 <UART_RxISR_8BIT_FIFOEN+0xa4>
 80042de:	6823      	ldr	r3, [r4, #0]
 80042e0:	4908      	ldr	r1, [pc, #32]	; (8004304 <UART_RxISR_8BIT_FIFOEN+0xb4>)
 80042e2:	689a      	ldr	r2, [r3, #8]
 80042e4:	f022 5280 	bic.w	r2, r2, #268435456	; 0x10000000
 80042e8:	609a      	str	r2, [r3, #8]
 80042ea:	681a      	ldr	r2, [r3, #0]
 80042ec:	66e1      	str	r1, [r4, #108]	; 0x6c
 80042ee:	f042 0220 	orr.w	r2, r2, #32
 80042f2:	601a      	str	r2, [r3, #0]
 80042f4:	e8bd 81f0 	ldmia.w	sp!, {r4, r5, r6, r7, r8, pc}
 80042f8:	f8b0 305e 	ldrh.w	r3, [r0, #94]	; 0x5e
 80042fc:	e7fa      	b.n	80042f4 <UART_RxISR_8BIT_FIFOEN+0xa4>
 80042fe:	bf00      	nop
 8004300:	effffffe 	.word	0xeffffffe
 8004304:	08004195 	.word	0x08004195

08004308 <UART_RxISR_16BIT_FIFOEN>:
 8004308:	f8d0 3084 	ldr.w	r3, [r0, #132]	; 0x84
 800430c:	2b22      	cmp	r3, #34	; 0x22
 800430e:	d005      	beq.n	800431c <UART_RxISR_16BIT_FIFOEN+0x14>
 8004310:	6802      	ldr	r2, [r0, #0]
 8004312:	6993      	ldr	r3, [r2, #24]
 8004314:	f043 0308 	orr.w	r3, r3, #8
 8004318:	6193      	str	r3, [r2, #24]
 800431a:	4770      	bx	lr
 800431c:	e92d 41f0 	stmdb	sp!, {r4, r5, r6, r7, r8, lr}
 8004320:	f8b0 5068 	ldrh.w	r5, [r0, #104]	; 0x68
 8004324:	2d00      	cmp	r5, #0
 8004326:	d041      	beq.n	80043ac <UART_RxISR_16BIT_FIFOEN+0xa4>
 8004328:	4604      	mov	r4, r0
 800432a:	f8b0 8060 	ldrh.w	r8, [r0, #96]	; 0x60
 800432e:	2720      	movs	r7, #32
 8004330:	4e20      	ldr	r6, [pc, #128]	; (80043b4 <UART_RxISR_16BIT_FIFOEN+0xac>)
 8004332:	e002      	b.n	800433a <UART_RxISR_16BIT_FIFOEN+0x32>
 8004334:	3d01      	subs	r5, #1
 8004336:	b2ad      	uxth	r5, r5
 8004338:	b31d      	cbz	r5, 8004382 <UART_RxISR_16BIT_FIFOEN+0x7a>
 800433a:	6821      	ldr	r1, [r4, #0]
 800433c:	6da2      	ldr	r2, [r4, #88]	; 0x58
 800433e:	6a4b      	ldr	r3, [r1, #36]	; 0x24
 8004340:	ea08 0303 	and.w	r3, r8, r3
 8004344:	f822 3b02 	strh.w	r3, [r2], #2
 8004348:	f8b4 305e 	ldrh.w	r3, [r4, #94]	; 0x5e
 800434c:	65a2      	str	r2, [r4, #88]	; 0x58
 800434e:	3b01      	subs	r3, #1
 8004350:	b29b      	uxth	r3, r3
 8004352:	f8a4 305e 	strh.w	r3, [r4, #94]	; 0x5e
 8004356:	f8b4 305e 	ldrh.w	r3, [r4, #94]	; 0x5e
 800435a:	b29b      	uxth	r3, r3
 800435c:	2b00      	cmp	r3, #0
 800435e:	d1e9      	bne.n	8004334 <UART_RxISR_16BIT_FIFOEN+0x2c>
 8004360:	680a      	ldr	r2, [r1, #0]
 8004362:	3d01      	subs	r5, #1
 8004364:	4620      	mov	r0, r4
 8004366:	f422 7280 	bic.w	r2, r2, #256	; 0x100
 800436a:	b2ad      	uxth	r5, r5
 800436c:	600a      	str	r2, [r1, #0]
 800436e:	688a      	ldr	r2, [r1, #8]
 8004370:	4032      	ands	r2, r6
 8004372:	608a      	str	r2, [r1, #8]
 8004374:	f8c4 7084 	str.w	r7, [r4, #132]	; 0x84
 8004378:	66e3      	str	r3, [r4, #108]	; 0x6c
 800437a:	f7fd f8d7 	bl	800152c <HAL_UART_RxCpltCallback>
 800437e:	2d00      	cmp	r5, #0
 8004380:	d1db      	bne.n	800433a <UART_RxISR_16BIT_FIFOEN+0x32>
 8004382:	f8b4 305e 	ldrh.w	r3, [r4, #94]	; 0x5e
 8004386:	b29b      	uxth	r3, r3
 8004388:	b173      	cbz	r3, 80043a8 <UART_RxISR_16BIT_FIFOEN+0xa0>
 800438a:	f8b4 2068 	ldrh.w	r2, [r4, #104]	; 0x68
 800438e:	429a      	cmp	r2, r3
 8004390:	d90a      	bls.n	80043a8 <UART_RxISR_16BIT_FIFOEN+0xa0>
 8004392:	6823      	ldr	r3, [r4, #0]
 8004394:	4908      	ldr	r1, [pc, #32]	; (80043b8 <UART_RxISR_16BIT_FIFOEN+0xb0>)
 8004396:	689a      	ldr	r2, [r3, #8]
 8004398:	f022 5280 	bic.w	r2, r2, #268435456	; 0x10000000
 800439c:	609a      	str	r2, [r3, #8]
 800439e:	681a      	ldr	r2, [r3, #0]
 80043a0:	66e1      	str	r1, [r4, #108]	; 0x6c
 80043a2:	f042 0220 	orr.w	r2, r2, #32
 80043a6:	601a      	str	r2, [r3, #0]
 80043a8:	e8bd 81f0 	ldmia.w	sp!, {r4, r5, r6, r7, r8, pc}
 80043ac:	f8b0 305e 	ldrh.w	r3, [r0, #94]	; 0x5e
 80043b0:	e7fa      	b.n	80043a8 <UART_RxISR_16BIT_FIFOEN+0xa0>
 80043b2:	bf00      	nop
 80043b4:	effffffe 	.word	0xeffffffe
 80043b8:	080041f5 	.word	0x080041f5

080043bc <HAL_UART_ErrorCallback>:
 80043bc:	4770      	bx	lr
 80043be:	bf00      	nop

080043c0 <HAL_UART_IRQHandler>:
 80043c0:	6802      	ldr	r2, [r0, #0]
 80043c2:	e92d 41f0 	stmdb	sp!, {r4, r5, r6, r7, r8, lr}
 80043c6:	69d3      	ldr	r3, [r2, #28]
 80043c8:	f640 050f 	movw	r5, #2063	; 0x80f
 80043cc:	4604      	mov	r4, r0
 80043ce:	6810      	ldr	r0, [r2, #0]
 80043d0:	422b      	tst	r3, r5
 80043d2:	6891      	ldr	r1, [r2, #8]
 80043d4:	d070      	beq.n	80044b8 <HAL_UART_IRQHandler+0xf8>
 80043d6:	4d73      	ldr	r5, [pc, #460]	; (80045a4 <HAL_UART_IRQHandler+0x1e4>)
 80043d8:	400d      	ands	r5, r1
 80043da:	f000 808f 	beq.w	80044fc <HAL_UART_IRQHandler+0x13c>
 80043de:	07df      	lsls	r7, r3, #31
 80043e0:	d509      	bpl.n	80043f6 <HAL_UART_IRQHandler+0x36>
 80043e2:	05c6      	lsls	r6, r0, #23
 80043e4:	d507      	bpl.n	80043f6 <HAL_UART_IRQHandler+0x36>
 80043e6:	2601      	movs	r6, #1
 80043e8:	6216      	str	r6, [r2, #32]
 80043ea:	f8d4 6088 	ldr.w	r6, [r4, #136]	; 0x88
 80043ee:	f046 0601 	orr.w	r6, r6, #1
 80043f2:	f8c4 6088 	str.w	r6, [r4, #136]	; 0x88
 80043f6:	079f      	lsls	r7, r3, #30
 80043f8:	f003 0604 	and.w	r6, r3, #4
 80043fc:	f140 8093 	bpl.w	8004526 <HAL_UART_IRQHandler+0x166>
 8004400:	07cf      	lsls	r7, r1, #31
 8004402:	d50a      	bpl.n	800441a <HAL_UART_IRQHandler+0x5a>
 8004404:	2702      	movs	r7, #2
 8004406:	6217      	str	r7, [r2, #32]
 8004408:	f8d4 7088 	ldr.w	r7, [r4, #136]	; 0x88
 800440c:	f047 0704 	orr.w	r7, r7, #4
 8004410:	f8c4 7088 	str.w	r7, [r4, #136]	; 0x88
 8004414:	2e00      	cmp	r6, #0
 8004416:	f040 808c 	bne.w	8004532 <HAL_UART_IRQHandler+0x172>
 800441a:	071f      	lsls	r7, r3, #28
 800441c:	d505      	bpl.n	800442a <HAL_UART_IRQHandler+0x6a>
 800441e:	0686      	lsls	r6, r0, #26
 8004420:	f100 8097 	bmi.w	8004552 <HAL_UART_IRQHandler+0x192>
 8004424:	2d00      	cmp	r5, #0
 8004426:	f040 8094 	bne.w	8004552 <HAL_UART_IRQHandler+0x192>
 800442a:	051f      	lsls	r7, r3, #20
 800442c:	d50a      	bpl.n	8004444 <HAL_UART_IRQHandler+0x84>
 800442e:	0146      	lsls	r6, r0, #5
 8004430:	d508      	bpl.n	8004444 <HAL_UART_IRQHandler+0x84>
 8004432:	f44f 6500 	mov.w	r5, #2048	; 0x800
 8004436:	6215      	str	r5, [r2, #32]
 8004438:	f8d4 5088 	ldr.w	r5, [r4, #136]	; 0x88
 800443c:	f045 0520 	orr.w	r5, r5, #32
 8004440:	f8c4 5088 	str.w	r5, [r4, #136]	; 0x88
 8004444:	f8d4 5088 	ldr.w	r5, [r4, #136]	; 0x88
 8004448:	2d00      	cmp	r5, #0
 800444a:	d06a      	beq.n	8004522 <HAL_UART_IRQHandler+0x162>
 800444c:	069d      	lsls	r5, r3, #26
 800444e:	d507      	bpl.n	8004460 <HAL_UART_IRQHandler+0xa0>
 8004450:	0680      	lsls	r0, r0, #26
 8004452:	f140 808b 	bpl.w	800456c <HAL_UART_IRQHandler+0x1ac>
 8004456:	6ee3      	ldr	r3, [r4, #108]	; 0x6c
 8004458:	b113      	cbz	r3, 8004460 <HAL_UART_IRQHandler+0xa0>
 800445a:	4620      	mov	r0, r4
 800445c:	4798      	blx	r3
 800445e:	6822      	ldr	r2, [r4, #0]
 8004460:	f8d4 5088 	ldr.w	r5, [r4, #136]	; 0x88
 8004464:	6891      	ldr	r1, [r2, #8]
 8004466:	064f      	lsls	r7, r1, #25
 8004468:	d403      	bmi.n	8004472 <HAL_UART_IRQHandler+0xb2>
 800446a:	f015 0528 	ands.w	r5, r5, #40	; 0x28
 800446e:	f000 8093 	beq.w	8004598 <HAL_UART_IRQHandler+0x1d8>
 8004472:	6811      	ldr	r1, [r2, #0]
 8004474:	2520      	movs	r5, #32
 8004476:	4b4c      	ldr	r3, [pc, #304]	; (80045a8 <HAL_UART_IRQHandler+0x1e8>)
 8004478:	2000      	movs	r0, #0
 800447a:	f421 7190 	bic.w	r1, r1, #288	; 0x120
 800447e:	6011      	str	r1, [r2, #0]
 8004480:	6891      	ldr	r1, [r2, #8]
 8004482:	400b      	ands	r3, r1
 8004484:	6093      	str	r3, [r2, #8]
 8004486:	f8c4 5084 	str.w	r5, [r4, #132]	; 0x84
 800448a:	6893      	ldr	r3, [r2, #8]
 800448c:	66e0      	str	r0, [r4, #108]	; 0x6c
 800448e:	065e      	lsls	r6, r3, #25
 8004490:	d568      	bpl.n	8004564 <HAL_UART_IRQHandler+0x1a4>
 8004492:	6893      	ldr	r3, [r2, #8]
 8004494:	6fa1      	ldr	r1, [r4, #120]	; 0x78
 8004496:	f023 0340 	bic.w	r3, r3, #64	; 0x40
 800449a:	6093      	str	r3, [r2, #8]
 800449c:	2900      	cmp	r1, #0
 800449e:	d061      	beq.n	8004564 <HAL_UART_IRQHandler+0x1a4>
 80044a0:	4b42      	ldr	r3, [pc, #264]	; (80045ac <HAL_UART_IRQHandler+0x1ec>)
 80044a2:	4608      	mov	r0, r1
 80044a4:	650b      	str	r3, [r1, #80]	; 0x50
 80044a6:	f7fd fa75 	bl	8001994 <HAL_DMA_Abort_IT>
 80044aa:	2800      	cmp	r0, #0
 80044ac:	d039      	beq.n	8004522 <HAL_UART_IRQHandler+0x162>
 80044ae:	6fa0      	ldr	r0, [r4, #120]	; 0x78
 80044b0:	e8bd 41f0 	ldmia.w	sp!, {r4, r5, r6, r7, r8, lr}
 80044b4:	6d03      	ldr	r3, [r0, #80]	; 0x50
 80044b6:	4718      	bx	r3
 80044b8:	069f      	lsls	r7, r3, #26
 80044ba:	d509      	bpl.n	80044d0 <HAL_UART_IRQHandler+0x110>
 80044bc:	0686      	lsls	r6, r0, #26
 80044be:	d505      	bpl.n	80044cc <HAL_UART_IRQHandler+0x10c>
 80044c0:	6ee3      	ldr	r3, [r4, #108]	; 0x6c
 80044c2:	b373      	cbz	r3, 8004522 <HAL_UART_IRQHandler+0x162>
 80044c4:	4620      	mov	r0, r4
 80044c6:	e8bd 41f0 	ldmia.w	sp!, {r4, r5, r6, r7, r8, lr}
 80044ca:	4718      	bx	r3
 80044cc:	00cd      	lsls	r5, r1, #3
 80044ce:	d4f7      	bmi.n	80044c0 <HAL_UART_IRQHandler+0x100>
 80044d0:	02dd      	lsls	r5, r3, #11
 80044d2:	d409      	bmi.n	80044e8 <HAL_UART_IRQHandler+0x128>
 80044d4:	061e      	lsls	r6, r3, #24
 80044d6:	d51a      	bpl.n	800450e <HAL_UART_IRQHandler+0x14e>
 80044d8:	0605      	lsls	r5, r0, #24
 80044da:	d516      	bpl.n	800450a <HAL_UART_IRQHandler+0x14a>
 80044dc:	6f23      	ldr	r3, [r4, #112]	; 0x70
 80044de:	b303      	cbz	r3, 8004522 <HAL_UART_IRQHandler+0x162>
 80044e0:	4620      	mov	r0, r4
 80044e2:	e8bd 41f0 	ldmia.w	sp!, {r4, r5, r6, r7, r8, lr}
 80044e6:	4718      	bx	r3
 80044e8:	024f      	lsls	r7, r1, #9
 80044ea:	d5f3      	bpl.n	80044d4 <HAL_UART_IRQHandler+0x114>
 80044ec:	f44f 1380 	mov.w	r3, #1048576	; 0x100000
 80044f0:	4620      	mov	r0, r4
 80044f2:	6213      	str	r3, [r2, #32]
 80044f4:	e8bd 41f0 	ldmia.w	sp!, {r4, r5, r6, r7, r8, lr}
 80044f8:	f000 bc64 	b.w	8004dc4 <HAL_UARTEx_WakeupCallback>
 80044fc:	4e2c      	ldr	r6, [pc, #176]	; (80045b0 <HAL_UART_IRQHandler+0x1f0>)
 80044fe:	4230      	tst	r0, r6
 8004500:	d0e6      	beq.n	80044d0 <HAL_UART_IRQHandler+0x110>
 8004502:	07df      	lsls	r7, r3, #31
 8004504:	f57f af77 	bpl.w	80043f6 <HAL_UART_IRQHandler+0x36>
 8004508:	e76b      	b.n	80043e2 <HAL_UART_IRQHandler+0x22>
 800450a:	020f      	lsls	r7, r1, #8
 800450c:	d4e6      	bmi.n	80044dc <HAL_UART_IRQHandler+0x11c>
 800450e:	065e      	lsls	r6, r3, #25
 8004510:	d501      	bpl.n	8004516 <HAL_UART_IRQHandler+0x156>
 8004512:	0645      	lsls	r5, r0, #25
 8004514:	d42e      	bmi.n	8004574 <HAL_UART_IRQHandler+0x1b4>
 8004516:	0219      	lsls	r1, r3, #8
 8004518:	d414      	bmi.n	8004544 <HAL_UART_IRQHandler+0x184>
 800451a:	01db      	lsls	r3, r3, #7
 800451c:	d501      	bpl.n	8004522 <HAL_UART_IRQHandler+0x162>
 800451e:	2800      	cmp	r0, #0
 8004520:	db35      	blt.n	800458e <HAL_UART_IRQHandler+0x1ce>
 8004522:	e8bd 81f0 	ldmia.w	sp!, {r4, r5, r6, r7, r8, pc}
 8004526:	2e00      	cmp	r6, #0
 8004528:	f43f af77 	beq.w	800441a <HAL_UART_IRQHandler+0x5a>
 800452c:	07ce      	lsls	r6, r1, #31
 800452e:	f57f af74 	bpl.w	800441a <HAL_UART_IRQHandler+0x5a>
 8004532:	2604      	movs	r6, #4
 8004534:	6216      	str	r6, [r2, #32]
 8004536:	f8d4 6088 	ldr.w	r6, [r4, #136]	; 0x88
 800453a:	f046 0602 	orr.w	r6, r6, #2
 800453e:	f8c4 6088 	str.w	r6, [r4, #136]	; 0x88
 8004542:	e76a      	b.n	800441a <HAL_UART_IRQHandler+0x5a>
 8004544:	0042      	lsls	r2, r0, #1
 8004546:	d5e8      	bpl.n	800451a <HAL_UART_IRQHandler+0x15a>
 8004548:	4620      	mov	r0, r4
 800454a:	e8bd 41f0 	ldmia.w	sp!, {r4, r5, r6, r7, r8, lr}
 800454e:	f000 bc3d 	b.w	8004dcc <HAL_UARTEx_TxFifoEmptyCallback>
 8004552:	2508      	movs	r5, #8
 8004554:	6215      	str	r5, [r2, #32]
 8004556:	f8d4 5088 	ldr.w	r5, [r4, #136]	; 0x88
 800455a:	f045 0508 	orr.w	r5, r5, #8
 800455e:	f8c4 5088 	str.w	r5, [r4, #136]	; 0x88
 8004562:	e762      	b.n	800442a <HAL_UART_IRQHandler+0x6a>
 8004564:	4620      	mov	r0, r4
 8004566:	f7ff ff29 	bl	80043bc <HAL_UART_ErrorCallback>
 800456a:	e7da      	b.n	8004522 <HAL_UART_IRQHandler+0x162>
 800456c:	00cb      	lsls	r3, r1, #3
 800456e:	f57f af77 	bpl.w	8004460 <HAL_UART_IRQHandler+0xa0>
 8004572:	e770      	b.n	8004456 <HAL_UART_IRQHandler+0x96>
 8004574:	6813      	ldr	r3, [r2, #0]
 8004576:	2520      	movs	r5, #32
 8004578:	2100      	movs	r1, #0
 800457a:	4620      	mov	r0, r4
 800457c:	f023 0340 	bic.w	r3, r3, #64	; 0x40
 8004580:	6013      	str	r3, [r2, #0]
 8004582:	f8c4 5080 	str.w	r5, [r4, #128]	; 0x80
 8004586:	6721      	str	r1, [r4, #112]	; 0x70
 8004588:	f7fc ffca 	bl	8001520 <HAL_UART_TxCpltCallback>
 800458c:	e7c9      	b.n	8004522 <HAL_UART_IRQHandler+0x162>
 800458e:	4620      	mov	r0, r4
 8004590:	e8bd 41f0 	ldmia.w	sp!, {r4, r5, r6, r7, r8, lr}
 8004594:	f000 bc18 	b.w	8004dc8 <HAL_UARTEx_RxFifoFullCallback>
 8004598:	4620      	mov	r0, r4
 800459a:	f7ff ff0f 	bl	80043bc <HAL_UART_ErrorCallback>
 800459e:	f8c4 5088 	str.w	r5, [r4, #136]	; 0x88
 80045a2:	e7be      	b.n	8004522 <HAL_UART_IRQHandler+0x162>
 80045a4:	10000001 	.word	0x10000001
 80045a8:	effffffe 	.word	0xeffffffe
 80045ac:	080045b5 	.word	0x080045b5
 80045b0:	04000120 	.word	0x04000120

080045b4 <UART_DMAAbortOnError>:
 80045b4:	b508      	push	{r3, lr}
 80045b6:	2200      	movs	r2, #0
 80045b8:	6b83      	ldr	r3, [r0, #56]	; 0x38
 80045ba:	f8a3 205e 	strh.w	r2, [r3, #94]	; 0x5e
 80045be:	4618      	mov	r0, r3
 80045c0:	f8a3 2056 	strh.w	r2, [r3, #86]	; 0x56
 80045c4:	f7ff fefa 	bl	80043bc <HAL_UART_ErrorCallback>
 80045c8:	bd08      	pop	{r3, pc}
 80045ca:	bf00      	nop

080045cc <UART_AdvFeatureConfig>:
 80045cc:	6a83      	ldr	r3, [r0, #40]	; 0x28
 80045ce:	07da      	lsls	r2, r3, #31
 80045d0:	b410      	push	{r4}
 80045d2:	d506      	bpl.n	80045e2 <UART_AdvFeatureConfig+0x16>
 80045d4:	6801      	ldr	r1, [r0, #0]
 80045d6:	6ac4      	ldr	r4, [r0, #44]	; 0x2c
 80045d8:	684a      	ldr	r2, [r1, #4]
 80045da:	f422 3200 	bic.w	r2, r2, #131072	; 0x20000
 80045de:	4322      	orrs	r2, r4
 80045e0:	604a      	str	r2, [r1, #4]
 80045e2:	079c      	lsls	r4, r3, #30
 80045e4:	d506      	bpl.n	80045f4 <UART_AdvFeatureConfig+0x28>
 80045e6:	6801      	ldr	r1, [r0, #0]
 80045e8:	6b04      	ldr	r4, [r0, #48]	; 0x30
 80045ea:	684a      	ldr	r2, [r1, #4]
 80045ec:	f422 3280 	bic.w	r2, r2, #65536	; 0x10000
 80045f0:	4322      	orrs	r2, r4
 80045f2:	604a      	str	r2, [r1, #4]
 80045f4:	0759      	lsls	r1, r3, #29
 80045f6:	d506      	bpl.n	8004606 <UART_AdvFeatureConfig+0x3a>
 80045f8:	6801      	ldr	r1, [r0, #0]
 80045fa:	6b44      	ldr	r4, [r0, #52]	; 0x34
 80045fc:	684a      	ldr	r2, [r1, #4]
 80045fe:	f422 2280 	bic.w	r2, r2, #262144	; 0x40000
 8004602:	4322      	orrs	r2, r4
 8004604:	604a      	str	r2, [r1, #4]
 8004606:	071a      	lsls	r2, r3, #28
 8004608:	d506      	bpl.n	8004618 <UART_AdvFeatureConfig+0x4c>
 800460a:	6801      	ldr	r1, [r0, #0]
 800460c:	6b84      	ldr	r4, [r0, #56]	; 0x38
 800460e:	684a      	ldr	r2, [r1, #4]
 8004610:	f422 4200 	bic.w	r2, r2, #32768	; 0x8000
 8004614:	4322      	orrs	r2, r4
 8004616:	604a      	str	r2, [r1, #4]
 8004618:	06dc      	lsls	r4, r3, #27
 800461a:	d506      	bpl.n	800462a <UART_AdvFeatureConfig+0x5e>
 800461c:	6801      	ldr	r1, [r0, #0]
 800461e:	6bc4      	ldr	r4, [r0, #60]	; 0x3c
 8004620:	688a      	ldr	r2, [r1, #8]
 8004622:	f422 5280 	bic.w	r2, r2, #4096	; 0x1000
 8004626:	4322      	orrs	r2, r4
 8004628:	608a      	str	r2, [r1, #8]
 800462a:	0699      	lsls	r1, r3, #26
 800462c:	d506      	bpl.n	800463c <UART_AdvFeatureConfig+0x70>
 800462e:	6801      	ldr	r1, [r0, #0]
 8004630:	6c04      	ldr	r4, [r0, #64]	; 0x40
 8004632:	688a      	ldr	r2, [r1, #8]
 8004634:	f422 5200 	bic.w	r2, r2, #8192	; 0x2000
 8004638:	4322      	orrs	r2, r4
 800463a:	608a      	str	r2, [r1, #8]
 800463c:	065a      	lsls	r2, r3, #25
 800463e:	d50a      	bpl.n	8004656 <UART_AdvFeatureConfig+0x8a>
 8004640:	6801      	ldr	r1, [r0, #0]
 8004642:	6c44      	ldr	r4, [r0, #68]	; 0x44
 8004644:	684a      	ldr	r2, [r1, #4]
 8004646:	f5b4 1f80 	cmp.w	r4, #1048576	; 0x100000
 800464a:	f422 1280 	bic.w	r2, r2, #1048576	; 0x100000
 800464e:	ea42 0204 	orr.w	r2, r2, r4
 8004652:	604a      	str	r2, [r1, #4]
 8004654:	d00b      	beq.n	800466e <UART_AdvFeatureConfig+0xa2>
 8004656:	061b      	lsls	r3, r3, #24
 8004658:	d506      	bpl.n	8004668 <UART_AdvFeatureConfig+0x9c>
 800465a:	6802      	ldr	r2, [r0, #0]
 800465c:	6cc1      	ldr	r1, [r0, #76]	; 0x4c
 800465e:	6853      	ldr	r3, [r2, #4]
 8004660:	f423 2300 	bic.w	r3, r3, #524288	; 0x80000
 8004664:	430b      	orrs	r3, r1
 8004666:	6053      	str	r3, [r2, #4]
 8004668:	f85d 4b04 	ldr.w	r4, [sp], #4
 800466c:	4770      	bx	lr
 800466e:	684a      	ldr	r2, [r1, #4]
 8004670:	6c84      	ldr	r4, [r0, #72]	; 0x48
 8004672:	f422 02c0 	bic.w	r2, r2, #6291456	; 0x600000
 8004676:	4322      	orrs	r2, r4
 8004678:	604a      	str	r2, [r1, #4]
 800467a:	e7ec      	b.n	8004656 <UART_AdvFeatureConfig+0x8a>

0800467c <HAL_UART_Init>:
 800467c:	2800      	cmp	r0, #0
 800467e:	f000 80d2 	beq.w	8004826 <HAL_UART_Init+0x1aa>
 8004682:	f8d0 3080 	ldr.w	r3, [r0, #128]	; 0x80
 8004686:	e92d 43f0 	stmdb	sp!, {r4, r5, r6, r7, r8, r9, lr}
 800468a:	4604      	mov	r4, r0
 800468c:	b087      	sub	sp, #28
 800468e:	2b00      	cmp	r3, #0
 8004690:	d058      	beq.n	8004744 <HAL_UART_Init+0xc8>
 8004692:	6823      	ldr	r3, [r4, #0]
 8004694:	2024      	movs	r0, #36	; 0x24
 8004696:	6921      	ldr	r1, [r4, #16]
 8004698:	68a2      	ldr	r2, [r4, #8]
 800469a:	f8c4 0080 	str.w	r0, [r4, #128]	; 0x80
 800469e:	430a      	orrs	r2, r1
 80046a0:	681d      	ldr	r5, [r3, #0]
 80046a2:	6960      	ldr	r0, [r4, #20]
 80046a4:	69e1      	ldr	r1, [r4, #28]
 80046a6:	f025 0501 	bic.w	r5, r5, #1
 80046aa:	4302      	orrs	r2, r0
 80046ac:	48a1      	ldr	r0, [pc, #644]	; (8004934 <HAL_UART_Init+0x2b8>)
 80046ae:	601d      	str	r5, [r3, #0]
 80046b0:	430a      	orrs	r2, r1
 80046b2:	681e      	ldr	r6, [r3, #0]
 80046b4:	6e65      	ldr	r5, [r4, #100]	; 0x64
 80046b6:	4030      	ands	r0, r6
 80046b8:	68e7      	ldr	r7, [r4, #12]
 80046ba:	432a      	orrs	r2, r5
 80046bc:	f8d4 c018 	ldr.w	ip, [r4, #24]
 80046c0:	4e9d      	ldr	r6, [pc, #628]	; (8004938 <HAL_UART_Init+0x2bc>)
 80046c2:	4302      	orrs	r2, r0
 80046c4:	6a65      	ldr	r5, [r4, #36]	; 0x24
 80046c6:	42b3      	cmp	r3, r6
 80046c8:	601a      	str	r2, [r3, #0]
 80046ca:	685a      	ldr	r2, [r3, #4]
 80046cc:	f422 5240 	bic.w	r2, r2, #12288	; 0x3000
 80046d0:	ea42 0207 	orr.w	r2, r2, r7
 80046d4:	605a      	str	r2, [r3, #4]
 80046d6:	f000 808b 	beq.w	80047f0 <HAL_UART_Init+0x174>
 80046da:	689e      	ldr	r6, [r3, #8]
 80046dc:	6a22      	ldr	r2, [r4, #32]
 80046de:	4897      	ldr	r0, [pc, #604]	; (800493c <HAL_UART_Init+0x2c0>)
 80046e0:	ea4c 0202 	orr.w	r2, ip, r2
 80046e4:	4030      	ands	r0, r6
 80046e6:	4e96      	ldr	r6, [pc, #600]	; (8004940 <HAL_UART_Init+0x2c4>)
 80046e8:	4302      	orrs	r2, r0
 80046ea:	42b3      	cmp	r3, r6
 80046ec:	609a      	str	r2, [r3, #8]
 80046ee:	6ada      	ldr	r2, [r3, #44]	; 0x2c
 80046f0:	f022 020f 	bic.w	r2, r2, #15
 80046f4:	ea42 0205 	orr.w	r2, r2, r5
 80046f8:	62da      	str	r2, [r3, #44]	; 0x2c
 80046fa:	d028      	beq.n	800474e <HAL_UART_Init+0xd2>
 80046fc:	4a91      	ldr	r2, [pc, #580]	; (8004944 <HAL_UART_Init+0x2c8>)
 80046fe:	4293      	cmp	r3, r2
 8004700:	f000 810e 	beq.w	8004920 <HAL_UART_Init+0x2a4>
 8004704:	4a90      	ldr	r2, [pc, #576]	; (8004948 <HAL_UART_Init+0x2cc>)
 8004706:	4293      	cmp	r3, r2
 8004708:	f000 8100 	beq.w	800490c <HAL_UART_Init+0x290>
 800470c:	4a8f      	ldr	r2, [pc, #572]	; (800494c <HAL_UART_Init+0x2d0>)
 800470e:	4293      	cmp	r3, r2
 8004710:	f000 829e 	beq.w	8004c50 <HAL_UART_Init+0x5d4>
 8004714:	4a8e      	ldr	r2, [pc, #568]	; (8004950 <HAL_UART_Init+0x2d4>)
 8004716:	4293      	cmp	r3, r2
 8004718:	f000 82a4 	beq.w	8004c64 <HAL_UART_Init+0x5e8>
 800471c:	4a8d      	ldr	r2, [pc, #564]	; (8004954 <HAL_UART_Init+0x2d8>)
 800471e:	4293      	cmp	r3, r2
 8004720:	f000 82aa 	beq.w	8004c78 <HAL_UART_Init+0x5fc>
 8004724:	4a8c      	ldr	r2, [pc, #560]	; (8004958 <HAL_UART_Init+0x2dc>)
 8004726:	4293      	cmp	r3, r2
 8004728:	f000 82c5 	beq.w	8004cb6 <HAL_UART_Init+0x63a>
 800472c:	4a8b      	ldr	r2, [pc, #556]	; (800495c <HAL_UART_Init+0x2e0>)
 800472e:	4293      	cmp	r3, r2
 8004730:	d16f      	bne.n	8004812 <HAL_UART_Init+0x196>
 8004732:	4b8b      	ldr	r3, [pc, #556]	; (8004960 <HAL_UART_Init+0x2e4>)
 8004734:	6d5b      	ldr	r3, [r3, #84]	; 0x54
 8004736:	f003 0307 	and.w	r3, r3, #7
 800473a:	2b05      	cmp	r3, #5
 800473c:	d869      	bhi.n	8004812 <HAL_UART_Init+0x196>
 800473e:	4a89      	ldr	r2, [pc, #548]	; (8004964 <HAL_UART_Init+0x2e8>)
 8004740:	5cd3      	ldrb	r3, [r2, r3]
 8004742:	e00c      	b.n	800475e <HAL_UART_Init+0xe2>
 8004744:	f880 307c 	strb.w	r3, [r0, #124]	; 0x7c
 8004748:	f7fc ffc4 	bl	80016d4 <HAL_UART_MspInit>
 800474c:	e7a1      	b.n	8004692 <HAL_UART_Init+0x16>
 800474e:	4b84      	ldr	r3, [pc, #528]	; (8004960 <HAL_UART_Init+0x2e4>)
 8004750:	6d5b      	ldr	r3, [r3, #84]	; 0x54
 8004752:	f003 0338 	and.w	r3, r3, #56	; 0x38
 8004756:	2b28      	cmp	r3, #40	; 0x28
 8004758:	d85b      	bhi.n	8004812 <HAL_UART_Init+0x196>
 800475a:	4a83      	ldr	r2, [pc, #524]	; (8004968 <HAL_UART_Init+0x2ec>)
 800475c:	5cd3      	ldrb	r3, [r2, r3]
 800475e:	f5b1 4f00 	cmp.w	r1, #32768	; 0x8000
 8004762:	f000 810f 	beq.w	8004984 <HAL_UART_Init+0x308>
 8004766:	2b40      	cmp	r3, #64	; 0x40
 8004768:	d853      	bhi.n	8004812 <HAL_UART_Init+0x196>
 800476a:	e8df f013 	tbh	[pc, r3, lsl #1]
 800476e:	0209      	.short	0x0209
 8004770:	0052020c 	.word	0x0052020c
 8004774:	02040052 	.word	0x02040052
 8004778:	00520052 	.word	0x00520052
 800477c:	01fc0052 	.word	0x01fc0052
 8004780:	00520052 	.word	0x00520052
 8004784:	00520052 	.word	0x00520052
 8004788:	00520052 	.word	0x00520052
 800478c:	01d00052 	.word	0x01d00052
 8004790:	00520052 	.word	0x00520052
 8004794:	00520052 	.word	0x00520052
 8004798:	00520052 	.word	0x00520052
 800479c:	00520052 	.word	0x00520052
 80047a0:	00520052 	.word	0x00520052
 80047a4:	00520052 	.word	0x00520052
 80047a8:	00520052 	.word	0x00520052
 80047ac:	02120052 	.word	0x02120052
 80047b0:	00520052 	.word	0x00520052
 80047b4:	00520052 	.word	0x00520052
 80047b8:	00520052 	.word	0x00520052
 80047bc:	00520052 	.word	0x00520052
 80047c0:	00520052 	.word	0x00520052
 80047c4:	00520052 	.word	0x00520052
 80047c8:	00520052 	.word	0x00520052
 80047cc:	00520052 	.word	0x00520052
 80047d0:	00520052 	.word	0x00520052
 80047d4:	00520052 	.word	0x00520052
 80047d8:	00520052 	.word	0x00520052
 80047dc:	00520052 	.word	0x00520052
 80047e0:	00520052 	.word	0x00520052
 80047e4:	00520052 	.word	0x00520052
 80047e8:	00520052 	.word	0x00520052
 80047ec:	020f0052 	.word	0x020f0052
 80047f0:	6898      	ldr	r0, [r3, #8]
 80047f2:	4a52      	ldr	r2, [pc, #328]	; (800493c <HAL_UART_Init+0x2c0>)
 80047f4:	495a      	ldr	r1, [pc, #360]	; (8004960 <HAL_UART_Init+0x2e4>)
 80047f6:	4002      	ands	r2, r0
 80047f8:	ea42 020c 	orr.w	r2, r2, ip
 80047fc:	609a      	str	r2, [r3, #8]
 80047fe:	6ada      	ldr	r2, [r3, #44]	; 0x2c
 8004800:	f022 020f 	bic.w	r2, r2, #15
 8004804:	432a      	orrs	r2, r5
 8004806:	62da      	str	r2, [r3, #44]	; 0x2c
 8004808:	6d8b      	ldr	r3, [r1, #88]	; 0x58
 800480a:	f003 0307 	and.w	r3, r3, #7
 800480e:	2b05      	cmp	r3, #5
 8004810:	d90b      	bls.n	800482a <HAL_UART_Init+0x1ae>
 8004812:	2300      	movs	r3, #0
 8004814:	f04f 1201 	mov.w	r2, #65537	; 0x10001
 8004818:	2001      	movs	r0, #1
 800481a:	6723      	str	r3, [r4, #112]	; 0x70
 800481c:	e9c4 231a 	strd	r2, r3, [r4, #104]	; 0x68
 8004820:	b007      	add	sp, #28
 8004822:	e8bd 83f0 	ldmia.w	sp!, {r4, r5, r6, r7, r8, r9, pc}
 8004826:	2001      	movs	r0, #1
 8004828:	4770      	bx	lr
 800482a:	4a50      	ldr	r2, [pc, #320]	; (800496c <HAL_UART_Init+0x2f0>)
 800482c:	5cd3      	ldrb	r3, [r2, r3]
 800482e:	2b08      	cmp	r3, #8
 8004830:	f000 823c 	beq.w	8004cac <HAL_UART_Init+0x630>
 8004834:	f240 822a 	bls.w	8004c8c <HAL_UART_Init+0x610>
 8004838:	2b20      	cmp	r3, #32
 800483a:	f000 81ac 	beq.w	8004b96 <HAL_UART_Init+0x51a>
 800483e:	2b40      	cmp	r3, #64	; 0x40
 8004840:	f000 8245 	beq.w	8004cce <HAL_UART_Init+0x652>
 8004844:	2b10      	cmp	r3, #16
 8004846:	d1e4      	bne.n	8004812 <HAL_UART_Init+0x196>
 8004848:	680b      	ldr	r3, [r1, #0]
 800484a:	069f      	lsls	r7, r3, #26
 800484c:	f140 8242 	bpl.w	8004cd4 <HAL_UART_Init+0x658>
 8004850:	680b      	ldr	r3, [r1, #0]
 8004852:	4847      	ldr	r0, [pc, #284]	; (8004970 <HAL_UART_Init+0x2f4>)
 8004854:	f3c3 03c1 	ubfx	r3, r3, #3, #2
 8004858:	40d8      	lsrs	r0, r3
 800485a:	4b46      	ldr	r3, [pc, #280]	; (8004974 <HAL_UART_Init+0x2f8>)
 800485c:	6866      	ldr	r6, [r4, #4]
 800485e:	f833 2015 	ldrh.w	r2, [r3, r5, lsl #1]
 8004862:	eb06 0146 	add.w	r1, r6, r6, lsl #1
 8004866:	fbb0 f3f2 	udiv	r3, r0, r2
 800486a:	428b      	cmp	r3, r1
 800486c:	d3d1      	bcc.n	8004812 <HAL_UART_Init+0x196>
 800486e:	ebb3 3f06 	cmp.w	r3, r6, lsl #12
 8004872:	d8ce      	bhi.n	8004812 <HAL_UART_Init+0x196>
 8004874:	2500      	movs	r5, #0
 8004876:	2300      	movs	r3, #0
 8004878:	0877      	lsrs	r7, r6, #1
 800487a:	4629      	mov	r1, r5
 800487c:	f7fb fd88 	bl	8000390 <__aeabi_uldivmod>
 8004880:	4632      	mov	r2, r6
 8004882:	ea4f 2901 	mov.w	r9, r1, lsl #8
 8004886:	462b      	mov	r3, r5
 8004888:	ea4f 2800 	mov.w	r8, r0, lsl #8
 800488c:	ea49 6910 	orr.w	r9, r9, r0, lsr #24
 8004890:	eb18 0007 	adds.w	r0, r8, r7
 8004894:	f149 0100 	adc.w	r1, r9, #0
 8004898:	f7fb fd7a 	bl	8000390 <__aeabi_uldivmod>
 800489c:	4b36      	ldr	r3, [pc, #216]	; (8004978 <HAL_UART_Init+0x2fc>)
 800489e:	f5a0 7240 	sub.w	r2, r0, #768	; 0x300
 80048a2:	429a      	cmp	r2, r3
 80048a4:	d8b5      	bhi.n	8004812 <HAL_UART_Init+0x196>
 80048a6:	6822      	ldr	r2, [r4, #0]
 80048a8:	f04f 1301 	mov.w	r3, #65537	; 0x10001
 80048ac:	60d0      	str	r0, [r2, #12]
 80048ae:	66a3      	str	r3, [r4, #104]	; 0x68
 80048b0:	e9c4 551b 	strd	r5, r5, [r4, #108]	; 0x6c
 80048b4:	6aa3      	ldr	r3, [r4, #40]	; 0x28
 80048b6:	2b00      	cmp	r3, #0
 80048b8:	f040 8151 	bne.w	8004b5e <HAL_UART_Init+0x4e2>
 80048bc:	6823      	ldr	r3, [r4, #0]
 80048be:	2100      	movs	r1, #0
 80048c0:	685a      	ldr	r2, [r3, #4]
 80048c2:	f422 4290 	bic.w	r2, r2, #18432	; 0x4800
 80048c6:	605a      	str	r2, [r3, #4]
 80048c8:	689a      	ldr	r2, [r3, #8]
 80048ca:	f022 022a 	bic.w	r2, r2, #42	; 0x2a
 80048ce:	609a      	str	r2, [r3, #8]
 80048d0:	681a      	ldr	r2, [r3, #0]
 80048d2:	f042 0201 	orr.w	r2, r2, #1
 80048d6:	601a      	str	r2, [r3, #0]
 80048d8:	f8c4 1088 	str.w	r1, [r4, #136]	; 0x88
 80048dc:	f7fc ffcc 	bl	8001878 <HAL_GetTick>
 80048e0:	6823      	ldr	r3, [r4, #0]
 80048e2:	4606      	mov	r6, r0
 80048e4:	681a      	ldr	r2, [r3, #0]
 80048e6:	0711      	lsls	r1, r2, #28
 80048e8:	f100 80d4 	bmi.w	8004a94 <HAL_UART_Init+0x418>
 80048ec:	681a      	ldr	r2, [r3, #0]
 80048ee:	0750      	lsls	r0, r2, #29
 80048f0:	f100 80f9 	bmi.w	8004ae6 <HAL_UART_Init+0x46a>
 80048f4:	2300      	movs	r3, #0
 80048f6:	2220      	movs	r2, #32
 80048f8:	4618      	mov	r0, r3
 80048fa:	f8c4 2080 	str.w	r2, [r4, #128]	; 0x80
 80048fe:	f884 307c 	strb.w	r3, [r4, #124]	; 0x7c
 8004902:	f8c4 2084 	str.w	r2, [r4, #132]	; 0x84
 8004906:	b007      	add	sp, #28
 8004908:	e8bd 83f0 	ldmia.w	sp!, {r4, r5, r6, r7, r8, r9, pc}
 800490c:	4b14      	ldr	r3, [pc, #80]	; (8004960 <HAL_UART_Init+0x2e4>)
 800490e:	6d5b      	ldr	r3, [r3, #84]	; 0x54
 8004910:	f003 0307 	and.w	r3, r3, #7
 8004914:	2b05      	cmp	r3, #5
 8004916:	f63f af7c 	bhi.w	8004812 <HAL_UART_Init+0x196>
 800491a:	4a18      	ldr	r2, [pc, #96]	; (800497c <HAL_UART_Init+0x300>)
 800491c:	5cd3      	ldrb	r3, [r2, r3]
 800491e:	e71e      	b.n	800475e <HAL_UART_Init+0xe2>
 8004920:	4b0f      	ldr	r3, [pc, #60]	; (8004960 <HAL_UART_Init+0x2e4>)
 8004922:	6d5b      	ldr	r3, [r3, #84]	; 0x54
 8004924:	f003 0307 	and.w	r3, r3, #7
 8004928:	2b05      	cmp	r3, #5
 800492a:	f63f af72 	bhi.w	8004812 <HAL_UART_Init+0x196>
 800492e:	4a14      	ldr	r2, [pc, #80]	; (8004980 <HAL_UART_Init+0x304>)
 8004930:	5cd3      	ldrb	r3, [r2, r3]
 8004932:	e714      	b.n	800475e <HAL_UART_Init+0xe2>
 8004934:	cfff69f3 	.word	0xcfff69f3
 8004938:	58000c00 	.word	0x58000c00
 800493c:	11fff4ff 	.word	0x11fff4ff
 8004940:	40011000 	.word	0x40011000
 8004944:	40004400 	.word	0x40004400
 8004948:	40004800 	.word	0x40004800
 800494c:	40004c00 	.word	0x40004c00
 8004950:	40005000 	.word	0x40005000
 8004954:	40011400 	.word	0x40011400
 8004958:	40007800 	.word	0x40007800
 800495c:	40007c00 	.word	0x40007c00
 8004960:	58024400 	.word	0x58024400
 8004964:	080089d4 	.word	0x080089d4
 8004968:	080089a8 	.word	0x080089a8
 800496c:	080089dc 	.word	0x080089dc
 8004970:	03d09000 	.word	0x03d09000
 8004974:	080089e4 	.word	0x080089e4
 8004978:	000ffcff 	.word	0x000ffcff
 800497c:	080089d4 	.word	0x080089d4
 8004980:	080089d4 	.word	0x080089d4
 8004984:	2b40      	cmp	r3, #64	; 0x40
 8004986:	f63f af44 	bhi.w	8004812 <HAL_UART_Init+0x196>
 800498a:	a201      	add	r2, pc, #4	; (adr r2, 8004990 <HAL_UART_Init+0x314>)
 800498c:	f852 f023 	ldr.w	pc, [r2, r3, lsl #2]
 8004990:	08004c07 	.word	0x08004c07
 8004994:	08004c01 	.word	0x08004c01
 8004998:	08004813 	.word	0x08004813
 800499c:	08004813 	.word	0x08004813
 80049a0:	08004c0d 	.word	0x08004c0d
 80049a4:	08004813 	.word	0x08004813
 80049a8:	08004813 	.word	0x08004813
 80049ac:	08004813 	.word	0x08004813
 80049b0:	08004bf3 	.word	0x08004bf3
 80049b4:	08004813 	.word	0x08004813
 80049b8:	08004813 	.word	0x08004813
 80049bc:	08004813 	.word	0x08004813
 80049c0:	08004813 	.word	0x08004813
 80049c4:	08004813 	.word	0x08004813
 80049c8:	08004813 	.word	0x08004813
 80049cc:	08004813 	.word	0x08004813
 80049d0:	08004b9b 	.word	0x08004b9b
 80049d4:	08004813 	.word	0x08004813
 80049d8:	08004813 	.word	0x08004813
 80049dc:	08004813 	.word	0x08004813
 80049e0:	08004813 	.word	0x08004813
 80049e4:	08004813 	.word	0x08004813
 80049e8:	08004813 	.word	0x08004813
 80049ec:	08004813 	.word	0x08004813
 80049f0:	08004813 	.word	0x08004813
 80049f4:	08004813 	.word	0x08004813
 80049f8:	08004813 	.word	0x08004813
 80049fc:	08004813 	.word	0x08004813
 8004a00:	08004813 	.word	0x08004813
 8004a04:	08004813 	.word	0x08004813
 8004a08:	08004813 	.word	0x08004813
 8004a0c:	08004813 	.word	0x08004813
 8004a10:	08004c17 	.word	0x08004c17
 8004a14:	08004813 	.word	0x08004813
 8004a18:	08004813 	.word	0x08004813
 8004a1c:	08004813 	.word	0x08004813
 8004a20:	08004813 	.word	0x08004813
 8004a24:	08004813 	.word	0x08004813
 8004a28:	08004813 	.word	0x08004813
 8004a2c:	08004813 	.word	0x08004813
 8004a30:	08004813 	.word	0x08004813
 8004a34:	08004813 	.word	0x08004813
 8004a38:	08004813 	.word	0x08004813
 8004a3c:	08004813 	.word	0x08004813
 8004a40:	08004813 	.word	0x08004813
 8004a44:	08004813 	.word	0x08004813
 8004a48:	08004813 	.word	0x08004813
 8004a4c:	08004813 	.word	0x08004813
 8004a50:	08004813 	.word	0x08004813
 8004a54:	08004813 	.word	0x08004813
 8004a58:	08004813 	.word	0x08004813
 8004a5c:	08004813 	.word	0x08004813
 8004a60:	08004813 	.word	0x08004813
 8004a64:	08004813 	.word	0x08004813
 8004a68:	08004813 	.word	0x08004813
 8004a6c:	08004813 	.word	0x08004813
 8004a70:	08004813 	.word	0x08004813
 8004a74:	08004813 	.word	0x08004813
 8004a78:	08004813 	.word	0x08004813
 8004a7c:	08004813 	.word	0x08004813
 8004a80:	08004813 	.word	0x08004813
 8004a84:	08004813 	.word	0x08004813
 8004a88:	08004813 	.word	0x08004813
 8004a8c:	08004813 	.word	0x08004813
 8004a90:	08004c1b 	.word	0x08004c1b
 8004a94:	69dd      	ldr	r5, [r3, #28]
 8004a96:	f415 1500 	ands.w	r5, r5, #2097152	; 0x200000
 8004a9a:	f47f af27 	bne.w	80048ec <HAL_UART_Init+0x270>
 8004a9e:	f7fc feeb 	bl	8001878 <HAL_GetTick>
 8004aa2:	1b80      	subs	r0, r0, r6
 8004aa4:	6823      	ldr	r3, [r4, #0]
 8004aa6:	f1b0 7f00 	cmp.w	r0, #33554432	; 0x2000000
 8004aaa:	f080 80c0 	bcs.w	8004c2e <HAL_UART_Init+0x5b2>
 8004aae:	681a      	ldr	r2, [r3, #0]
 8004ab0:	0752      	lsls	r2, r2, #29
 8004ab2:	d5ef      	bpl.n	8004a94 <HAL_UART_Init+0x418>
 8004ab4:	69da      	ldr	r2, [r3, #28]
 8004ab6:	0517      	lsls	r7, r2, #20
 8004ab8:	d5ec      	bpl.n	8004a94 <HAL_UART_Init+0x418>
 8004aba:	f44f 6100 	mov.w	r1, #2048	; 0x800
 8004abe:	2220      	movs	r2, #32
 8004ac0:	2003      	movs	r0, #3
 8004ac2:	6219      	str	r1, [r3, #32]
 8004ac4:	6819      	ldr	r1, [r3, #0]
 8004ac6:	f421 71d0 	bic.w	r1, r1, #416	; 0x1a0
 8004aca:	6019      	str	r1, [r3, #0]
 8004acc:	6899      	ldr	r1, [r3, #8]
 8004ace:	f021 0101 	bic.w	r1, r1, #1
 8004ad2:	6099      	str	r1, [r3, #8]
 8004ad4:	f8c4 2080 	str.w	r2, [r4, #128]	; 0x80
 8004ad8:	f884 507c 	strb.w	r5, [r4, #124]	; 0x7c
 8004adc:	f8c4 2084 	str.w	r2, [r4, #132]	; 0x84
 8004ae0:	f8c4 2088 	str.w	r2, [r4, #136]	; 0x88
 8004ae4:	e69c      	b.n	8004820 <HAL_UART_Init+0x1a4>
 8004ae6:	69dd      	ldr	r5, [r3, #28]
 8004ae8:	f415 0580 	ands.w	r5, r5, #4194304	; 0x400000
 8004aec:	f47f af02 	bne.w	80048f4 <HAL_UART_Init+0x278>
 8004af0:	f7fc fec2 	bl	8001878 <HAL_GetTick>
 8004af4:	1b80      	subs	r0, r0, r6
 8004af6:	6823      	ldr	r3, [r4, #0]
 8004af8:	f1b0 7f00 	cmp.w	r0, #33554432	; 0x2000000
 8004afc:	f080 8097 	bcs.w	8004c2e <HAL_UART_Init+0x5b2>
 8004b00:	681a      	ldr	r2, [r3, #0]
 8004b02:	0751      	lsls	r1, r2, #29
 8004b04:	d5ef      	bpl.n	8004ae6 <HAL_UART_Init+0x46a>
 8004b06:	69da      	ldr	r2, [r3, #28]
 8004b08:	0512      	lsls	r2, r2, #20
 8004b0a:	d5ec      	bpl.n	8004ae6 <HAL_UART_Init+0x46a>
 8004b0c:	e7d5      	b.n	8004aba <HAL_UART_Init+0x43e>
 8004b0e:	4b73      	ldr	r3, [pc, #460]	; (8004cdc <HAL_UART_Init+0x660>)
 8004b10:	681a      	ldr	r2, [r3, #0]
 8004b12:	0690      	lsls	r0, r2, #26
 8004b14:	f140 80d9 	bpl.w	8004cca <HAL_UART_Init+0x64e>
 8004b18:	681b      	ldr	r3, [r3, #0]
 8004b1a:	4871      	ldr	r0, [pc, #452]	; (8004ce0 <HAL_UART_Init+0x664>)
 8004b1c:	f3c3 03c1 	ubfx	r3, r3, #3, #2
 8004b20:	40d8      	lsrs	r0, r3
 8004b22:	4b70      	ldr	r3, [pc, #448]	; (8004ce4 <HAL_UART_Init+0x668>)
 8004b24:	f64f 71ef 	movw	r1, #65519	; 0xffef
 8004b28:	6862      	ldr	r2, [r4, #4]
 8004b2a:	f833 3015 	ldrh.w	r3, [r3, r5, lsl #1]
 8004b2e:	fbb0 f3f3 	udiv	r3, r0, r3
 8004b32:	eb03 0352 	add.w	r3, r3, r2, lsr #1
 8004b36:	fbb3 f3f2 	udiv	r3, r3, r2
 8004b3a:	b29b      	uxth	r3, r3
 8004b3c:	f1a3 0210 	sub.w	r2, r3, #16
 8004b40:	428a      	cmp	r2, r1
 8004b42:	f63f ae66 	bhi.w	8004812 <HAL_UART_Init+0x196>
 8004b46:	6820      	ldr	r0, [r4, #0]
 8004b48:	2200      	movs	r2, #0
 8004b4a:	f04f 1101 	mov.w	r1, #65537	; 0x10001
 8004b4e:	60c3      	str	r3, [r0, #12]
 8004b50:	6aa3      	ldr	r3, [r4, #40]	; 0x28
 8004b52:	6722      	str	r2, [r4, #112]	; 0x70
 8004b54:	e9c4 121a 	strd	r1, r2, [r4, #104]	; 0x68
 8004b58:	2b00      	cmp	r3, #0
 8004b5a:	f43f aeaf 	beq.w	80048bc <HAL_UART_Init+0x240>
 8004b5e:	4620      	mov	r0, r4
 8004b60:	f7ff fd34 	bl	80045cc <UART_AdvFeatureConfig>
 8004b64:	e6aa      	b.n	80048bc <HAL_UART_Init+0x240>
 8004b66:	a803      	add	r0, sp, #12
 8004b68:	f7fe ff0e 	bl	8003988 <HAL_RCCEx_GetPLL3ClockFreq>
 8004b6c:	9804      	ldr	r0, [sp, #16]
 8004b6e:	2800      	cmp	r0, #0
 8004b70:	d056      	beq.n	8004c20 <HAL_UART_Init+0x5a4>
 8004b72:	6a65      	ldr	r5, [r4, #36]	; 0x24
 8004b74:	e7d5      	b.n	8004b22 <HAL_UART_Init+0x4a6>
 8004b76:	4668      	mov	r0, sp
 8004b78:	f7fe fe6e 	bl	8003858 <HAL_RCCEx_GetPLL2ClockFreq>
 8004b7c:	9801      	ldr	r0, [sp, #4]
 8004b7e:	e7f6      	b.n	8004b6e <HAL_UART_Init+0x4f2>
 8004b80:	f7fd fea4 	bl	80028cc <HAL_RCC_GetPCLK1Freq>
 8004b84:	e7f3      	b.n	8004b6e <HAL_UART_Init+0x4f2>
 8004b86:	f7fd ff51 	bl	8002a2c <HAL_RCC_GetPCLK2Freq>
 8004b8a:	e7f0      	b.n	8004b6e <HAL_UART_Init+0x4f2>
 8004b8c:	f44f 4000 	mov.w	r0, #32768	; 0x8000
 8004b90:	e7c7      	b.n	8004b22 <HAL_UART_Init+0x4a6>
 8004b92:	4855      	ldr	r0, [pc, #340]	; (8004ce8 <HAL_UART_Init+0x66c>)
 8004b94:	e7c5      	b.n	8004b22 <HAL_UART_Init+0x4a6>
 8004b96:	4854      	ldr	r0, [pc, #336]	; (8004ce8 <HAL_UART_Init+0x66c>)
 8004b98:	e65f      	b.n	800485a <HAL_UART_Init+0x1de>
 8004b9a:	4b50      	ldr	r3, [pc, #320]	; (8004cdc <HAL_UART_Init+0x660>)
 8004b9c:	681a      	ldr	r2, [r3, #0]
 8004b9e:	0696      	lsls	r6, r2, #26
 8004ba0:	f140 809a 	bpl.w	8004cd8 <HAL_UART_Init+0x65c>
 8004ba4:	681b      	ldr	r3, [r3, #0]
 8004ba6:	484e      	ldr	r0, [pc, #312]	; (8004ce0 <HAL_UART_Init+0x664>)
 8004ba8:	f3c3 03c1 	ubfx	r3, r3, #3, #2
 8004bac:	40d8      	lsrs	r0, r3
 8004bae:	4b4d      	ldr	r3, [pc, #308]	; (8004ce4 <HAL_UART_Init+0x668>)
 8004bb0:	f64f 71ef 	movw	r1, #65519	; 0xffef
 8004bb4:	6862      	ldr	r2, [r4, #4]
 8004bb6:	f833 5015 	ldrh.w	r5, [r3, r5, lsl #1]
 8004bba:	0853      	lsrs	r3, r2, #1
 8004bbc:	fbb0 f0f5 	udiv	r0, r0, r5
 8004bc0:	eb03 0340 	add.w	r3, r3, r0, lsl #1
 8004bc4:	fbb3 f3f2 	udiv	r3, r3, r2
 8004bc8:	b29a      	uxth	r2, r3
 8004bca:	f1a2 0010 	sub.w	r0, r2, #16
 8004bce:	4288      	cmp	r0, r1
 8004bd0:	f63f ae1f 	bhi.w	8004812 <HAL_UART_Init+0x196>
 8004bd4:	f023 030f 	bic.w	r3, r3, #15
 8004bd8:	f3c2 0242 	ubfx	r2, r2, #1, #3
 8004bdc:	2100      	movs	r1, #0
 8004bde:	6825      	ldr	r5, [r4, #0]
 8004be0:	b29b      	uxth	r3, r3
 8004be2:	f04f 1001 	mov.w	r0, #65537	; 0x10001
 8004be6:	4313      	orrs	r3, r2
 8004be8:	60eb      	str	r3, [r5, #12]
 8004bea:	6721      	str	r1, [r4, #112]	; 0x70
 8004bec:	e9c4 011a 	strd	r0, r1, [r4, #104]	; 0x68
 8004bf0:	e660      	b.n	80048b4 <HAL_UART_Init+0x238>
 8004bf2:	a803      	add	r0, sp, #12
 8004bf4:	f7fe fec8 	bl	8003988 <HAL_RCCEx_GetPLL3ClockFreq>
 8004bf8:	9804      	ldr	r0, [sp, #16]
 8004bfa:	b188      	cbz	r0, 8004c20 <HAL_UART_Init+0x5a4>
 8004bfc:	6a65      	ldr	r5, [r4, #36]	; 0x24
 8004bfe:	e7d6      	b.n	8004bae <HAL_UART_Init+0x532>
 8004c00:	f7fd ff14 	bl	8002a2c <HAL_RCC_GetPCLK2Freq>
 8004c04:	e7f9      	b.n	8004bfa <HAL_UART_Init+0x57e>
 8004c06:	f7fd fe61 	bl	80028cc <HAL_RCC_GetPCLK1Freq>
 8004c0a:	e7f6      	b.n	8004bfa <HAL_UART_Init+0x57e>
 8004c0c:	4668      	mov	r0, sp
 8004c0e:	f7fe fe23 	bl	8003858 <HAL_RCCEx_GetPLL2ClockFreq>
 8004c12:	9801      	ldr	r0, [sp, #4]
 8004c14:	e7f1      	b.n	8004bfa <HAL_UART_Init+0x57e>
 8004c16:	4834      	ldr	r0, [pc, #208]	; (8004ce8 <HAL_UART_Init+0x66c>)
 8004c18:	e7c9      	b.n	8004bae <HAL_UART_Init+0x532>
 8004c1a:	f44f 4000 	mov.w	r0, #32768	; 0x8000
 8004c1e:	e7c6      	b.n	8004bae <HAL_UART_Init+0x532>
 8004c20:	2300      	movs	r3, #0
 8004c22:	f04f 1201 	mov.w	r2, #65537	; 0x10001
 8004c26:	6723      	str	r3, [r4, #112]	; 0x70
 8004c28:	e9c4 231a 	strd	r2, r3, [r4, #104]	; 0x68
 8004c2c:	e642      	b.n	80048b4 <HAL_UART_Init+0x238>
 8004c2e:	681a      	ldr	r2, [r3, #0]
 8004c30:	2120      	movs	r1, #32
 8004c32:	2003      	movs	r0, #3
 8004c34:	f422 72d0 	bic.w	r2, r2, #416	; 0x1a0
 8004c38:	601a      	str	r2, [r3, #0]
 8004c3a:	689a      	ldr	r2, [r3, #8]
 8004c3c:	f022 0201 	bic.w	r2, r2, #1
 8004c40:	609a      	str	r2, [r3, #8]
 8004c42:	f8c4 1080 	str.w	r1, [r4, #128]	; 0x80
 8004c46:	f884 507c 	strb.w	r5, [r4, #124]	; 0x7c
 8004c4a:	f8c4 1084 	str.w	r1, [r4, #132]	; 0x84
 8004c4e:	e5e7      	b.n	8004820 <HAL_UART_Init+0x1a4>
 8004c50:	4b22      	ldr	r3, [pc, #136]	; (8004cdc <HAL_UART_Init+0x660>)
 8004c52:	6d5b      	ldr	r3, [r3, #84]	; 0x54
 8004c54:	f003 0307 	and.w	r3, r3, #7
 8004c58:	2b05      	cmp	r3, #5
 8004c5a:	f63f adda 	bhi.w	8004812 <HAL_UART_Init+0x196>
 8004c5e:	4a23      	ldr	r2, [pc, #140]	; (8004cec <HAL_UART_Init+0x670>)
 8004c60:	5cd3      	ldrb	r3, [r2, r3]
 8004c62:	e57c      	b.n	800475e <HAL_UART_Init+0xe2>
 8004c64:	4b1d      	ldr	r3, [pc, #116]	; (8004cdc <HAL_UART_Init+0x660>)
 8004c66:	6d5b      	ldr	r3, [r3, #84]	; 0x54
 8004c68:	f003 0307 	and.w	r3, r3, #7
 8004c6c:	2b05      	cmp	r3, #5
 8004c6e:	f63f add0 	bhi.w	8004812 <HAL_UART_Init+0x196>
 8004c72:	4a1f      	ldr	r2, [pc, #124]	; (8004cf0 <HAL_UART_Init+0x674>)
 8004c74:	5cd3      	ldrb	r3, [r2, r3]
 8004c76:	e572      	b.n	800475e <HAL_UART_Init+0xe2>
 8004c78:	4b18      	ldr	r3, [pc, #96]	; (8004cdc <HAL_UART_Init+0x660>)
 8004c7a:	6d5b      	ldr	r3, [r3, #84]	; 0x54
 8004c7c:	f003 0338 	and.w	r3, r3, #56	; 0x38
 8004c80:	2b28      	cmp	r3, #40	; 0x28
 8004c82:	f63f adc6 	bhi.w	8004812 <HAL_UART_Init+0x196>
 8004c86:	4a1b      	ldr	r2, [pc, #108]	; (8004cf4 <HAL_UART_Init+0x678>)
 8004c88:	5cd3      	ldrb	r3, [r2, r3]
 8004c8a:	e568      	b.n	800475e <HAL_UART_Init+0xe2>
 8004c8c:	2b02      	cmp	r3, #2
 8004c8e:	d00a      	beq.n	8004ca6 <HAL_UART_Init+0x62a>
 8004c90:	2b04      	cmp	r3, #4
 8004c92:	f47f adbe 	bne.w	8004812 <HAL_UART_Init+0x196>
 8004c96:	4668      	mov	r0, sp
 8004c98:	f7fe fdde 	bl	8003858 <HAL_RCCEx_GetPLL2ClockFreq>
 8004c9c:	9801      	ldr	r0, [sp, #4]
 8004c9e:	2800      	cmp	r0, #0
 8004ca0:	d0be      	beq.n	8004c20 <HAL_UART_Init+0x5a4>
 8004ca2:	6a65      	ldr	r5, [r4, #36]	; 0x24
 8004ca4:	e5d9      	b.n	800485a <HAL_UART_Init+0x1de>
 8004ca6:	f7fe fdc5 	bl	8003834 <HAL_RCCEx_GetD3PCLK1Freq>
 8004caa:	e7f8      	b.n	8004c9e <HAL_UART_Init+0x622>
 8004cac:	a803      	add	r0, sp, #12
 8004cae:	f7fe fe6b 	bl	8003988 <HAL_RCCEx_GetPLL3ClockFreq>
 8004cb2:	9804      	ldr	r0, [sp, #16]
 8004cb4:	e7f3      	b.n	8004c9e <HAL_UART_Init+0x622>
 8004cb6:	4b09      	ldr	r3, [pc, #36]	; (8004cdc <HAL_UART_Init+0x660>)
 8004cb8:	6d5b      	ldr	r3, [r3, #84]	; 0x54
 8004cba:	f003 0307 	and.w	r3, r3, #7
 8004cbe:	2b05      	cmp	r3, #5
 8004cc0:	f63f ada7 	bhi.w	8004812 <HAL_UART_Init+0x196>
 8004cc4:	4a0c      	ldr	r2, [pc, #48]	; (8004cf8 <HAL_UART_Init+0x67c>)
 8004cc6:	5cd3      	ldrb	r3, [r2, r3]
 8004cc8:	e549      	b.n	800475e <HAL_UART_Init+0xe2>
 8004cca:	4805      	ldr	r0, [pc, #20]	; (8004ce0 <HAL_UART_Init+0x664>)
 8004ccc:	e729      	b.n	8004b22 <HAL_UART_Init+0x4a6>
 8004cce:	f44f 4000 	mov.w	r0, #32768	; 0x8000
 8004cd2:	e5c2      	b.n	800485a <HAL_UART_Init+0x1de>
 8004cd4:	4802      	ldr	r0, [pc, #8]	; (8004ce0 <HAL_UART_Init+0x664>)
 8004cd6:	e5c0      	b.n	800485a <HAL_UART_Init+0x1de>
 8004cd8:	4801      	ldr	r0, [pc, #4]	; (8004ce0 <HAL_UART_Init+0x664>)
 8004cda:	e768      	b.n	8004bae <HAL_UART_Init+0x532>
 8004cdc:	58024400 	.word	0x58024400
 8004ce0:	03d09000 	.word	0x03d09000
 8004ce4:	080089e4 	.word	0x080089e4
 8004ce8:	003d0900 	.word	0x003d0900
 8004cec:	080089d4 	.word	0x080089d4
 8004cf0:	080089d4 	.word	0x080089d4
 8004cf4:	080089a8 	.word	0x080089a8
 8004cf8:	080089d4 	.word	0x080089d4

08004cfc <UART_CheckIdleState>:
 8004cfc:	2300      	movs	r3, #0
 8004cfe:	b570      	push	{r4, r5, r6, lr}
 8004d00:	4604      	mov	r4, r0
 8004d02:	f8c0 3088 	str.w	r3, [r0, #136]	; 0x88
 8004d06:	f7fc fdb7 	bl	8001878 <HAL_GetTick>
 8004d0a:	4606      	mov	r6, r0
 8004d0c:	6823      	ldr	r3, [r4, #0]
 8004d0e:	681a      	ldr	r2, [r3, #0]
 8004d10:	0710      	lsls	r0, r2, #28
 8004d12:	d40c      	bmi.n	8004d2e <UART_CheckIdleState+0x32>
 8004d14:	681a      	ldr	r2, [r3, #0]
 8004d16:	0750      	lsls	r0, r2, #29
 8004d18:	d430      	bmi.n	8004d7c <UART_CheckIdleState+0x80>
 8004d1a:	2220      	movs	r2, #32
 8004d1c:	2300      	movs	r3, #0
 8004d1e:	f8c4 2080 	str.w	r2, [r4, #128]	; 0x80
 8004d22:	4618      	mov	r0, r3
 8004d24:	f8c4 2084 	str.w	r2, [r4, #132]	; 0x84
 8004d28:	f884 307c 	strb.w	r3, [r4, #124]	; 0x7c
 8004d2c:	bd70      	pop	{r4, r5, r6, pc}
 8004d2e:	69dd      	ldr	r5, [r3, #28]
 8004d30:	f415 1500 	ands.w	r5, r5, #2097152	; 0x200000
 8004d34:	d1ee      	bne.n	8004d14 <UART_CheckIdleState+0x18>
 8004d36:	f7fc fd9f 	bl	8001878 <HAL_GetTick>
 8004d3a:	1b80      	subs	r0, r0, r6
 8004d3c:	6823      	ldr	r3, [r4, #0]
 8004d3e:	f1b0 7f00 	cmp.w	r0, #33554432	; 0x2000000
 8004d42:	d22d      	bcs.n	8004da0 <UART_CheckIdleState+0xa4>
 8004d44:	681a      	ldr	r2, [r3, #0]
 8004d46:	0751      	lsls	r1, r2, #29
 8004d48:	d5f1      	bpl.n	8004d2e <UART_CheckIdleState+0x32>
 8004d4a:	69da      	ldr	r2, [r3, #28]
 8004d4c:	0512      	lsls	r2, r2, #20
 8004d4e:	d5ee      	bpl.n	8004d2e <UART_CheckIdleState+0x32>
 8004d50:	f44f 6100 	mov.w	r1, #2048	; 0x800
 8004d54:	2220      	movs	r2, #32
 8004d56:	2003      	movs	r0, #3
 8004d58:	6219      	str	r1, [r3, #32]
 8004d5a:	6819      	ldr	r1, [r3, #0]
 8004d5c:	f421 71d0 	bic.w	r1, r1, #416	; 0x1a0
 8004d60:	6019      	str	r1, [r3, #0]
 8004d62:	6899      	ldr	r1, [r3, #8]
 8004d64:	f021 0101 	bic.w	r1, r1, #1
 8004d68:	6099      	str	r1, [r3, #8]
 8004d6a:	f8c4 2080 	str.w	r2, [r4, #128]	; 0x80
 8004d6e:	f884 507c 	strb.w	r5, [r4, #124]	; 0x7c
 8004d72:	f8c4 2084 	str.w	r2, [r4, #132]	; 0x84
 8004d76:	f8c4 2088 	str.w	r2, [r4, #136]	; 0x88
 8004d7a:	bd70      	pop	{r4, r5, r6, pc}
 8004d7c:	69dd      	ldr	r5, [r3, #28]
 8004d7e:	f415 0580 	ands.w	r5, r5, #4194304	; 0x400000
 8004d82:	d1ca      	bne.n	8004d1a <UART_CheckIdleState+0x1e>
 8004d84:	f7fc fd78 	bl	8001878 <HAL_GetTick>
 8004d88:	1b80      	subs	r0, r0, r6
 8004d8a:	6823      	ldr	r3, [r4, #0]
 8004d8c:	f1b0 7f00 	cmp.w	r0, #33554432	; 0x2000000
 8004d90:	d206      	bcs.n	8004da0 <UART_CheckIdleState+0xa4>
 8004d92:	681a      	ldr	r2, [r3, #0]
 8004d94:	0751      	lsls	r1, r2, #29
 8004d96:	d5f1      	bpl.n	8004d7c <UART_CheckIdleState+0x80>
 8004d98:	69da      	ldr	r2, [r3, #28]
 8004d9a:	0512      	lsls	r2, r2, #20
 8004d9c:	d5ee      	bpl.n	8004d7c <UART_CheckIdleState+0x80>
 8004d9e:	e7d7      	b.n	8004d50 <UART_CheckIdleState+0x54>
 8004da0:	681a      	ldr	r2, [r3, #0]
 8004da2:	2120      	movs	r1, #32
 8004da4:	2003      	movs	r0, #3
 8004da6:	f422 72d0 	bic.w	r2, r2, #416	; 0x1a0
 8004daa:	601a      	str	r2, [r3, #0]
 8004dac:	689a      	ldr	r2, [r3, #8]
 8004dae:	f022 0201 	bic.w	r2, r2, #1
 8004db2:	609a      	str	r2, [r3, #8]
 8004db4:	f8c4 1080 	str.w	r1, [r4, #128]	; 0x80
 8004db8:	f884 507c 	strb.w	r5, [r4, #124]	; 0x7c
 8004dbc:	f8c4 1084 	str.w	r1, [r4, #132]	; 0x84
 8004dc0:	bd70      	pop	{r4, r5, r6, pc}
 8004dc2:	bf00      	nop

08004dc4 <HAL_UARTEx_WakeupCallback>:
 8004dc4:	4770      	bx	lr
 8004dc6:	bf00      	nop

08004dc8 <HAL_UARTEx_RxFifoFullCallback>:
 8004dc8:	4770      	bx	lr
 8004dca:	bf00      	nop

08004dcc <HAL_UARTEx_TxFifoEmptyCallback>:
 8004dcc:	4770      	bx	lr
 8004dce:	bf00      	nop

08004dd0 <HAL_UARTEx_DisableFifoMode>:
 8004dd0:	f890 207c 	ldrb.w	r2, [r0, #124]	; 0x7c
 8004dd4:	2a01      	cmp	r2, #1
 8004dd6:	d017      	beq.n	8004e08 <HAL_UARTEx_DisableFifoMode+0x38>
 8004dd8:	4603      	mov	r3, r0
 8004dda:	2024      	movs	r0, #36	; 0x24
 8004ddc:	2100      	movs	r1, #0
 8004dde:	681a      	ldr	r2, [r3, #0]
 8004de0:	b470      	push	{r4, r5, r6}
 8004de2:	f8c3 0080 	str.w	r0, [r3, #128]	; 0x80
 8004de6:	2620      	movs	r6, #32
 8004de8:	6814      	ldr	r4, [r2, #0]
 8004dea:	4608      	mov	r0, r1
 8004dec:	6815      	ldr	r5, [r2, #0]
 8004dee:	f024 5400 	bic.w	r4, r4, #536870912	; 0x20000000
 8004df2:	f025 0501 	bic.w	r5, r5, #1
 8004df6:	6015      	str	r5, [r2, #0]
 8004df8:	6659      	str	r1, [r3, #100]	; 0x64
 8004dfa:	6014      	str	r4, [r2, #0]
 8004dfc:	f8c3 6080 	str.w	r6, [r3, #128]	; 0x80
 8004e00:	f883 107c 	strb.w	r1, [r3, #124]	; 0x7c
 8004e04:	bc70      	pop	{r4, r5, r6}
 8004e06:	4770      	bx	lr
 8004e08:	2002      	movs	r0, #2
 8004e0a:	4770      	bx	lr

08004e0c <HAL_UARTEx_SetTxFifoThreshold>:
 8004e0c:	f890 207c 	ldrb.w	r2, [r0, #124]	; 0x7c
 8004e10:	2a01      	cmp	r2, #1
 8004e12:	d046      	beq.n	8004ea2 <HAL_UARTEx_SetTxFifoThreshold+0x96>
 8004e14:	4603      	mov	r3, r0
 8004e16:	2024      	movs	r0, #36	; 0x24
 8004e18:	681a      	ldr	r2, [r3, #0]
 8004e1a:	b4f0      	push	{r4, r5, r6, r7}
 8004e1c:	f8c3 0080 	str.w	r0, [r3, #128]	; 0x80
 8004e20:	b084      	sub	sp, #16
 8004e22:	6814      	ldr	r4, [r2, #0]
 8004e24:	6810      	ldr	r0, [r2, #0]
 8004e26:	4d20      	ldr	r5, [pc, #128]	; (8004ea8 <HAL_UARTEx_SetTxFifoThreshold+0x9c>)
 8004e28:	f020 0001 	bic.w	r0, r0, #1
 8004e2c:	4e1f      	ldr	r6, [pc, #124]	; (8004eac <HAL_UARTEx_SetTxFifoThreshold+0xa0>)
 8004e2e:	9500      	str	r5, [sp, #0]
 8004e30:	f240 1507 	movw	r5, #263	; 0x107
 8004e34:	6010      	str	r0, [r2, #0]
 8004e36:	6890      	ldr	r0, [r2, #8]
 8004e38:	9501      	str	r5, [sp, #4]
 8004e3a:	f105 7580 	add.w	r5, r5, #16777216	; 0x1000000
 8004e3e:	f020 4060 	bic.w	r0, r0, #3758096384	; 0xe0000000
 8004e42:	9602      	str	r6, [sp, #8]
 8004e44:	f105 1501 	add.w	r5, r5, #65537	; 0x10001
 8004e48:	4301      	orrs	r1, r0
 8004e4a:	6e58      	ldr	r0, [r3, #100]	; 0x64
 8004e4c:	9503      	str	r5, [sp, #12]
 8004e4e:	6091      	str	r1, [r2, #8]
 8004e50:	b320      	cbz	r0, 8004e9c <HAL_UARTEx_SetTxFifoThreshold+0x90>
 8004e52:	6895      	ldr	r5, [r2, #8]
 8004e54:	a904      	add	r1, sp, #16
 8004e56:	6896      	ldr	r6, [r2, #8]
 8004e58:	f3c5 6542 	ubfx	r5, r5, #25, #3
 8004e5c:	eb01 7656 	add.w	r6, r1, r6, lsr #29
 8004e60:	440d      	add	r5, r1
 8004e62:	f816 0c10 	ldrb.w	r0, [r6, #-16]
 8004e66:	f815 1c10 	ldrb.w	r1, [r5, #-16]
 8004e6a:	f815 7c08 	ldrb.w	r7, [r5, #-8]
 8004e6e:	0100      	lsls	r0, r0, #4
 8004e70:	0109      	lsls	r1, r1, #4
 8004e72:	f816 5c08 	ldrb.w	r5, [r6, #-8]
 8004e76:	fb91 f1f7 	sdiv	r1, r1, r7
 8004e7a:	fb90 f0f5 	sdiv	r0, r0, r5
 8004e7e:	f8a3 1068 	strh.w	r1, [r3, #104]	; 0x68
 8004e82:	2100      	movs	r1, #0
 8004e84:	f8a3 006a 	strh.w	r0, [r3, #106]	; 0x6a
 8004e88:	2520      	movs	r5, #32
 8004e8a:	4608      	mov	r0, r1
 8004e8c:	6014      	str	r4, [r2, #0]
 8004e8e:	f8c3 5080 	str.w	r5, [r3, #128]	; 0x80
 8004e92:	f883 107c 	strb.w	r1, [r3, #124]	; 0x7c
 8004e96:	b004      	add	sp, #16
 8004e98:	bcf0      	pop	{r4, r5, r6, r7}
 8004e9a:	4770      	bx	lr
 8004e9c:	2101      	movs	r1, #1
 8004e9e:	4608      	mov	r0, r1
 8004ea0:	e7ed      	b.n	8004e7e <HAL_UARTEx_SetTxFifoThreshold+0x72>
 8004ea2:	2002      	movs	r0, #2
 8004ea4:	4770      	bx	lr
 8004ea6:	bf00      	nop
 8004ea8:	03010101 	.word	0x03010101
 8004eac:	04020408 	.word	0x04020408

08004eb0 <HAL_UARTEx_SetRxFifoThreshold>:
 8004eb0:	f890 207c 	ldrb.w	r2, [r0, #124]	; 0x7c
 8004eb4:	2a01      	cmp	r2, #1
 8004eb6:	d046      	beq.n	8004f46 <HAL_UARTEx_SetRxFifoThreshold+0x96>
 8004eb8:	4603      	mov	r3, r0
 8004eba:	2024      	movs	r0, #36	; 0x24
 8004ebc:	681a      	ldr	r2, [r3, #0]
 8004ebe:	b4f0      	push	{r4, r5, r6, r7}
 8004ec0:	f8c3 0080 	str.w	r0, [r3, #128]	; 0x80
 8004ec4:	b084      	sub	sp, #16
 8004ec6:	6814      	ldr	r4, [r2, #0]
 8004ec8:	6810      	ldr	r0, [r2, #0]
 8004eca:	4d20      	ldr	r5, [pc, #128]	; (8004f4c <HAL_UARTEx_SetRxFifoThreshold+0x9c>)
 8004ecc:	f020 0001 	bic.w	r0, r0, #1
 8004ed0:	4e1f      	ldr	r6, [pc, #124]	; (8004f50 <HAL_UARTEx_SetRxFifoThreshold+0xa0>)
 8004ed2:	9500      	str	r5, [sp, #0]
 8004ed4:	f240 1507 	movw	r5, #263	; 0x107
 8004ed8:	6010      	str	r0, [r2, #0]
 8004eda:	6890      	ldr	r0, [r2, #8]
 8004edc:	9501      	str	r5, [sp, #4]
 8004ede:	f105 7580 	add.w	r5, r5, #16777216	; 0x1000000
 8004ee2:	f020 6060 	bic.w	r0, r0, #234881024	; 0xe000000
 8004ee6:	9602      	str	r6, [sp, #8]
 8004ee8:	f105 1501 	add.w	r5, r5, #65537	; 0x10001
 8004eec:	4301      	orrs	r1, r0
 8004eee:	6e58      	ldr	r0, [r3, #100]	; 0x64
 8004ef0:	9503      	str	r5, [sp, #12]
 8004ef2:	6091      	str	r1, [r2, #8]
 8004ef4:	b320      	cbz	r0, 8004f40 <HAL_UARTEx_SetRxFifoThreshold+0x90>
 8004ef6:	6895      	ldr	r5, [r2, #8]
 8004ef8:	a904      	add	r1, sp, #16
 8004efa:	6896      	ldr	r6, [r2, #8]
 8004efc:	f3c5 6542 	ubfx	r5, r5, #25, #3
 8004f00:	eb01 7656 	add.w	r6, r1, r6, lsr #29
 8004f04:	440d      	add	r5, r1
 8004f06:	f816 0c10 	ldrb.w	r0, [r6, #-16]
 8004f0a:	f815 1c10 	ldrb.w	r1, [r5, #-16]
 8004f0e:	f815 7c08 	ldrb.w	r7, [r5, #-8]
 8004f12:	0100      	lsls	r0, r0, #4
 8004f14:	0109      	lsls	r1, r1, #4
 8004f16:	f816 5c08 	ldrb.w	r5, [r6, #-8]
 8004f1a:	fb91 f1f7 	sdiv	r1, r1, r7
 8004f1e:	fb90 f0f5 	sdiv	r0, r0, r5
 8004f22:	f8a3 1068 	strh.w	r1, [r3, #104]	; 0x68
 8004f26:	2100      	movs	r1, #0
 8004f28:	f8a3 006a 	strh.w	r0, [r3, #106]	; 0x6a
 8004f2c:	2520      	movs	r5, #32
 8004f2e:	4608      	mov	r0, r1
 8004f30:	6014      	str	r4, [r2, #0]
 8004f32:	f8c3 5080 	str.w	r5, [r3, #128]	; 0x80
 8004f36:	f883 107c 	strb.w	r1, [r3, #124]	; 0x7c
 8004f3a:	b004      	add	sp, #16
 8004f3c:	bcf0      	pop	{r4, r5, r6, r7}
 8004f3e:	4770      	bx	lr
 8004f40:	2101      	movs	r1, #1
 8004f42:	4608      	mov	r0, r1
 8004f44:	e7ed      	b.n	8004f22 <HAL_UARTEx_SetRxFifoThreshold+0x72>
 8004f46:	2002      	movs	r0, #2
 8004f48:	4770      	bx	lr
 8004f4a:	bf00      	nop
 8004f4c:	03010101 	.word	0x03010101
 8004f50:	04020408 	.word	0x04020408

08004f54 <arm_std_f32>:
 8004f54:	2901      	cmp	r1, #1
 8004f56:	d065      	beq.n	8005024 <arm_std_f32+0xd0>
 8004f58:	eddf 5a39 	vldr	s11, [pc, #228]	; 8005040 <arm_std_f32+0xec>
 8004f5c:	b530      	push	{r4, r5, lr}
 8004f5e:	088d      	lsrs	r5, r1, #2
 8004f60:	b083      	sub	sp, #12
 8004f62:	d062      	beq.n	800502a <arm_std_f32+0xd6>
 8004f64:	eef0 6a65 	vmov.f32	s13, s11
 8004f68:	f100 0310 	add.w	r3, r0, #16
 8004f6c:	462c      	mov	r4, r5
 8004f6e:	ed53 7a04 	vldr	s15, [r3, #-16]
 8004f72:	3c01      	subs	r4, #1
 8004f74:	ed13 7a03 	vldr	s14, [r3, #-12]
 8004f78:	f103 0310 	add.w	r3, r3, #16
 8004f7c:	ee27 4aa7 	vmul.f32	s8, s15, s15
 8004f80:	ed53 4a06 	vldr	s9, [r3, #-24]	; 0xffffffe8
 8004f84:	ee77 6aa6 	vadd.f32	s13, s15, s13
 8004f88:	ed13 6a05 	vldr	s12, [r3, #-20]	; 0xffffffec
 8004f8c:	ee27 5a07 	vmul.f32	s10, s14, s14
 8004f90:	ee74 5a25 	vadd.f32	s11, s8, s11
 8004f94:	ee36 7a87 	vadd.f32	s14, s13, s14
 8004f98:	ee64 6aa4 	vmul.f32	s13, s9, s9
 8004f9c:	ee75 5a25 	vadd.f32	s11, s10, s11
 8004fa0:	ee77 7a24 	vadd.f32	s15, s14, s9
 8004fa4:	ee26 7a06 	vmul.f32	s14, s12, s12
 8004fa8:	ee76 5aa5 	vadd.f32	s11, s13, s11
 8004fac:	ee77 6a86 	vadd.f32	s13, s15, s12
 8004fb0:	ee77 5a25 	vadd.f32	s11, s14, s11
 8004fb4:	d1db      	bne.n	8004f6e <arm_std_f32+0x1a>
 8004fb6:	eb00 1005 	add.w	r0, r0, r5, lsl #4
 8004fba:	f011 0303 	ands.w	r3, r1, #3
 8004fbe:	d009      	beq.n	8004fd4 <arm_std_f32+0x80>
 8004fc0:	ecf0 7a01 	vldmia	r0!, {s15}
 8004fc4:	3b01      	subs	r3, #1
 8004fc6:	ee27 7aa7 	vmul.f32	s14, s15, s15
 8004fca:	ee76 6aa7 	vadd.f32	s13, s13, s15
 8004fce:	ee75 5a87 	vadd.f32	s11, s11, s14
 8004fd2:	d1f5      	bne.n	8004fc0 <arm_std_f32+0x6c>
 8004fd4:	ee07 1a90 	vmov	s15, r1
 8004fd8:	eeb7 6a00 	vmov.f32	s12, #112	; 0x3f800000  1.0
 8004fdc:	eef8 7a67 	vcvt.f32.u32	s15, s15
 8004fe0:	ee86 7aa7 	vdiv.f32	s14, s13, s15
 8004fe4:	ee77 6ac6 	vsub.f32	s13, s15, s12
 8004fe8:	ee87 0aa6 	vdiv.f32	s0, s15, s13
 8004fec:	eec5 7aa6 	vdiv.f32	s15, s11, s13
 8004ff0:	ee27 7a07 	vmul.f32	s14, s14, s14
 8004ff4:	ee27 7a00 	vmul.f32	s14, s14, s0
 8004ff8:	ee37 7ac7 	vsub.f32	s14, s15, s14
 8004ffc:	eeb5 7ac0 	vcmpe.f32	s14, #0.0
 8005000:	eef1 fa10 	vmrs	APSR_nzcv, fpscr
 8005004:	db0a      	blt.n	800501c <arm_std_f32+0xc8>
 8005006:	eeb1 0ac7 	vsqrt.f32	s0, s14
 800500a:	eeb4 0a40 	vcmp.f32	s0, s0
 800500e:	eef1 fa10 	vmrs	APSR_nzcv, fpscr
 8005012:	d10d      	bne.n	8005030 <arm_std_f32+0xdc>
 8005014:	ed82 0a00 	vstr	s0, [r2]
 8005018:	b003      	add	sp, #12
 800501a:	bd30      	pop	{r4, r5, pc}
 800501c:	2300      	movs	r3, #0
 800501e:	6013      	str	r3, [r2, #0]
 8005020:	b003      	add	sp, #12
 8005022:	bd30      	pop	{r4, r5, pc}
 8005024:	2300      	movs	r3, #0
 8005026:	6013      	str	r3, [r2, #0]
 8005028:	4770      	bx	lr
 800502a:	eef0 6a65 	vmov.f32	s13, s11
 800502e:	e7c4      	b.n	8004fba <arm_std_f32+0x66>
 8005030:	eeb0 0a47 	vmov.f32	s0, s14
 8005034:	9201      	str	r2, [sp, #4]
 8005036:	f000 f8df 	bl	80051f8 <sqrtf>
 800503a:	9a01      	ldr	r2, [sp, #4]
 800503c:	e7ea      	b.n	8005014 <arm_std_f32+0xc0>
 800503e:	bf00      	nop
 8005040:	00000000 	.word	0x00000000

08005044 <arm_power_f32>:
 8005044:	b430      	push	{r4, r5}
 8005046:	088d      	lsrs	r5, r1, #2
 8005048:	d031      	beq.n	80050ae <arm_power_f32+0x6a>
 800504a:	f100 0310 	add.w	r3, r0, #16
 800504e:	462c      	mov	r4, r5
 8005050:	ed9f 5a18 	vldr	s10, [pc, #96]	; 80050b4 <arm_power_f32+0x70>
 8005054:	ed53 6a04 	vldr	s13, [r3, #-16]
 8005058:	3c01      	subs	r4, #1
 800505a:	ed13 7a03 	vldr	s14, [r3, #-12]
 800505e:	f103 0310 	add.w	r3, r3, #16
 8005062:	ee26 6aa6 	vmul.f32	s12, s13, s13
 8005066:	ed53 7a06 	vldr	s15, [r3, #-24]	; 0xffffffe8
 800506a:	ee67 6a07 	vmul.f32	s13, s14, s14
 800506e:	ed53 5a05 	vldr	s11, [r3, #-20]	; 0xffffffec
 8005072:	ee27 7aa7 	vmul.f32	s14, s15, s15
 8005076:	ee76 7a05 	vadd.f32	s15, s12, s10
 800507a:	ee65 5aa5 	vmul.f32	s11, s11, s11
 800507e:	ee76 7aa7 	vadd.f32	s15, s13, s15
 8005082:	ee77 7a27 	vadd.f32	s15, s14, s15
 8005086:	ee35 5aa7 	vadd.f32	s10, s11, s15
 800508a:	d1e3      	bne.n	8005054 <arm_power_f32+0x10>
 800508c:	eb00 1005 	add.w	r0, r0, r5, lsl #4
 8005090:	f011 0103 	ands.w	r1, r1, #3
 8005094:	d007      	beq.n	80050a6 <arm_power_f32+0x62>
 8005096:	ecb0 6a01 	vldmia	r0!, {s12}
 800509a:	3901      	subs	r1, #1
 800509c:	ee26 6a06 	vmul.f32	s12, s12, s12
 80050a0:	ee35 5a06 	vadd.f32	s10, s10, s12
 80050a4:	d1f7      	bne.n	8005096 <arm_power_f32+0x52>
 80050a6:	ed82 5a00 	vstr	s10, [r2]
 80050aa:	bc30      	pop	{r4, r5}
 80050ac:	4770      	bx	lr
 80050ae:	ed9f 5a01 	vldr	s10, [pc, #4]	; 80050b4 <arm_power_f32+0x70>
 80050b2:	e7ed      	b.n	8005090 <arm_power_f32+0x4c>
 80050b4:	00000000 	.word	0x00000000

080050b8 <arm_mean_f32>:
 80050b8:	b430      	push	{r4, r5}
 80050ba:	088d      	lsrs	r5, r1, #2
 80050bc:	d02d      	beq.n	800511a <arm_mean_f32+0x62>
 80050be:	f100 0310 	add.w	r3, r0, #16
 80050c2:	462c      	mov	r4, r5
 80050c4:	eddf 7a16 	vldr	s15, [pc, #88]	; 8005120 <arm_mean_f32+0x68>
 80050c8:	ed13 7a04 	vldr	s14, [r3, #-16]
 80050cc:	3c01      	subs	r4, #1
 80050ce:	ed13 6a03 	vldr	s12, [r3, #-12]
 80050d2:	f103 0310 	add.w	r3, r3, #16
 80050d6:	ee37 7a87 	vadd.f32	s14, s15, s14
 80050da:	ed53 7a06 	vldr	s15, [r3, #-24]	; 0xffffffe8
 80050de:	ed53 6a05 	vldr	s13, [r3, #-20]	; 0xffffffec
 80050e2:	ee37 7a06 	vadd.f32	s14, s14, s12
 80050e6:	ee77 7a27 	vadd.f32	s15, s14, s15
 80050ea:	ee77 7aa6 	vadd.f32	s15, s15, s13
 80050ee:	d1eb      	bne.n	80050c8 <arm_mean_f32+0x10>
 80050f0:	eb00 1005 	add.w	r0, r0, r5, lsl #4
 80050f4:	f011 0303 	ands.w	r3, r1, #3
 80050f8:	d005      	beq.n	8005106 <arm_mean_f32+0x4e>
 80050fa:	ecb0 7a01 	vldmia	r0!, {s14}
 80050fe:	3b01      	subs	r3, #1
 8005100:	ee77 7a87 	vadd.f32	s15, s15, s14
 8005104:	d1f9      	bne.n	80050fa <arm_mean_f32+0x42>
 8005106:	ee07 1a10 	vmov	s14, r1
 800510a:	eeb8 7a47 	vcvt.f32.u32	s14, s14
 800510e:	bc30      	pop	{r4, r5}
 8005110:	eec7 6a87 	vdiv.f32	s13, s15, s14
 8005114:	edc2 6a00 	vstr	s13, [r2]
 8005118:	4770      	bx	lr
 800511a:	eddf 7a01 	vldr	s15, [pc, #4]	; 8005120 <arm_mean_f32+0x68>
 800511e:	e7e9      	b.n	80050f4 <arm_mean_f32+0x3c>
 8005120:	00000000 	.word	0x00000000

08005124 <arm_max_f32>:
 8005124:	e92d 47f0 	stmdb	sp!, {r4, r5, r6, r7, r8, r9, sl, lr}
 8005128:	1e4d      	subs	r5, r1, #1
 800512a:	f100 0c04 	add.w	ip, r0, #4
 800512e:	edd0 7a00 	vldr	s15, [r0]
 8005132:	ea5f 0995 	movs.w	r9, r5, lsr #2
 8005136:	d056      	beq.n	80051e6 <arm_max_f32+0xc2>
 8005138:	3014      	adds	r0, #20
 800513a:	46c8      	mov	r8, r9
 800513c:	2404      	movs	r4, #4
 800513e:	2600      	movs	r6, #0
 8005140:	ed10 6a04 	vldr	s12, [r0, #-16]
 8005144:	f1a4 0a03 	sub.w	sl, r4, #3
 8005148:	ed50 6a03 	vldr	s13, [r0, #-12]
 800514c:	f1a4 0e02 	sub.w	lr, r4, #2
 8005150:	eeb4 6ae7 	vcmpe.f32	s12, s15
 8005154:	ed10 7a02 	vldr	s14, [r0, #-8]
 8005158:	ed50 5a01 	vldr	s11, [r0, #-4]
 800515c:	1e67      	subs	r7, r4, #1
 800515e:	3010      	adds	r0, #16
 8005160:	eef1 fa10 	vmrs	APSR_nzcv, fpscr
 8005164:	bfc8      	it	gt
 8005166:	eef0 7a46 	vmovgt.f32	s15, s12
 800516a:	bfc8      	it	gt
 800516c:	4656      	movgt	r6, sl
 800516e:	eef4 7ae6 	vcmpe.f32	s15, s13
 8005172:	eef1 fa10 	vmrs	APSR_nzcv, fpscr
 8005176:	bf48      	it	mi
 8005178:	eef0 7a66 	vmovmi.f32	s15, s13
 800517c:	bf48      	it	mi
 800517e:	4676      	movmi	r6, lr
 8005180:	eef4 7ac7 	vcmpe.f32	s15, s14
 8005184:	eef1 fa10 	vmrs	APSR_nzcv, fpscr
 8005188:	bf48      	it	mi
 800518a:	eef0 7a47 	vmovmi.f32	s15, s14
 800518e:	bf48      	it	mi
 8005190:	463e      	movmi	r6, r7
 8005192:	eef4 7ae5 	vcmpe.f32	s15, s11
 8005196:	eef1 fa10 	vmrs	APSR_nzcv, fpscr
 800519a:	bf48      	it	mi
 800519c:	4626      	movmi	r6, r4
 800519e:	bf48      	it	mi
 80051a0:	eef0 7a65 	vmovmi.f32	s15, s11
 80051a4:	f1b8 0801 	subs.w	r8, r8, #1
 80051a8:	f104 0404 	add.w	r4, r4, #4
 80051ac:	d1c8      	bne.n	8005140 <arm_max_f32+0x1c>
 80051ae:	eb0c 1c09 	add.w	ip, ip, r9, lsl #4
 80051b2:	f015 0003 	ands.w	r0, r5, #3
 80051b6:	d018      	beq.n	80051ea <arm_max_f32+0xc6>
 80051b8:	1a08      	subs	r0, r1, r0
 80051ba:	ecbc 7a01 	vldmia	ip!, {s14}
 80051be:	eeb4 7ae7 	vcmpe.f32	s14, s15
 80051c2:	eef1 fa10 	vmrs	APSR_nzcv, fpscr
 80051c6:	bfc8      	it	gt
 80051c8:	4606      	movgt	r6, r0
 80051ca:	f100 0001 	add.w	r0, r0, #1
 80051ce:	bfd8      	it	le
 80051d0:	eeb0 7a67 	vmovle.f32	s14, s15
 80051d4:	4281      	cmp	r1, r0
 80051d6:	eef0 7a47 	vmov.f32	s15, s14
 80051da:	d1ee      	bne.n	80051ba <arm_max_f32+0x96>
 80051dc:	ed82 7a00 	vstr	s14, [r2]
 80051e0:	601e      	str	r6, [r3, #0]
 80051e2:	e8bd 87f0 	ldmia.w	sp!, {r4, r5, r6, r7, r8, r9, sl, pc}
 80051e6:	464e      	mov	r6, r9
 80051e8:	e7e3      	b.n	80051b2 <arm_max_f32+0x8e>
 80051ea:	eeb0 7a67 	vmov.f32	s14, s15
 80051ee:	e7f5      	b.n	80051dc <arm_max_f32+0xb8>

080051f0 <atan2f>:
 80051f0:	f000 b852 	b.w	8005298 <__ieee754_atan2f>
 80051f4:	0000      	movs	r0, r0
	...

080051f8 <sqrtf>:
 80051f8:	b500      	push	{lr}
 80051fa:	ed2d 8b02 	vpush	{d8}
 80051fe:	b08b      	sub	sp, #44	; 0x2c
 8005200:	eeb0 8a40 	vmov.f32	s16, s0
 8005204:	f000 f8f2 	bl	80053ec <__ieee754_sqrtf>
 8005208:	4b21      	ldr	r3, [pc, #132]	; (8005290 <sqrtf+0x98>)
 800520a:	f993 3000 	ldrsb.w	r3, [r3]
 800520e:	1c5a      	adds	r2, r3, #1
 8005210:	d028      	beq.n	8005264 <sqrtf+0x6c>
 8005212:	eeb4 8a48 	vcmp.f32	s16, s16
 8005216:	eef1 fa10 	vmrs	APSR_nzcv, fpscr
 800521a:	d623      	bvs.n	8005264 <sqrtf+0x6c>
 800521c:	eeb5 8ac0 	vcmpe.f32	s16, #0.0
 8005220:	eef1 fa10 	vmrs	APSR_nzcv, fpscr
 8005224:	d51e      	bpl.n	8005264 <sqrtf+0x6c>
 8005226:	2201      	movs	r2, #1
 8005228:	eeb7 8ac8 	vcvt.f64.f32	d8, s16
 800522c:	9200      	str	r2, [sp, #0]
 800522e:	4a19      	ldr	r2, [pc, #100]	; (8005294 <sqrtf+0x9c>)
 8005230:	9201      	str	r2, [sp, #4]
 8005232:	2200      	movs	r2, #0
 8005234:	9208      	str	r2, [sp, #32]
 8005236:	ed8d 8b04 	vstr	d8, [sp, #16]
 800523a:	ed8d 8b02 	vstr	d8, [sp, #8]
 800523e:	ed9f 7b12 	vldr	d7, [pc, #72]	; 8005288 <sqrtf+0x90>
 8005242:	b9a3      	cbnz	r3, 800526e <sqrtf+0x76>
 8005244:	ed8d 7b06 	vstr	d7, [sp, #24]
 8005248:	4668      	mov	r0, sp
 800524a:	f000 f8d2 	bl	80053f2 <matherr>
 800524e:	b1a0      	cbz	r0, 800527a <sqrtf+0x82>
 8005250:	9b08      	ldr	r3, [sp, #32]
 8005252:	b11b      	cbz	r3, 800525c <sqrtf+0x64>
 8005254:	f000 f9aa 	bl	80055ac <__errno>
 8005258:	9b08      	ldr	r3, [sp, #32]
 800525a:	6003      	str	r3, [r0, #0]
 800525c:	ed9d 0b06 	vldr	d0, [sp, #24]
 8005260:	eeb7 0bc0 	vcvt.f32.f64	s0, d0
 8005264:	b00b      	add	sp, #44	; 0x2c
 8005266:	ecbd 8b02 	vpop	{d8}
 800526a:	f85d fb04 	ldr.w	pc, [sp], #4
 800526e:	2b02      	cmp	r3, #2
 8005270:	ee87 6b07 	vdiv.f64	d6, d7, d7
 8005274:	ed8d 6b06 	vstr	d6, [sp, #24]
 8005278:	d1e6      	bne.n	8005248 <sqrtf+0x50>
 800527a:	f000 f997 	bl	80055ac <__errno>
 800527e:	2321      	movs	r3, #33	; 0x21
 8005280:	6003      	str	r3, [r0, #0]
 8005282:	e7e5      	b.n	8005250 <sqrtf+0x58>
 8005284:	f3af 8000 	nop.w
	...
 8005290:	24000010 	.word	0x24000010
 8005294:	080089fc 	.word	0x080089fc

08005298 <__ieee754_atan2f>:
 8005298:	ee10 2a90 	vmov	r2, s1
 800529c:	f022 4100 	bic.w	r1, r2, #2147483648	; 0x80000000
 80052a0:	f1b1 4fff 	cmp.w	r1, #2139095040	; 0x7f800000
 80052a4:	b510      	push	{r4, lr}
 80052a6:	eef0 7a40 	vmov.f32	s15, s0
 80052aa:	dc06      	bgt.n	80052ba <__ieee754_atan2f+0x22>
 80052ac:	ee10 0a10 	vmov	r0, s0
 80052b0:	f020 4300 	bic.w	r3, r0, #2147483648	; 0x80000000
 80052b4:	f1b3 4fff 	cmp.w	r3, #2139095040	; 0x7f800000
 80052b8:	dd04      	ble.n	80052c4 <__ieee754_atan2f+0x2c>
 80052ba:	ee77 7aa0 	vadd.f32	s15, s15, s1
 80052be:	eeb0 0a67 	vmov.f32	s0, s15
 80052c2:	bd10      	pop	{r4, pc}
 80052c4:	f1b2 5f7e 	cmp.w	r2, #1065353216	; 0x3f800000
 80052c8:	d103      	bne.n	80052d2 <__ieee754_atan2f+0x3a>
 80052ca:	e8bd 4010 	ldmia.w	sp!, {r4, lr}
 80052ce:	f000 b893 	b.w	80053f8 <atanf>
 80052d2:	1794      	asrs	r4, r2, #30
 80052d4:	f004 0402 	and.w	r4, r4, #2
 80052d8:	ea44 74d0 	orr.w	r4, r4, r0, lsr #31
 80052dc:	b93b      	cbnz	r3, 80052ee <__ieee754_atan2f+0x56>
 80052de:	2c02      	cmp	r4, #2
 80052e0:	d06b      	beq.n	80053ba <__ieee754_atan2f+0x122>
 80052e2:	ed9f 7a37 	vldr	s14, [pc, #220]	; 80053c0 <__ieee754_atan2f+0x128>
 80052e6:	2c03      	cmp	r4, #3
 80052e8:	fe47 7a00 	vseleq.f32	s15, s14, s0
 80052ec:	e7e7      	b.n	80052be <__ieee754_atan2f+0x26>
 80052ee:	b939      	cbnz	r1, 8005300 <__ieee754_atan2f+0x68>
 80052f0:	eddf 7a34 	vldr	s15, [pc, #208]	; 80053c4 <__ieee754_atan2f+0x12c>
 80052f4:	ed9f 7a34 	vldr	s14, [pc, #208]	; 80053c8 <__ieee754_atan2f+0x130>
 80052f8:	2800      	cmp	r0, #0
 80052fa:	fe67 7a87 	vselge.f32	s15, s15, s14
 80052fe:	e7de      	b.n	80052be <__ieee754_atan2f+0x26>
 8005300:	f1b1 4fff 	cmp.w	r1, #2139095040	; 0x7f800000
 8005304:	d121      	bne.n	800534a <__ieee754_atan2f+0xb2>
 8005306:	f1b3 4fff 	cmp.w	r3, #2139095040	; 0x7f800000
 800530a:	d111      	bne.n	8005330 <__ieee754_atan2f+0x98>
 800530c:	2c02      	cmp	r4, #2
 800530e:	d009      	beq.n	8005324 <__ieee754_atan2f+0x8c>
 8005310:	2c03      	cmp	r4, #3
 8005312:	d00a      	beq.n	800532a <__ieee754_atan2f+0x92>
 8005314:	eddf 7a2d 	vldr	s15, [pc, #180]	; 80053cc <__ieee754_atan2f+0x134>
 8005318:	ed9f 7a2d 	vldr	s14, [pc, #180]	; 80053d0 <__ieee754_atan2f+0x138>
 800531c:	2c01      	cmp	r4, #1
 800531e:	fe47 7a87 	vseleq.f32	s15, s15, s14
 8005322:	e7cc      	b.n	80052be <__ieee754_atan2f+0x26>
 8005324:	eddf 7a2b 	vldr	s15, [pc, #172]	; 80053d4 <__ieee754_atan2f+0x13c>
 8005328:	e7c9      	b.n	80052be <__ieee754_atan2f+0x26>
 800532a:	eddf 7a2b 	vldr	s15, [pc, #172]	; 80053d8 <__ieee754_atan2f+0x140>
 800532e:	e7c6      	b.n	80052be <__ieee754_atan2f+0x26>
 8005330:	2c02      	cmp	r4, #2
 8005332:	d042      	beq.n	80053ba <__ieee754_atan2f+0x122>
 8005334:	2c03      	cmp	r4, #3
 8005336:	d005      	beq.n	8005344 <__ieee754_atan2f+0xac>
 8005338:	2c01      	cmp	r4, #1
 800533a:	eddf 7a28 	vldr	s15, [pc, #160]	; 80053dc <__ieee754_atan2f+0x144>
 800533e:	ed9f 7a28 	vldr	s14, [pc, #160]	; 80053e0 <__ieee754_atan2f+0x148>
 8005342:	e7ec      	b.n	800531e <__ieee754_atan2f+0x86>
 8005344:	eddf 7a1e 	vldr	s15, [pc, #120]	; 80053c0 <__ieee754_atan2f+0x128>
 8005348:	e7b9      	b.n	80052be <__ieee754_atan2f+0x26>
 800534a:	f1b3 4fff 	cmp.w	r3, #2139095040	; 0x7f800000
 800534e:	d0cf      	beq.n	80052f0 <__ieee754_atan2f+0x58>
 8005350:	1a5b      	subs	r3, r3, r1
 8005352:	15db      	asrs	r3, r3, #23
 8005354:	2b3c      	cmp	r3, #60	; 0x3c
 8005356:	dc1a      	bgt.n	800538e <__ieee754_atan2f+0xf6>
 8005358:	2a00      	cmp	r2, #0
 800535a:	da01      	bge.n	8005360 <__ieee754_atan2f+0xc8>
 800535c:	333c      	adds	r3, #60	; 0x3c
 800535e:	db19      	blt.n	8005394 <__ieee754_atan2f+0xfc>
 8005360:	ee87 0aa0 	vdiv.f32	s0, s15, s1
 8005364:	f000 f91a 	bl	800559c <fabsf>
 8005368:	f000 f846 	bl	80053f8 <atanf>
 800536c:	eef0 7a40 	vmov.f32	s15, s0
 8005370:	2c01      	cmp	r4, #1
 8005372:	d012      	beq.n	800539a <__ieee754_atan2f+0x102>
 8005374:	2c02      	cmp	r4, #2
 8005376:	d017      	beq.n	80053a8 <__ieee754_atan2f+0x110>
 8005378:	2c00      	cmp	r4, #0
 800537a:	d0a0      	beq.n	80052be <__ieee754_atan2f+0x26>
 800537c:	ed9f 7a19 	vldr	s14, [pc, #100]	; 80053e4 <__ieee754_atan2f+0x14c>
 8005380:	ee77 7a87 	vadd.f32	s15, s15, s14
 8005384:	ed9f 7a18 	vldr	s14, [pc, #96]	; 80053e8 <__ieee754_atan2f+0x150>
 8005388:	ee77 7ac7 	vsub.f32	s15, s15, s14
 800538c:	e797      	b.n	80052be <__ieee754_atan2f+0x26>
 800538e:	eddf 7a0d 	vldr	s15, [pc, #52]	; 80053c4 <__ieee754_atan2f+0x12c>
 8005392:	e7ed      	b.n	8005370 <__ieee754_atan2f+0xd8>
 8005394:	eddf 7a12 	vldr	s15, [pc, #72]	; 80053e0 <__ieee754_atan2f+0x148>
 8005398:	e7ea      	b.n	8005370 <__ieee754_atan2f+0xd8>
 800539a:	ee17 3a90 	vmov	r3, s15
 800539e:	f103 4300 	add.w	r3, r3, #2147483648	; 0x80000000
 80053a2:	ee07 3a90 	vmov	s15, r3
 80053a6:	e78a      	b.n	80052be <__ieee754_atan2f+0x26>
 80053a8:	ed9f 7a0e 	vldr	s14, [pc, #56]	; 80053e4 <__ieee754_atan2f+0x14c>
 80053ac:	ee77 7a87 	vadd.f32	s15, s15, s14
 80053b0:	ed9f 7a0d 	vldr	s14, [pc, #52]	; 80053e8 <__ieee754_atan2f+0x150>
 80053b4:	ee77 7a67 	vsub.f32	s15, s14, s15
 80053b8:	e781      	b.n	80052be <__ieee754_atan2f+0x26>
 80053ba:	eddf 7a0b 	vldr	s15, [pc, #44]	; 80053e8 <__ieee754_atan2f+0x150>
 80053be:	e77e      	b.n	80052be <__ieee754_atan2f+0x26>
 80053c0:	c0490fdb 	.word	0xc0490fdb
 80053c4:	3fc90fdb 	.word	0x3fc90fdb
 80053c8:	bfc90fdb 	.word	0xbfc90fdb
 80053cc:	bf490fdb 	.word	0xbf490fdb
 80053d0:	3f490fdb 	.word	0x3f490fdb
 80053d4:	4016cbe4 	.word	0x4016cbe4
 80053d8:	c016cbe4 	.word	0xc016cbe4
 80053dc:	80000000 	.word	0x80000000
 80053e0:	00000000 	.word	0x00000000
 80053e4:	33bbbd2e 	.word	0x33bbbd2e
 80053e8:	40490fdb 	.word	0x40490fdb

080053ec <__ieee754_sqrtf>:
 80053ec:	eeb1 0ac0 	vsqrt.f32	s0, s0
 80053f0:	4770      	bx	lr

080053f2 <matherr>:
 80053f2:	2000      	movs	r0, #0
 80053f4:	4770      	bx	lr
	...

080053f8 <atanf>:
 80053f8:	b538      	push	{r3, r4, r5, lr}
 80053fa:	ee10 5a10 	vmov	r5, s0
 80053fe:	f025 4400 	bic.w	r4, r5, #2147483648	; 0x80000000
 8005402:	f1b4 4fa1 	cmp.w	r4, #1350565888	; 0x50800000
 8005406:	eef0 7a40 	vmov.f32	s15, s0
 800540a:	db0f      	blt.n	800542c <atanf+0x34>
 800540c:	f1b4 4fff 	cmp.w	r4, #2139095040	; 0x7f800000
 8005410:	dd04      	ble.n	800541c <atanf+0x24>
 8005412:	ee70 7a00 	vadd.f32	s15, s0, s0
 8005416:	eeb0 0a67 	vmov.f32	s0, s15
 800541a:	bd38      	pop	{r3, r4, r5, pc}
 800541c:	ed9f 7a4c 	vldr	s14, [pc, #304]	; 8005550 <atanf+0x158>
 8005420:	eddf 7a4c 	vldr	s15, [pc, #304]	; 8005554 <atanf+0x15c>
 8005424:	2d00      	cmp	r5, #0
 8005426:	fe77 7a87 	vselgt.f32	s15, s15, s14
 800542a:	e7f4      	b.n	8005416 <atanf+0x1e>
 800542c:	4b4a      	ldr	r3, [pc, #296]	; (8005558 <atanf+0x160>)
 800542e:	429c      	cmp	r4, r3
 8005430:	dc10      	bgt.n	8005454 <atanf+0x5c>
 8005432:	f1b4 5f44 	cmp.w	r4, #822083584	; 0x31000000
 8005436:	da0a      	bge.n	800544e <atanf+0x56>
 8005438:	ed9f 7a48 	vldr	s14, [pc, #288]	; 800555c <atanf+0x164>
 800543c:	ee30 7a07 	vadd.f32	s14, s0, s14
 8005440:	eef7 6a00 	vmov.f32	s13, #112	; 0x3f800000  1.0
 8005444:	eeb4 7ae6 	vcmpe.f32	s14, s13
 8005448:	eef1 fa10 	vmrs	APSR_nzcv, fpscr
 800544c:	dce3      	bgt.n	8005416 <atanf+0x1e>
 800544e:	f04f 33ff 	mov.w	r3, #4294967295
 8005452:	e013      	b.n	800547c <atanf+0x84>
 8005454:	f000 f8a2 	bl	800559c <fabsf>
 8005458:	4b41      	ldr	r3, [pc, #260]	; (8005560 <atanf+0x168>)
 800545a:	429c      	cmp	r4, r3
 800545c:	dc4f      	bgt.n	80054fe <atanf+0x106>
 800545e:	f5a3 03d0 	sub.w	r3, r3, #6815744	; 0x680000
 8005462:	429c      	cmp	r4, r3
 8005464:	dc41      	bgt.n	80054ea <atanf+0xf2>
 8005466:	eef0 7a00 	vmov.f32	s15, #0	; 0x40000000  2.0
 800546a:	eebf 7a00 	vmov.f32	s14, #240	; 0xbf800000 -1.0
 800546e:	eea0 7a27 	vfma.f32	s14, s0, s15
 8005472:	2300      	movs	r3, #0
 8005474:	ee30 0a27 	vadd.f32	s0, s0, s15
 8005478:	eec7 7a00 	vdiv.f32	s15, s14, s0
 800547c:	1c5a      	adds	r2, r3, #1
 800547e:	ee27 6aa7 	vmul.f32	s12, s15, s15
 8005482:	ed9f 7a38 	vldr	s14, [pc, #224]	; 8005564 <atanf+0x16c>
 8005486:	eddf 5a38 	vldr	s11, [pc, #224]	; 8005568 <atanf+0x170>
 800548a:	ed9f 5a38 	vldr	s10, [pc, #224]	; 800556c <atanf+0x174>
 800548e:	ee66 6a06 	vmul.f32	s13, s12, s12
 8005492:	eee6 5a87 	vfma.f32	s11, s13, s14
 8005496:	ed9f 7a36 	vldr	s14, [pc, #216]	; 8005570 <atanf+0x178>
 800549a:	eea5 7aa6 	vfma.f32	s14, s11, s13
 800549e:	eddf 5a35 	vldr	s11, [pc, #212]	; 8005574 <atanf+0x17c>
 80054a2:	eee7 5a26 	vfma.f32	s11, s14, s13
 80054a6:	ed9f 7a34 	vldr	s14, [pc, #208]	; 8005578 <atanf+0x180>
 80054aa:	eea5 7aa6 	vfma.f32	s14, s11, s13
 80054ae:	eddf 5a33 	vldr	s11, [pc, #204]	; 800557c <atanf+0x184>
 80054b2:	eee7 5a26 	vfma.f32	s11, s14, s13
 80054b6:	ed9f 7a32 	vldr	s14, [pc, #200]	; 8005580 <atanf+0x188>
 80054ba:	eea6 5a87 	vfma.f32	s10, s13, s14
 80054be:	ed9f 7a31 	vldr	s14, [pc, #196]	; 8005584 <atanf+0x18c>
 80054c2:	eea5 7a26 	vfma.f32	s14, s10, s13
 80054c6:	ed9f 5a30 	vldr	s10, [pc, #192]	; 8005588 <atanf+0x190>
 80054ca:	eea7 5a26 	vfma.f32	s10, s14, s13
 80054ce:	ed9f 7a2f 	vldr	s14, [pc, #188]	; 800558c <atanf+0x194>
 80054d2:	eea5 7a26 	vfma.f32	s14, s10, s13
 80054d6:	ee27 7a26 	vmul.f32	s14, s14, s13
 80054da:	eea5 7a86 	vfma.f32	s14, s11, s12
 80054de:	ee27 7a27 	vmul.f32	s14, s14, s15
 80054e2:	d121      	bne.n	8005528 <atanf+0x130>
 80054e4:	ee77 7ac7 	vsub.f32	s15, s15, s14
 80054e8:	e795      	b.n	8005416 <atanf+0x1e>
 80054ea:	eef7 7a00 	vmov.f32	s15, #112	; 0x3f800000  1.0
 80054ee:	ee30 7a67 	vsub.f32	s14, s0, s15
 80054f2:	ee30 0a27 	vadd.f32	s0, s0, s15
 80054f6:	2301      	movs	r3, #1
 80054f8:	eec7 7a00 	vdiv.f32	s15, s14, s0
 80054fc:	e7be      	b.n	800547c <atanf+0x84>
 80054fe:	4b24      	ldr	r3, [pc, #144]	; (8005590 <atanf+0x198>)
 8005500:	429c      	cmp	r4, r3
 8005502:	dc0b      	bgt.n	800551c <atanf+0x124>
 8005504:	eef7 7a08 	vmov.f32	s15, #120	; 0x3fc00000  1.5
 8005508:	eeb7 7a00 	vmov.f32	s14, #112	; 0x3f800000  1.0
 800550c:	eea0 7a27 	vfma.f32	s14, s0, s15
 8005510:	2302      	movs	r3, #2
 8005512:	ee70 6a67 	vsub.f32	s13, s0, s15
 8005516:	eec6 7a87 	vdiv.f32	s15, s13, s14
 800551a:	e7af      	b.n	800547c <atanf+0x84>
 800551c:	eebf 7a00 	vmov.f32	s14, #240	; 0xbf800000 -1.0
 8005520:	eec7 7a00 	vdiv.f32	s15, s14, s0
 8005524:	2303      	movs	r3, #3
 8005526:	e7a9      	b.n	800547c <atanf+0x84>
 8005528:	4a1a      	ldr	r2, [pc, #104]	; (8005594 <atanf+0x19c>)
 800552a:	491b      	ldr	r1, [pc, #108]	; (8005598 <atanf+0x1a0>)
 800552c:	009b      	lsls	r3, r3, #2
 800552e:	441a      	add	r2, r3
 8005530:	440b      	add	r3, r1
 8005532:	edd3 6a00 	vldr	s13, [r3]
 8005536:	ee37 7a66 	vsub.f32	s14, s14, s13
 800553a:	2d00      	cmp	r5, #0
 800553c:	ee77 7a67 	vsub.f32	s15, s14, s15
 8005540:	ed92 7a00 	vldr	s14, [r2]
 8005544:	ee77 7a67 	vsub.f32	s15, s14, s15
 8005548:	bfb8      	it	lt
 800554a:	eef1 7a67 	vneglt.f32	s15, s15
 800554e:	e762      	b.n	8005416 <atanf+0x1e>
 8005550:	bfc90fdb 	.word	0xbfc90fdb
 8005554:	3fc90fdb 	.word	0x3fc90fdb
 8005558:	3edfffff 	.word	0x3edfffff
 800555c:	7149f2ca 	.word	0x7149f2ca
 8005560:	3f97ffff 	.word	0x3f97ffff
 8005564:	3c8569d7 	.word	0x3c8569d7
 8005568:	3d4bda59 	.word	0x3d4bda59
 800556c:	bd6ef16b 	.word	0xbd6ef16b
 8005570:	3d886b35 	.word	0x3d886b35
 8005574:	3dba2e6e 	.word	0x3dba2e6e
 8005578:	3e124925 	.word	0x3e124925
 800557c:	3eaaaaab 	.word	0x3eaaaaab
 8005580:	bd15a221 	.word	0xbd15a221
 8005584:	bd9d8795 	.word	0xbd9d8795
 8005588:	bde38e38 	.word	0xbde38e38
 800558c:	be4ccccd 	.word	0xbe4ccccd
 8005590:	401bffff 	.word	0x401bffff
 8005594:	08008a04 	.word	0x08008a04
 8005598:	08008a14 	.word	0x08008a14

0800559c <fabsf>:
 800559c:	ee10 3a10 	vmov	r3, s0
 80055a0:	f023 4300 	bic.w	r3, r3, #2147483648	; 0x80000000
 80055a4:	ee00 3a10 	vmov	s0, r3
 80055a8:	4770      	bx	lr
	...

080055ac <__errno>:
 80055ac:	4b01      	ldr	r3, [pc, #4]	; (80055b4 <__errno+0x8>)
 80055ae:	6818      	ldr	r0, [r3, #0]
 80055b0:	4770      	bx	lr
 80055b2:	bf00      	nop
 80055b4:	24000014 	.word	0x24000014

080055b8 <__libc_init_array>:
 80055b8:	b570      	push	{r4, r5, r6, lr}
 80055ba:	4e0d      	ldr	r6, [pc, #52]	; (80055f0 <__libc_init_array+0x38>)
 80055bc:	4c0d      	ldr	r4, [pc, #52]	; (80055f4 <__libc_init_array+0x3c>)
 80055be:	1ba4      	subs	r4, r4, r6
 80055c0:	10a4      	asrs	r4, r4, #2
 80055c2:	2500      	movs	r5, #0
 80055c4:	42a5      	cmp	r5, r4
 80055c6:	d109      	bne.n	80055dc <__libc_init_array+0x24>
 80055c8:	4e0b      	ldr	r6, [pc, #44]	; (80055f8 <__libc_init_array+0x40>)
 80055ca:	4c0c      	ldr	r4, [pc, #48]	; (80055fc <__libc_init_array+0x44>)
 80055cc:	f003 f984 	bl	80088d8 <_init>
 80055d0:	1ba4      	subs	r4, r4, r6
 80055d2:	10a4      	asrs	r4, r4, #2
 80055d4:	2500      	movs	r5, #0
 80055d6:	42a5      	cmp	r5, r4
 80055d8:	d105      	bne.n	80055e6 <__libc_init_array+0x2e>
 80055da:	bd70      	pop	{r4, r5, r6, pc}
 80055dc:	f856 3025 	ldr.w	r3, [r6, r5, lsl #2]
 80055e0:	4798      	blx	r3
 80055e2:	3501      	adds	r5, #1
 80055e4:	e7ee      	b.n	80055c4 <__libc_init_array+0xc>
 80055e6:	f856 3025 	ldr.w	r3, [r6, r5, lsl #2]
 80055ea:	4798      	blx	r3
 80055ec:	3501      	adds	r5, #1
 80055ee:	e7f2      	b.n	80055d6 <__libc_init_array+0x1e>
 80055f0:	08008ca0 	.word	0x08008ca0
 80055f4:	08008ca0 	.word	0x08008ca0
 80055f8:	08008ca0 	.word	0x08008ca0
 80055fc:	08008ca8 	.word	0x08008ca8

08005600 <malloc>:
 8005600:	4b02      	ldr	r3, [pc, #8]	; (800560c <malloc+0xc>)
 8005602:	4601      	mov	r1, r0
 8005604:	6818      	ldr	r0, [r3, #0]
 8005606:	f000 b80b 	b.w	8005620 <_malloc_r>
 800560a:	bf00      	nop
 800560c:	24000014 	.word	0x24000014

08005610 <free>:
 8005610:	4b02      	ldr	r3, [pc, #8]	; (800561c <free+0xc>)
 8005612:	4601      	mov	r1, r0
 8005614:	6818      	ldr	r0, [r3, #0]
 8005616:	f002 bab7 	b.w	8007b88 <_free_r>
 800561a:	bf00      	nop
 800561c:	24000014 	.word	0x24000014

08005620 <_malloc_r>:
 8005620:	e92d 4ff7 	stmdb	sp!, {r0, r1, r2, r4, r5, r6, r7, r8, r9, sl, fp, lr}
 8005624:	f101 050b 	add.w	r5, r1, #11
 8005628:	2d16      	cmp	r5, #22
 800562a:	4606      	mov	r6, r0
 800562c:	d906      	bls.n	800563c <_malloc_r+0x1c>
 800562e:	f035 0507 	bics.w	r5, r5, #7
 8005632:	d504      	bpl.n	800563e <_malloc_r+0x1e>
 8005634:	230c      	movs	r3, #12
 8005636:	6033      	str	r3, [r6, #0]
 8005638:	2400      	movs	r4, #0
 800563a:	e1a8      	b.n	800598e <_malloc_r+0x36e>
 800563c:	2510      	movs	r5, #16
 800563e:	428d      	cmp	r5, r1
 8005640:	d3f8      	bcc.n	8005634 <_malloc_r+0x14>
 8005642:	4630      	mov	r0, r6
 8005644:	f000 fa36 	bl	8005ab4 <__malloc_lock>
 8005648:	f5b5 7ffc 	cmp.w	r5, #504	; 0x1f8
 800564c:	4fc0      	ldr	r7, [pc, #768]	; (8005950 <_malloc_r+0x330>)
 800564e:	d238      	bcs.n	80056c2 <_malloc_r+0xa2>
 8005650:	f105 0208 	add.w	r2, r5, #8
 8005654:	443a      	add	r2, r7
 8005656:	f1a2 0108 	sub.w	r1, r2, #8
 800565a:	6854      	ldr	r4, [r2, #4]
 800565c:	428c      	cmp	r4, r1
 800565e:	ea4f 03d5 	mov.w	r3, r5, lsr #3
 8005662:	d102      	bne.n	800566a <_malloc_r+0x4a>
 8005664:	68d4      	ldr	r4, [r2, #12]
 8005666:	42a2      	cmp	r2, r4
 8005668:	d010      	beq.n	800568c <_malloc_r+0x6c>
 800566a:	6863      	ldr	r3, [r4, #4]
 800566c:	e9d4 1202 	ldrd	r1, r2, [r4, #8]
 8005670:	f023 0303 	bic.w	r3, r3, #3
 8005674:	60ca      	str	r2, [r1, #12]
 8005676:	4423      	add	r3, r4
 8005678:	6091      	str	r1, [r2, #8]
 800567a:	685a      	ldr	r2, [r3, #4]
 800567c:	f042 0201 	orr.w	r2, r2, #1
 8005680:	605a      	str	r2, [r3, #4]
 8005682:	4630      	mov	r0, r6
 8005684:	f000 fa1c 	bl	8005ac0 <__malloc_unlock>
 8005688:	3408      	adds	r4, #8
 800568a:	e180      	b.n	800598e <_malloc_r+0x36e>
 800568c:	3302      	adds	r3, #2
 800568e:	4ab1      	ldr	r2, [pc, #708]	; (8005954 <_malloc_r+0x334>)
 8005690:	693c      	ldr	r4, [r7, #16]
 8005692:	4294      	cmp	r4, r2
 8005694:	4611      	mov	r1, r2
 8005696:	d075      	beq.n	8005784 <_malloc_r+0x164>
 8005698:	6860      	ldr	r0, [r4, #4]
 800569a:	f020 0c03 	bic.w	ip, r0, #3
 800569e:	ebac 0005 	sub.w	r0, ip, r5
 80056a2:	280f      	cmp	r0, #15
 80056a4:	dd48      	ble.n	8005738 <_malloc_r+0x118>
 80056a6:	1963      	adds	r3, r4, r5
 80056a8:	f045 0501 	orr.w	r5, r5, #1
 80056ac:	6065      	str	r5, [r4, #4]
 80056ae:	e9c7 3304 	strd	r3, r3, [r7, #16]
 80056b2:	e9c3 2202 	strd	r2, r2, [r3, #8]
 80056b6:	f040 0201 	orr.w	r2, r0, #1
 80056ba:	605a      	str	r2, [r3, #4]
 80056bc:	f844 000c 	str.w	r0, [r4, ip]
 80056c0:	e7df      	b.n	8005682 <_malloc_r+0x62>
 80056c2:	0a6b      	lsrs	r3, r5, #9
 80056c4:	d02a      	beq.n	800571c <_malloc_r+0xfc>
 80056c6:	2b04      	cmp	r3, #4
 80056c8:	d812      	bhi.n	80056f0 <_malloc_r+0xd0>
 80056ca:	09ab      	lsrs	r3, r5, #6
 80056cc:	3338      	adds	r3, #56	; 0x38
 80056ce:	1c5a      	adds	r2, r3, #1
 80056d0:	eb07 02c2 	add.w	r2, r7, r2, lsl #3
 80056d4:	f1a2 0c08 	sub.w	ip, r2, #8
 80056d8:	6854      	ldr	r4, [r2, #4]
 80056da:	4564      	cmp	r4, ip
 80056dc:	d006      	beq.n	80056ec <_malloc_r+0xcc>
 80056de:	6862      	ldr	r2, [r4, #4]
 80056e0:	f022 0203 	bic.w	r2, r2, #3
 80056e4:	1b50      	subs	r0, r2, r5
 80056e6:	280f      	cmp	r0, #15
 80056e8:	dd1c      	ble.n	8005724 <_malloc_r+0x104>
 80056ea:	3b01      	subs	r3, #1
 80056ec:	3301      	adds	r3, #1
 80056ee:	e7ce      	b.n	800568e <_malloc_r+0x6e>
 80056f0:	2b14      	cmp	r3, #20
 80056f2:	d801      	bhi.n	80056f8 <_malloc_r+0xd8>
 80056f4:	335b      	adds	r3, #91	; 0x5b
 80056f6:	e7ea      	b.n	80056ce <_malloc_r+0xae>
 80056f8:	2b54      	cmp	r3, #84	; 0x54
 80056fa:	d802      	bhi.n	8005702 <_malloc_r+0xe2>
 80056fc:	0b2b      	lsrs	r3, r5, #12
 80056fe:	336e      	adds	r3, #110	; 0x6e
 8005700:	e7e5      	b.n	80056ce <_malloc_r+0xae>
 8005702:	f5b3 7faa 	cmp.w	r3, #340	; 0x154
 8005706:	d802      	bhi.n	800570e <_malloc_r+0xee>
 8005708:	0beb      	lsrs	r3, r5, #15
 800570a:	3377      	adds	r3, #119	; 0x77
 800570c:	e7df      	b.n	80056ce <_malloc_r+0xae>
 800570e:	f240 5254 	movw	r2, #1364	; 0x554
 8005712:	4293      	cmp	r3, r2
 8005714:	d804      	bhi.n	8005720 <_malloc_r+0x100>
 8005716:	0cab      	lsrs	r3, r5, #18
 8005718:	337c      	adds	r3, #124	; 0x7c
 800571a:	e7d8      	b.n	80056ce <_malloc_r+0xae>
 800571c:	233f      	movs	r3, #63	; 0x3f
 800571e:	e7d6      	b.n	80056ce <_malloc_r+0xae>
 8005720:	237e      	movs	r3, #126	; 0x7e
 8005722:	e7d4      	b.n	80056ce <_malloc_r+0xae>
 8005724:	2800      	cmp	r0, #0
 8005726:	68e1      	ldr	r1, [r4, #12]
 8005728:	db04      	blt.n	8005734 <_malloc_r+0x114>
 800572a:	68a3      	ldr	r3, [r4, #8]
 800572c:	60d9      	str	r1, [r3, #12]
 800572e:	608b      	str	r3, [r1, #8]
 8005730:	18a3      	adds	r3, r4, r2
 8005732:	e7a2      	b.n	800567a <_malloc_r+0x5a>
 8005734:	460c      	mov	r4, r1
 8005736:	e7d0      	b.n	80056da <_malloc_r+0xba>
 8005738:	2800      	cmp	r0, #0
 800573a:	e9c7 2204 	strd	r2, r2, [r7, #16]
 800573e:	db07      	blt.n	8005750 <_malloc_r+0x130>
 8005740:	44a4      	add	ip, r4
 8005742:	f8dc 3004 	ldr.w	r3, [ip, #4]
 8005746:	f043 0301 	orr.w	r3, r3, #1
 800574a:	f8cc 3004 	str.w	r3, [ip, #4]
 800574e:	e798      	b.n	8005682 <_malloc_r+0x62>
 8005750:	f5bc 7f00 	cmp.w	ip, #512	; 0x200
 8005754:	6878      	ldr	r0, [r7, #4]
 8005756:	f080 8099 	bcs.w	800588c <_malloc_r+0x26c>
 800575a:	ea4f 0cdc 	mov.w	ip, ip, lsr #3
 800575e:	ea4f 0eac 	mov.w	lr, ip, asr #2
 8005762:	2201      	movs	r2, #1
 8005764:	f10c 0c01 	add.w	ip, ip, #1
 8005768:	fa02 f20e 	lsl.w	r2, r2, lr
 800576c:	4310      	orrs	r0, r2
 800576e:	6078      	str	r0, [r7, #4]
 8005770:	eb07 02cc 	add.w	r2, r7, ip, lsl #3
 8005774:	f857 003c 	ldr.w	r0, [r7, ip, lsl #3]
 8005778:	3a08      	subs	r2, #8
 800577a:	e9c4 0202 	strd	r0, r2, [r4, #8]
 800577e:	f847 403c 	str.w	r4, [r7, ip, lsl #3]
 8005782:	60c4      	str	r4, [r0, #12]
 8005784:	2001      	movs	r0, #1
 8005786:	109a      	asrs	r2, r3, #2
 8005788:	fa00 f202 	lsl.w	r2, r0, r2
 800578c:	6878      	ldr	r0, [r7, #4]
 800578e:	4290      	cmp	r0, r2
 8005790:	d326      	bcc.n	80057e0 <_malloc_r+0x1c0>
 8005792:	4210      	tst	r0, r2
 8005794:	d106      	bne.n	80057a4 <_malloc_r+0x184>
 8005796:	f023 0303 	bic.w	r3, r3, #3
 800579a:	0052      	lsls	r2, r2, #1
 800579c:	4210      	tst	r0, r2
 800579e:	f103 0304 	add.w	r3, r3, #4
 80057a2:	d0fa      	beq.n	800579a <_malloc_r+0x17a>
 80057a4:	eb07 0cc3 	add.w	ip, r7, r3, lsl #3
 80057a8:	46e1      	mov	r9, ip
 80057aa:	4698      	mov	r8, r3
 80057ac:	f8d9 400c 	ldr.w	r4, [r9, #12]
 80057b0:	454c      	cmp	r4, r9
 80057b2:	f040 80af 	bne.w	8005914 <_malloc_r+0x2f4>
 80057b6:	f108 0801 	add.w	r8, r8, #1
 80057ba:	f018 0f03 	tst.w	r8, #3
 80057be:	f109 0908 	add.w	r9, r9, #8
 80057c2:	d1f3      	bne.n	80057ac <_malloc_r+0x18c>
 80057c4:	0798      	lsls	r0, r3, #30
 80057c6:	f040 80e8 	bne.w	800599a <_malloc_r+0x37a>
 80057ca:	687b      	ldr	r3, [r7, #4]
 80057cc:	ea23 0302 	bic.w	r3, r3, r2
 80057d0:	607b      	str	r3, [r7, #4]
 80057d2:	6878      	ldr	r0, [r7, #4]
 80057d4:	0052      	lsls	r2, r2, #1
 80057d6:	4290      	cmp	r0, r2
 80057d8:	d302      	bcc.n	80057e0 <_malloc_r+0x1c0>
 80057da:	2a00      	cmp	r2, #0
 80057dc:	f040 80ec 	bne.w	80059b8 <_malloc_r+0x398>
 80057e0:	f8d7 a008 	ldr.w	sl, [r7, #8]
 80057e4:	f8da 4004 	ldr.w	r4, [sl, #4]
 80057e8:	f024 0203 	bic.w	r2, r4, #3
 80057ec:	42aa      	cmp	r2, r5
 80057ee:	d303      	bcc.n	80057f8 <_malloc_r+0x1d8>
 80057f0:	1b53      	subs	r3, r2, r5
 80057f2:	2b0f      	cmp	r3, #15
 80057f4:	f300 8140 	bgt.w	8005a78 <_malloc_r+0x458>
 80057f8:	4b57      	ldr	r3, [pc, #348]	; (8005958 <_malloc_r+0x338>)
 80057fa:	9200      	str	r2, [sp, #0]
 80057fc:	2008      	movs	r0, #8
 80057fe:	681c      	ldr	r4, [r3, #0]
 8005800:	f001 fb76 	bl	8006ef0 <sysconf>
 8005804:	4b55      	ldr	r3, [pc, #340]	; (800595c <_malloc_r+0x33c>)
 8005806:	9a00      	ldr	r2, [sp, #0]
 8005808:	6819      	ldr	r1, [r3, #0]
 800580a:	3410      	adds	r4, #16
 800580c:	3101      	adds	r1, #1
 800580e:	442c      	add	r4, r5
 8005810:	bf1f      	itttt	ne
 8005812:	f104 34ff 	addne.w	r4, r4, #4294967295
 8005816:	1824      	addne	r4, r4, r0
 8005818:	4241      	negne	r1, r0
 800581a:	400c      	andne	r4, r1
 800581c:	4680      	mov	r8, r0
 800581e:	4621      	mov	r1, r4
 8005820:	4630      	mov	r0, r6
 8005822:	e9cd 2300 	strd	r2, r3, [sp]
 8005826:	f000 f951 	bl	8005acc <_sbrk_r>
 800582a:	f1b0 3fff 	cmp.w	r0, #4294967295
 800582e:	4683      	mov	fp, r0
 8005830:	f000 80fb 	beq.w	8005a2a <_malloc_r+0x40a>
 8005834:	9a00      	ldr	r2, [sp, #0]
 8005836:	9b01      	ldr	r3, [sp, #4]
 8005838:	eb0a 0102 	add.w	r1, sl, r2
 800583c:	4281      	cmp	r1, r0
 800583e:	d902      	bls.n	8005846 <_malloc_r+0x226>
 8005840:	45ba      	cmp	sl, r7
 8005842:	f040 80f2 	bne.w	8005a2a <_malloc_r+0x40a>
 8005846:	f8df 9120 	ldr.w	r9, [pc, #288]	; 8005968 <_malloc_r+0x348>
 800584a:	f8d9 0000 	ldr.w	r0, [r9]
 800584e:	4559      	cmp	r1, fp
 8005850:	eb00 0e04 	add.w	lr, r0, r4
 8005854:	f8c9 e000 	str.w	lr, [r9]
 8005858:	f108 3cff 	add.w	ip, r8, #4294967295
 800585c:	f040 80ae 	bne.w	80059bc <_malloc_r+0x39c>
 8005860:	ea11 0f0c 	tst.w	r1, ip
 8005864:	f040 80aa 	bne.w	80059bc <_malloc_r+0x39c>
 8005868:	68bb      	ldr	r3, [r7, #8]
 800586a:	4414      	add	r4, r2
 800586c:	f044 0401 	orr.w	r4, r4, #1
 8005870:	605c      	str	r4, [r3, #4]
 8005872:	4a3b      	ldr	r2, [pc, #236]	; (8005960 <_malloc_r+0x340>)
 8005874:	f8d9 3000 	ldr.w	r3, [r9]
 8005878:	6811      	ldr	r1, [r2, #0]
 800587a:	428b      	cmp	r3, r1
 800587c:	bf88      	it	hi
 800587e:	6013      	strhi	r3, [r2, #0]
 8005880:	4a38      	ldr	r2, [pc, #224]	; (8005964 <_malloc_r+0x344>)
 8005882:	6811      	ldr	r1, [r2, #0]
 8005884:	428b      	cmp	r3, r1
 8005886:	bf88      	it	hi
 8005888:	6013      	strhi	r3, [r2, #0]
 800588a:	e0ce      	b.n	8005a2a <_malloc_r+0x40a>
 800588c:	ea4f 225c 	mov.w	r2, ip, lsr #9
 8005890:	2a04      	cmp	r2, #4
 8005892:	d818      	bhi.n	80058c6 <_malloc_r+0x2a6>
 8005894:	ea4f 129c 	mov.w	r2, ip, lsr #6
 8005898:	3238      	adds	r2, #56	; 0x38
 800589a:	f102 0e01 	add.w	lr, r2, #1
 800589e:	eb07 08c2 	add.w	r8, r7, r2, lsl #3
 80058a2:	f857 e03e 	ldr.w	lr, [r7, lr, lsl #3]
 80058a6:	45f0      	cmp	r8, lr
 80058a8:	d12b      	bne.n	8005902 <_malloc_r+0x2e2>
 80058aa:	1092      	asrs	r2, r2, #2
 80058ac:	f04f 0c01 	mov.w	ip, #1
 80058b0:	fa0c f202 	lsl.w	r2, ip, r2
 80058b4:	4310      	orrs	r0, r2
 80058b6:	6078      	str	r0, [r7, #4]
 80058b8:	e9c4 e802 	strd	lr, r8, [r4, #8]
 80058bc:	f8c8 4008 	str.w	r4, [r8, #8]
 80058c0:	f8ce 400c 	str.w	r4, [lr, #12]
 80058c4:	e75e      	b.n	8005784 <_malloc_r+0x164>
 80058c6:	2a14      	cmp	r2, #20
 80058c8:	d801      	bhi.n	80058ce <_malloc_r+0x2ae>
 80058ca:	325b      	adds	r2, #91	; 0x5b
 80058cc:	e7e5      	b.n	800589a <_malloc_r+0x27a>
 80058ce:	2a54      	cmp	r2, #84	; 0x54
 80058d0:	d803      	bhi.n	80058da <_malloc_r+0x2ba>
 80058d2:	ea4f 321c 	mov.w	r2, ip, lsr #12
 80058d6:	326e      	adds	r2, #110	; 0x6e
 80058d8:	e7df      	b.n	800589a <_malloc_r+0x27a>
 80058da:	f5b2 7faa 	cmp.w	r2, #340	; 0x154
 80058de:	d803      	bhi.n	80058e8 <_malloc_r+0x2c8>
 80058e0:	ea4f 32dc 	mov.w	r2, ip, lsr #15
 80058e4:	3277      	adds	r2, #119	; 0x77
 80058e6:	e7d8      	b.n	800589a <_malloc_r+0x27a>
 80058e8:	f240 5e54 	movw	lr, #1364	; 0x554
 80058ec:	4572      	cmp	r2, lr
 80058ee:	bf9a      	itte	ls
 80058f0:	ea4f 429c 	movls.w	r2, ip, lsr #18
 80058f4:	327c      	addls	r2, #124	; 0x7c
 80058f6:	227e      	movhi	r2, #126	; 0x7e
 80058f8:	e7cf      	b.n	800589a <_malloc_r+0x27a>
 80058fa:	f8de e008 	ldr.w	lr, [lr, #8]
 80058fe:	45f0      	cmp	r8, lr
 8005900:	d005      	beq.n	800590e <_malloc_r+0x2ee>
 8005902:	f8de 2004 	ldr.w	r2, [lr, #4]
 8005906:	f022 0203 	bic.w	r2, r2, #3
 800590a:	4562      	cmp	r2, ip
 800590c:	d8f5      	bhi.n	80058fa <_malloc_r+0x2da>
 800590e:	f8de 800c 	ldr.w	r8, [lr, #12]
 8005912:	e7d1      	b.n	80058b8 <_malloc_r+0x298>
 8005914:	6860      	ldr	r0, [r4, #4]
 8005916:	f8d4 e00c 	ldr.w	lr, [r4, #12]
 800591a:	f020 0003 	bic.w	r0, r0, #3
 800591e:	eba0 0a05 	sub.w	sl, r0, r5
 8005922:	f1ba 0f0f 	cmp.w	sl, #15
 8005926:	dd21      	ble.n	800596c <_malloc_r+0x34c>
 8005928:	68a2      	ldr	r2, [r4, #8]
 800592a:	1963      	adds	r3, r4, r5
 800592c:	f045 0501 	orr.w	r5, r5, #1
 8005930:	6065      	str	r5, [r4, #4]
 8005932:	f8c2 e00c 	str.w	lr, [r2, #12]
 8005936:	f8ce 2008 	str.w	r2, [lr, #8]
 800593a:	f04a 0201 	orr.w	r2, sl, #1
 800593e:	e9c7 3304 	strd	r3, r3, [r7, #16]
 8005942:	e9c3 1102 	strd	r1, r1, [r3, #8]
 8005946:	605a      	str	r2, [r3, #4]
 8005948:	f844 a000 	str.w	sl, [r4, r0]
 800594c:	e699      	b.n	8005682 <_malloc_r+0x62>
 800594e:	bf00      	nop
 8005950:	24000440 	.word	0x24000440
 8005954:	24000448 	.word	0x24000448
 8005958:	24000a78 	.word	0x24000a78
 800595c:	24000848 	.word	0x24000848
 8005960:	24000a70 	.word	0x24000a70
 8005964:	24000a74 	.word	0x24000a74
 8005968:	24000a48 	.word	0x24000a48
 800596c:	f1ba 0f00 	cmp.w	sl, #0
 8005970:	db11      	blt.n	8005996 <_malloc_r+0x376>
 8005972:	4420      	add	r0, r4
 8005974:	6843      	ldr	r3, [r0, #4]
 8005976:	f043 0301 	orr.w	r3, r3, #1
 800597a:	6043      	str	r3, [r0, #4]
 800597c:	f854 3f08 	ldr.w	r3, [r4, #8]!
 8005980:	4630      	mov	r0, r6
 8005982:	f8c3 e00c 	str.w	lr, [r3, #12]
 8005986:	f8ce 3008 	str.w	r3, [lr, #8]
 800598a:	f000 f899 	bl	8005ac0 <__malloc_unlock>
 800598e:	4620      	mov	r0, r4
 8005990:	b003      	add	sp, #12
 8005992:	e8bd 8ff0 	ldmia.w	sp!, {r4, r5, r6, r7, r8, r9, sl, fp, pc}
 8005996:	4674      	mov	r4, lr
 8005998:	e70a      	b.n	80057b0 <_malloc_r+0x190>
 800599a:	f1ac 0008 	sub.w	r0, ip, #8
 800599e:	f8dc c000 	ldr.w	ip, [ip]
 80059a2:	4584      	cmp	ip, r0
 80059a4:	f103 33ff 	add.w	r3, r3, #4294967295
 80059a8:	f43f af0c 	beq.w	80057c4 <_malloc_r+0x1a4>
 80059ac:	e711      	b.n	80057d2 <_malloc_r+0x1b2>
 80059ae:	3304      	adds	r3, #4
 80059b0:	0052      	lsls	r2, r2, #1
 80059b2:	4210      	tst	r0, r2
 80059b4:	d0fb      	beq.n	80059ae <_malloc_r+0x38e>
 80059b6:	e6f5      	b.n	80057a4 <_malloc_r+0x184>
 80059b8:	4643      	mov	r3, r8
 80059ba:	e7fa      	b.n	80059b2 <_malloc_r+0x392>
 80059bc:	6818      	ldr	r0, [r3, #0]
 80059be:	9200      	str	r2, [sp, #0]
 80059c0:	3001      	adds	r0, #1
 80059c2:	bf1b      	ittet	ne
 80059c4:	ebab 0101 	subne.w	r1, fp, r1
 80059c8:	4471      	addne	r1, lr
 80059ca:	f8c3 b000 	streq.w	fp, [r3]
 80059ce:	f8c9 1000 	strne.w	r1, [r9]
 80059d2:	f01b 0307 	ands.w	r3, fp, #7
 80059d6:	bf1c      	itt	ne
 80059d8:	f1c3 0308 	rsbne	r3, r3, #8
 80059dc:	449b      	addne	fp, r3
 80059de:	445c      	add	r4, fp
 80059e0:	4498      	add	r8, r3
 80059e2:	ea04 030c 	and.w	r3, r4, ip
 80059e6:	eba8 0803 	sub.w	r8, r8, r3
 80059ea:	4641      	mov	r1, r8
 80059ec:	4630      	mov	r0, r6
 80059ee:	f000 f86d 	bl	8005acc <_sbrk_r>
 80059f2:	1c43      	adds	r3, r0, #1
 80059f4:	bf04      	itt	eq
 80059f6:	4658      	moveq	r0, fp
 80059f8:	f04f 0800 	moveq.w	r8, #0
 80059fc:	f8d9 3000 	ldr.w	r3, [r9]
 8005a00:	f8c7 b008 	str.w	fp, [r7, #8]
 8005a04:	eba0 000b 	sub.w	r0, r0, fp
 8005a08:	4440      	add	r0, r8
 8005a0a:	4443      	add	r3, r8
 8005a0c:	f040 0001 	orr.w	r0, r0, #1
 8005a10:	45ba      	cmp	sl, r7
 8005a12:	9a00      	ldr	r2, [sp, #0]
 8005a14:	f8c9 3000 	str.w	r3, [r9]
 8005a18:	f8cb 0004 	str.w	r0, [fp, #4]
 8005a1c:	f43f af29 	beq.w	8005872 <_malloc_r+0x252>
 8005a20:	2a0f      	cmp	r2, #15
 8005a22:	d810      	bhi.n	8005a46 <_malloc_r+0x426>
 8005a24:	2301      	movs	r3, #1
 8005a26:	f8cb 3004 	str.w	r3, [fp, #4]
 8005a2a:	68bb      	ldr	r3, [r7, #8]
 8005a2c:	685a      	ldr	r2, [r3, #4]
 8005a2e:	f022 0203 	bic.w	r2, r2, #3
 8005a32:	42aa      	cmp	r2, r5
 8005a34:	eba2 0305 	sub.w	r3, r2, r5
 8005a38:	d301      	bcc.n	8005a3e <_malloc_r+0x41e>
 8005a3a:	2b0f      	cmp	r3, #15
 8005a3c:	dc1c      	bgt.n	8005a78 <_malloc_r+0x458>
 8005a3e:	4630      	mov	r0, r6
 8005a40:	f000 f83e 	bl	8005ac0 <__malloc_unlock>
 8005a44:	e5f8      	b.n	8005638 <_malloc_r+0x18>
 8005a46:	f8da 3004 	ldr.w	r3, [sl, #4]
 8005a4a:	f1a2 040c 	sub.w	r4, r2, #12
 8005a4e:	f024 0407 	bic.w	r4, r4, #7
 8005a52:	f003 0301 	and.w	r3, r3, #1
 8005a56:	4323      	orrs	r3, r4
 8005a58:	f8ca 3004 	str.w	r3, [sl, #4]
 8005a5c:	2205      	movs	r2, #5
 8005a5e:	eb0a 0304 	add.w	r3, sl, r4
 8005a62:	2c0f      	cmp	r4, #15
 8005a64:	e9c3 2201 	strd	r2, r2, [r3, #4]
 8005a68:	f67f af03 	bls.w	8005872 <_malloc_r+0x252>
 8005a6c:	f10a 0108 	add.w	r1, sl, #8
 8005a70:	4630      	mov	r0, r6
 8005a72:	f002 f889 	bl	8007b88 <_free_r>
 8005a76:	e6fc      	b.n	8005872 <_malloc_r+0x252>
 8005a78:	68bc      	ldr	r4, [r7, #8]
 8005a7a:	f045 0201 	orr.w	r2, r5, #1
 8005a7e:	4425      	add	r5, r4
 8005a80:	f043 0301 	orr.w	r3, r3, #1
 8005a84:	6062      	str	r2, [r4, #4]
 8005a86:	60bd      	str	r5, [r7, #8]
 8005a88:	606b      	str	r3, [r5, #4]
 8005a8a:	e5fa      	b.n	8005682 <_malloc_r+0x62>

08005a8c <memcpy>:
 8005a8c:	b510      	push	{r4, lr}
 8005a8e:	1e43      	subs	r3, r0, #1
 8005a90:	440a      	add	r2, r1
 8005a92:	4291      	cmp	r1, r2
 8005a94:	d100      	bne.n	8005a98 <memcpy+0xc>
 8005a96:	bd10      	pop	{r4, pc}
 8005a98:	f811 4b01 	ldrb.w	r4, [r1], #1
 8005a9c:	f803 4f01 	strb.w	r4, [r3, #1]!
 8005aa0:	e7f7      	b.n	8005a92 <memcpy+0x6>

08005aa2 <memset>:
 8005aa2:	4402      	add	r2, r0
 8005aa4:	4603      	mov	r3, r0
 8005aa6:	4293      	cmp	r3, r2
 8005aa8:	d100      	bne.n	8005aac <memset+0xa>
 8005aaa:	4770      	bx	lr
 8005aac:	f803 1b01 	strb.w	r1, [r3], #1
 8005ab0:	e7f9      	b.n	8005aa6 <memset+0x4>
	...

08005ab4 <__malloc_lock>:
 8005ab4:	4801      	ldr	r0, [pc, #4]	; (8005abc <__malloc_lock+0x8>)
 8005ab6:	f002 b931 	b.w	8007d1c <__retarget_lock_acquire_recursive>
 8005aba:	bf00      	nop
 8005abc:	240140cc 	.word	0x240140cc

08005ac0 <__malloc_unlock>:
 8005ac0:	4801      	ldr	r0, [pc, #4]	; (8005ac8 <__malloc_unlock+0x8>)
 8005ac2:	f002 b92c 	b.w	8007d1e <__retarget_lock_release_recursive>
 8005ac6:	bf00      	nop
 8005ac8:	240140cc 	.word	0x240140cc

08005acc <_sbrk_r>:
 8005acc:	b538      	push	{r3, r4, r5, lr}
 8005ace:	4c06      	ldr	r4, [pc, #24]	; (8005ae8 <_sbrk_r+0x1c>)
 8005ad0:	2300      	movs	r3, #0
 8005ad2:	4605      	mov	r5, r0
 8005ad4:	4608      	mov	r0, r1
 8005ad6:	6023      	str	r3, [r4, #0]
 8005ad8:	f7fb fd5a 	bl	8001590 <_sbrk>
 8005adc:	1c43      	adds	r3, r0, #1
 8005ade:	d102      	bne.n	8005ae6 <_sbrk_r+0x1a>
 8005ae0:	6823      	ldr	r3, [r4, #0]
 8005ae2:	b103      	cbz	r3, 8005ae6 <_sbrk_r+0x1a>
 8005ae4:	602b      	str	r3, [r5, #0]
 8005ae6:	bd38      	pop	{r3, r4, r5, pc}
 8005ae8:	240140d4 	.word	0x240140d4

08005aec <sprintf>:
 8005aec:	b40e      	push	{r1, r2, r3}
 8005aee:	b500      	push	{lr}
 8005af0:	b09c      	sub	sp, #112	; 0x70
 8005af2:	ab1d      	add	r3, sp, #116	; 0x74
 8005af4:	9002      	str	r0, [sp, #8]
 8005af6:	9006      	str	r0, [sp, #24]
 8005af8:	f06f 4100 	mvn.w	r1, #2147483648	; 0x80000000
 8005afc:	4809      	ldr	r0, [pc, #36]	; (8005b24 <sprintf+0x38>)
 8005afe:	9107      	str	r1, [sp, #28]
 8005b00:	9104      	str	r1, [sp, #16]
 8005b02:	4909      	ldr	r1, [pc, #36]	; (8005b28 <sprintf+0x3c>)
 8005b04:	f853 2b04 	ldr.w	r2, [r3], #4
 8005b08:	9105      	str	r1, [sp, #20]
 8005b0a:	6800      	ldr	r0, [r0, #0]
 8005b0c:	9301      	str	r3, [sp, #4]
 8005b0e:	a902      	add	r1, sp, #8
 8005b10:	f000 f80e 	bl	8005b30 <_svfprintf_r>
 8005b14:	9b02      	ldr	r3, [sp, #8]
 8005b16:	2200      	movs	r2, #0
 8005b18:	701a      	strb	r2, [r3, #0]
 8005b1a:	b01c      	add	sp, #112	; 0x70
 8005b1c:	f85d eb04 	ldr.w	lr, [sp], #4
 8005b20:	b003      	add	sp, #12
 8005b22:	4770      	bx	lr
 8005b24:	24000014 	.word	0x24000014
 8005b28:	ffff0208 	.word	0xffff0208
 8005b2c:	00000000 	.word	0x00000000

08005b30 <_svfprintf_r>:
 8005b30:	e92d 4ff0 	stmdb	sp!, {r4, r5, r6, r7, r8, r9, sl, fp, lr}
 8005b34:	ed2d 8b04 	vpush	{d8-d9}
 8005b38:	b0cb      	sub	sp, #300	; 0x12c
 8005b3a:	468b      	mov	fp, r1
 8005b3c:	4691      	mov	r9, r2
 8005b3e:	461e      	mov	r6, r3
 8005b40:	9002      	str	r0, [sp, #8]
 8005b42:	f002 f8dd 	bl	8007d00 <_localeconv_r>
 8005b46:	6803      	ldr	r3, [r0, #0]
 8005b48:	930f      	str	r3, [sp, #60]	; 0x3c
 8005b4a:	4618      	mov	r0, r3
 8005b4c:	f7fa fc18 	bl	8000380 <strlen>
 8005b50:	f8bb 300c 	ldrh.w	r3, [fp, #12]
 8005b54:	9009      	str	r0, [sp, #36]	; 0x24
 8005b56:	0618      	lsls	r0, r3, #24
 8005b58:	d51a      	bpl.n	8005b90 <_svfprintf_r+0x60>
 8005b5a:	f8db 3010 	ldr.w	r3, [fp, #16]
 8005b5e:	b9bb      	cbnz	r3, 8005b90 <_svfprintf_r+0x60>
 8005b60:	2140      	movs	r1, #64	; 0x40
 8005b62:	9802      	ldr	r0, [sp, #8]
 8005b64:	f7ff fd5c 	bl	8005620 <_malloc_r>
 8005b68:	f8cb 0000 	str.w	r0, [fp]
 8005b6c:	f8cb 0010 	str.w	r0, [fp, #16]
 8005b70:	b958      	cbnz	r0, 8005b8a <_svfprintf_r+0x5a>
 8005b72:	9a02      	ldr	r2, [sp, #8]
 8005b74:	230c      	movs	r3, #12
 8005b76:	6013      	str	r3, [r2, #0]
 8005b78:	f04f 33ff 	mov.w	r3, #4294967295
 8005b7c:	930a      	str	r3, [sp, #40]	; 0x28
 8005b7e:	980a      	ldr	r0, [sp, #40]	; 0x28
 8005b80:	b04b      	add	sp, #300	; 0x12c
 8005b82:	ecbd 8b04 	vpop	{d8-d9}
 8005b86:	e8bd 8ff0 	ldmia.w	sp!, {r4, r5, r6, r7, r8, r9, sl, fp, pc}
 8005b8a:	2340      	movs	r3, #64	; 0x40
 8005b8c:	f8cb 3014 	str.w	r3, [fp, #20]
 8005b90:	2300      	movs	r3, #0
 8005b92:	e9cd 331f 	strd	r3, r3, [sp, #124]	; 0x7c
 8005b96:	ed9f 8bc6 	vldr	d8, [pc, #792]	; 8005eb0 <_svfprintf_r+0x380>
 8005b9a:	e9cd 3310 	strd	r3, r3, [sp, #64]	; 0x40
 8005b9e:	ac21      	add	r4, sp, #132	; 0x84
 8005ba0:	941e      	str	r4, [sp, #120]	; 0x78
 8005ba2:	9303      	str	r3, [sp, #12]
 8005ba4:	9307      	str	r3, [sp, #28]
 8005ba6:	930e      	str	r3, [sp, #56]	; 0x38
 8005ba8:	9312      	str	r3, [sp, #72]	; 0x48
 8005baa:	930a      	str	r3, [sp, #40]	; 0x28
 8005bac:	464d      	mov	r5, r9
 8005bae:	462b      	mov	r3, r5
 8005bb0:	f813 2b01 	ldrb.w	r2, [r3], #1
 8005bb4:	b112      	cbz	r2, 8005bbc <_svfprintf_r+0x8c>
 8005bb6:	2a25      	cmp	r2, #37	; 0x25
 8005bb8:	f040 80e4 	bne.w	8005d84 <_svfprintf_r+0x254>
 8005bbc:	ebb5 0709 	subs.w	r7, r5, r9
 8005bc0:	d00e      	beq.n	8005be0 <_svfprintf_r+0xb0>
 8005bc2:	9b20      	ldr	r3, [sp, #128]	; 0x80
 8005bc4:	443b      	add	r3, r7
 8005bc6:	9320      	str	r3, [sp, #128]	; 0x80
 8005bc8:	9b1f      	ldr	r3, [sp, #124]	; 0x7c
 8005bca:	3301      	adds	r3, #1
 8005bcc:	2b07      	cmp	r3, #7
 8005bce:	e9c4 9700 	strd	r9, r7, [r4]
 8005bd2:	931f      	str	r3, [sp, #124]	; 0x7c
 8005bd4:	f300 80d8 	bgt.w	8005d88 <_svfprintf_r+0x258>
 8005bd8:	3408      	adds	r4, #8
 8005bda:	9b0a      	ldr	r3, [sp, #40]	; 0x28
 8005bdc:	443b      	add	r3, r7
 8005bde:	930a      	str	r3, [sp, #40]	; 0x28
 8005be0:	782b      	ldrb	r3, [r5, #0]
 8005be2:	2b00      	cmp	r3, #0
 8005be4:	f001 8174 	beq.w	8006ed0 <_svfprintf_r+0x13a0>
 8005be8:	1c6b      	adds	r3, r5, #1
 8005bea:	9308      	str	r3, [sp, #32]
 8005bec:	2300      	movs	r3, #0
 8005bee:	f88d 305b 	strb.w	r3, [sp, #91]	; 0x5b
 8005bf2:	f04f 38ff 	mov.w	r8, #4294967295
 8005bf6:	930b      	str	r3, [sp, #44]	; 0x2c
 8005bf8:	461d      	mov	r5, r3
 8005bfa:	9b08      	ldr	r3, [sp, #32]
 8005bfc:	781b      	ldrb	r3, [r3, #0]
 8005bfe:	9304      	str	r3, [sp, #16]
 8005c00:	9b08      	ldr	r3, [sp, #32]
 8005c02:	3301      	adds	r3, #1
 8005c04:	9308      	str	r3, [sp, #32]
 8005c06:	9b04      	ldr	r3, [sp, #16]
 8005c08:	3b20      	subs	r3, #32
 8005c0a:	2b5a      	cmp	r3, #90	; 0x5a
 8005c0c:	f200 85e5 	bhi.w	80067da <_svfprintf_r+0xcaa>
 8005c10:	a201      	add	r2, pc, #4	; (adr r2, 8005c18 <_svfprintf_r+0xe8>)
 8005c12:	f852 f023 	ldr.w	pc, [r2, r3, lsl #2]
 8005c16:	bf00      	nop
 8005c18:	08005e17 	.word	0x08005e17
 8005c1c:	080067db 	.word	0x080067db
 8005c20:	080067db 	.word	0x080067db
 8005c24:	08005e29 	.word	0x08005e29
 8005c28:	080067db 	.word	0x080067db
 8005c2c:	080067db 	.word	0x080067db
 8005c30:	080067db 	.word	0x080067db
 8005c34:	08005ddd 	.word	0x08005ddd
 8005c38:	080067db 	.word	0x080067db
 8005c3c:	080067db 	.word	0x080067db
 8005c40:	08005e2f 	.word	0x08005e2f
 8005c44:	08005e47 	.word	0x08005e47
 8005c48:	080067db 	.word	0x080067db
 8005c4c:	08005e41 	.word	0x08005e41
 8005c50:	08005e4b 	.word	0x08005e4b
 8005c54:	080067db 	.word	0x080067db
 8005c58:	08005e83 	.word	0x08005e83
 8005c5c:	08005e89 	.word	0x08005e89
 8005c60:	08005e89 	.word	0x08005e89
 8005c64:	08005e89 	.word	0x08005e89
 8005c68:	08005e89 	.word	0x08005e89
 8005c6c:	08005e89 	.word	0x08005e89
 8005c70:	08005e89 	.word	0x08005e89
 8005c74:	08005e89 	.word	0x08005e89
 8005c78:	08005e89 	.word	0x08005e89
 8005c7c:	08005e89 	.word	0x08005e89
 8005c80:	080067db 	.word	0x080067db
 8005c84:	080067db 	.word	0x080067db
 8005c88:	080067db 	.word	0x080067db
 8005c8c:	080067db 	.word	0x080067db
 8005c90:	080067db 	.word	0x080067db
 8005c94:	080067db 	.word	0x080067db
 8005c98:	080067db 	.word	0x080067db
 8005c9c:	08005f83 	.word	0x08005f83
 8005ca0:	080067db 	.word	0x080067db
 8005ca4:	08005ef1 	.word	0x08005ef1
 8005ca8:	08005f15 	.word	0x08005f15
 8005cac:	08005f83 	.word	0x08005f83
 8005cb0:	08005f83 	.word	0x08005f83
 8005cb4:	08005f83 	.word	0x08005f83
 8005cb8:	080067db 	.word	0x080067db
 8005cbc:	080067db 	.word	0x080067db
 8005cc0:	080067db 	.word	0x080067db
 8005cc4:	080067db 	.word	0x080067db
 8005cc8:	08005eab 	.word	0x08005eab
 8005ccc:	080067db 	.word	0x080067db
 8005cd0:	080067db 	.word	0x080067db
 8005cd4:	080063f7 	.word	0x080063f7
 8005cd8:	080067db 	.word	0x080067db
 8005cdc:	080067db 	.word	0x080067db
 8005ce0:	080067db 	.word	0x080067db
 8005ce4:	0800647f 	.word	0x0800647f
 8005ce8:	080067db 	.word	0x080067db
 8005cec:	08006657 	.word	0x08006657
 8005cf0:	080067db 	.word	0x080067db
 8005cf4:	080067db 	.word	0x080067db
 8005cf8:	08005da1 	.word	0x08005da1
 8005cfc:	080067db 	.word	0x080067db
 8005d00:	080067db 	.word	0x080067db
 8005d04:	080067db 	.word	0x080067db
 8005d08:	080067db 	.word	0x080067db
 8005d0c:	080067db 	.word	0x080067db
 8005d10:	080067db 	.word	0x080067db
 8005d14:	080067db 	.word	0x080067db
 8005d18:	080067db 	.word	0x080067db
 8005d1c:	08005f83 	.word	0x08005f83
 8005d20:	080067db 	.word	0x080067db
 8005d24:	08005ef1 	.word	0x08005ef1
 8005d28:	08005f19 	.word	0x08005f19
 8005d2c:	08005f83 	.word	0x08005f83
 8005d30:	08005f83 	.word	0x08005f83
 8005d34:	08005f83 	.word	0x08005f83
 8005d38:	08005ebd 	.word	0x08005ebd
 8005d3c:	08005f19 	.word	0x08005f19
 8005d40:	08005ee5 	.word	0x08005ee5
 8005d44:	080067db 	.word	0x080067db
 8005d48:	08005ed7 	.word	0x08005ed7
 8005d4c:	080067db 	.word	0x080067db
 8005d50:	080063b9 	.word	0x080063b9
 8005d54:	080063fb 	.word	0x080063fb
 8005d58:	0800645f 	.word	0x0800645f
 8005d5c:	08005ee5 	.word	0x08005ee5
 8005d60:	080067db 	.word	0x080067db
 8005d64:	0800647f 	.word	0x0800647f
 8005d68:	08005bfb 	.word	0x08005bfb
 8005d6c:	0800665b 	.word	0x0800665b
 8005d70:	080067db 	.word	0x080067db
 8005d74:	080067db 	.word	0x080067db
 8005d78:	08006691 	.word	0x08006691
 8005d7c:	080067db 	.word	0x080067db
 8005d80:	08005bfb 	.word	0x08005bfb
 8005d84:	461d      	mov	r5, r3
 8005d86:	e712      	b.n	8005bae <_svfprintf_r+0x7e>
 8005d88:	aa1e      	add	r2, sp, #120	; 0x78
 8005d8a:	4659      	mov	r1, fp
 8005d8c:	9802      	ldr	r0, [sp, #8]
 8005d8e:	f002 fac6 	bl	800831e <__ssprint_r>
 8005d92:	2800      	cmp	r0, #0
 8005d94:	f040 8150 	bne.w	8006038 <_svfprintf_r+0x508>
 8005d98:	ac21      	add	r4, sp, #132	; 0x84
 8005d9a:	e71e      	b.n	8005bda <_svfprintf_r+0xaa>
 8005d9c:	461e      	mov	r6, r3
 8005d9e:	e72c      	b.n	8005bfa <_svfprintf_r+0xca>
 8005da0:	4b45      	ldr	r3, [pc, #276]	; (8005eb8 <_svfprintf_r+0x388>)
 8005da2:	9311      	str	r3, [sp, #68]	; 0x44
 8005da4:	06af      	lsls	r7, r5, #26
 8005da6:	f140 8476 	bpl.w	8006696 <_svfprintf_r+0xb66>
 8005daa:	3607      	adds	r6, #7
 8005dac:	f026 0607 	bic.w	r6, r6, #7
 8005db0:	f106 0308 	add.w	r3, r6, #8
 8005db4:	e9d6 6700 	ldrd	r6, r7, [r6]
 8005db8:	9306      	str	r3, [sp, #24]
 8005dba:	07eb      	lsls	r3, r5, #31
 8005dbc:	d50a      	bpl.n	8005dd4 <_svfprintf_r+0x2a4>
 8005dbe:	ea56 0307 	orrs.w	r3, r6, r7
 8005dc2:	d007      	beq.n	8005dd4 <_svfprintf_r+0x2a4>
 8005dc4:	2330      	movs	r3, #48	; 0x30
 8005dc6:	f88d 305c 	strb.w	r3, [sp, #92]	; 0x5c
 8005dca:	9b04      	ldr	r3, [sp, #16]
 8005dcc:	f88d 305d 	strb.w	r3, [sp, #93]	; 0x5d
 8005dd0:	f045 0502 	orr.w	r5, r5, #2
 8005dd4:	f425 6580 	bic.w	r5, r5, #1024	; 0x400
 8005dd8:	2302      	movs	r3, #2
 8005dda:	e31b      	b.n	8006414 <_svfprintf_r+0x8e4>
 8005ddc:	9802      	ldr	r0, [sp, #8]
 8005dde:	f001 ff8f 	bl	8007d00 <_localeconv_r>
 8005de2:	6843      	ldr	r3, [r0, #4]
 8005de4:	9312      	str	r3, [sp, #72]	; 0x48
 8005de6:	4618      	mov	r0, r3
 8005de8:	f7fa faca 	bl	8000380 <strlen>
 8005dec:	900e      	str	r0, [sp, #56]	; 0x38
 8005dee:	9802      	ldr	r0, [sp, #8]
 8005df0:	f001 ff86 	bl	8007d00 <_localeconv_r>
 8005df4:	6883      	ldr	r3, [r0, #8]
 8005df6:	9307      	str	r3, [sp, #28]
 8005df8:	9b0e      	ldr	r3, [sp, #56]	; 0x38
 8005dfa:	2b00      	cmp	r3, #0
 8005dfc:	f43f aefd 	beq.w	8005bfa <_svfprintf_r+0xca>
 8005e00:	9b07      	ldr	r3, [sp, #28]
 8005e02:	2b00      	cmp	r3, #0
 8005e04:	f43f aef9 	beq.w	8005bfa <_svfprintf_r+0xca>
 8005e08:	781b      	ldrb	r3, [r3, #0]
 8005e0a:	2b00      	cmp	r3, #0
 8005e0c:	f43f aef5 	beq.w	8005bfa <_svfprintf_r+0xca>
 8005e10:	f445 6580 	orr.w	r5, r5, #1024	; 0x400
 8005e14:	e6f1      	b.n	8005bfa <_svfprintf_r+0xca>
 8005e16:	f89d 305b 	ldrb.w	r3, [sp, #91]	; 0x5b
 8005e1a:	2b00      	cmp	r3, #0
 8005e1c:	f47f aeed 	bne.w	8005bfa <_svfprintf_r+0xca>
 8005e20:	2320      	movs	r3, #32
 8005e22:	f88d 305b 	strb.w	r3, [sp, #91]	; 0x5b
 8005e26:	e6e8      	b.n	8005bfa <_svfprintf_r+0xca>
 8005e28:	f045 0501 	orr.w	r5, r5, #1
 8005e2c:	e6e5      	b.n	8005bfa <_svfprintf_r+0xca>
 8005e2e:	6832      	ldr	r2, [r6, #0]
 8005e30:	920b      	str	r2, [sp, #44]	; 0x2c
 8005e32:	2a00      	cmp	r2, #0
 8005e34:	f106 0304 	add.w	r3, r6, #4
 8005e38:	dab0      	bge.n	8005d9c <_svfprintf_r+0x26c>
 8005e3a:	4252      	negs	r2, r2
 8005e3c:	920b      	str	r2, [sp, #44]	; 0x2c
 8005e3e:	461e      	mov	r6, r3
 8005e40:	f045 0504 	orr.w	r5, r5, #4
 8005e44:	e6d9      	b.n	8005bfa <_svfprintf_r+0xca>
 8005e46:	232b      	movs	r3, #43	; 0x2b
 8005e48:	e7eb      	b.n	8005e22 <_svfprintf_r+0x2f2>
 8005e4a:	9a08      	ldr	r2, [sp, #32]
 8005e4c:	9b08      	ldr	r3, [sp, #32]
 8005e4e:	7812      	ldrb	r2, [r2, #0]
 8005e50:	9204      	str	r2, [sp, #16]
 8005e52:	2a2a      	cmp	r2, #42	; 0x2a
 8005e54:	f103 0301 	add.w	r3, r3, #1
 8005e58:	d110      	bne.n	8005e7c <_svfprintf_r+0x34c>
 8005e5a:	6832      	ldr	r2, [r6, #0]
 8005e5c:	9308      	str	r3, [sp, #32]
 8005e5e:	ea42 78e2 	orr.w	r8, r2, r2, asr #31
 8005e62:	3604      	adds	r6, #4
 8005e64:	e6c9      	b.n	8005bfa <_svfprintf_r+0xca>
 8005e66:	210a      	movs	r1, #10
 8005e68:	fb01 2808 	mla	r8, r1, r8, r2
 8005e6c:	f813 2b01 	ldrb.w	r2, [r3], #1
 8005e70:	9204      	str	r2, [sp, #16]
 8005e72:	9a04      	ldr	r2, [sp, #16]
 8005e74:	3a30      	subs	r2, #48	; 0x30
 8005e76:	2a09      	cmp	r2, #9
 8005e78:	d9f5      	bls.n	8005e66 <_svfprintf_r+0x336>
 8005e7a:	e6c3      	b.n	8005c04 <_svfprintf_r+0xd4>
 8005e7c:	f04f 0800 	mov.w	r8, #0
 8005e80:	e7f7      	b.n	8005e72 <_svfprintf_r+0x342>
 8005e82:	f045 0580 	orr.w	r5, r5, #128	; 0x80
 8005e86:	e6b8      	b.n	8005bfa <_svfprintf_r+0xca>
 8005e88:	2200      	movs	r2, #0
 8005e8a:	9b08      	ldr	r3, [sp, #32]
 8005e8c:	920b      	str	r2, [sp, #44]	; 0x2c
 8005e8e:	9a04      	ldr	r2, [sp, #16]
 8005e90:	990b      	ldr	r1, [sp, #44]	; 0x2c
 8005e92:	3a30      	subs	r2, #48	; 0x30
 8005e94:	200a      	movs	r0, #10
 8005e96:	fb00 2201 	mla	r2, r0, r1, r2
 8005e9a:	920b      	str	r2, [sp, #44]	; 0x2c
 8005e9c:	f813 2b01 	ldrb.w	r2, [r3], #1
 8005ea0:	9204      	str	r2, [sp, #16]
 8005ea2:	3a30      	subs	r2, #48	; 0x30
 8005ea4:	2a09      	cmp	r2, #9
 8005ea6:	d9f2      	bls.n	8005e8e <_svfprintf_r+0x35e>
 8005ea8:	e6ac      	b.n	8005c04 <_svfprintf_r+0xd4>
 8005eaa:	f045 0508 	orr.w	r5, r5, #8
 8005eae:	e6a4      	b.n	8005bfa <_svfprintf_r+0xca>
	...
 8005eb8:	08008a49 	.word	0x08008a49
 8005ebc:	9b08      	ldr	r3, [sp, #32]
 8005ebe:	781b      	ldrb	r3, [r3, #0]
 8005ec0:	2b68      	cmp	r3, #104	; 0x68
 8005ec2:	bf01      	itttt	eq
 8005ec4:	9b08      	ldreq	r3, [sp, #32]
 8005ec6:	3301      	addeq	r3, #1
 8005ec8:	9308      	streq	r3, [sp, #32]
 8005eca:	f445 7500 	orreq.w	r5, r5, #512	; 0x200
 8005ece:	bf18      	it	ne
 8005ed0:	f045 0540 	orrne.w	r5, r5, #64	; 0x40
 8005ed4:	e691      	b.n	8005bfa <_svfprintf_r+0xca>
 8005ed6:	9b08      	ldr	r3, [sp, #32]
 8005ed8:	781b      	ldrb	r3, [r3, #0]
 8005eda:	2b6c      	cmp	r3, #108	; 0x6c
 8005edc:	d105      	bne.n	8005eea <_svfprintf_r+0x3ba>
 8005ede:	9b08      	ldr	r3, [sp, #32]
 8005ee0:	3301      	adds	r3, #1
 8005ee2:	9308      	str	r3, [sp, #32]
 8005ee4:	f045 0520 	orr.w	r5, r5, #32
 8005ee8:	e687      	b.n	8005bfa <_svfprintf_r+0xca>
 8005eea:	f045 0510 	orr.w	r5, r5, #16
 8005eee:	e684      	b.n	8005bfa <_svfprintf_r+0xca>
 8005ef0:	1d33      	adds	r3, r6, #4
 8005ef2:	9306      	str	r3, [sp, #24]
 8005ef4:	6833      	ldr	r3, [r6, #0]
 8005ef6:	f88d 30c4 	strb.w	r3, [sp, #196]	; 0xc4
 8005efa:	2300      	movs	r3, #0
 8005efc:	f88d 305b 	strb.w	r3, [sp, #91]	; 0x5b
 8005f00:	469a      	mov	sl, r3
 8005f02:	f04f 0801 	mov.w	r8, #1
 8005f06:	930c      	str	r3, [sp, #48]	; 0x30
 8005f08:	461f      	mov	r7, r3
 8005f0a:	9305      	str	r3, [sp, #20]
 8005f0c:	461e      	mov	r6, r3
 8005f0e:	f10d 09c4 	add.w	r9, sp, #196	; 0xc4
 8005f12:	e2ce      	b.n	80064b2 <_svfprintf_r+0x982>
 8005f14:	f045 0510 	orr.w	r5, r5, #16
 8005f18:	06a9      	lsls	r1, r5, #26
 8005f1a:	d521      	bpl.n	8005f60 <_svfprintf_r+0x430>
 8005f1c:	3607      	adds	r6, #7
 8005f1e:	f026 0607 	bic.w	r6, r6, #7
 8005f22:	f106 0308 	add.w	r3, r6, #8
 8005f26:	e9d6 6700 	ldrd	r6, r7, [r6]
 8005f2a:	9306      	str	r3, [sp, #24]
 8005f2c:	2e00      	cmp	r6, #0
 8005f2e:	f177 0300 	sbcs.w	r3, r7, #0
 8005f32:	da06      	bge.n	8005f42 <_svfprintf_r+0x412>
 8005f34:	4276      	negs	r6, r6
 8005f36:	f04f 032d 	mov.w	r3, #45	; 0x2d
 8005f3a:	eb67 0747 	sbc.w	r7, r7, r7, lsl #1
 8005f3e:	f88d 305b 	strb.w	r3, [sp, #91]	; 0x5b
 8005f42:	f1b8 3fff 	cmp.w	r8, #4294967295
 8005f46:	f040 83b6 	bne.w	80066b6 <_svfprintf_r+0xb86>
 8005f4a:	2f00      	cmp	r7, #0
 8005f4c:	bf08      	it	eq
 8005f4e:	2e0a      	cmpeq	r6, #10
 8005f50:	f080 83e8 	bcs.w	8006724 <_svfprintf_r+0xbf4>
 8005f54:	f50d 7994 	add.w	r9, sp, #296	; 0x128
 8005f58:	3630      	adds	r6, #48	; 0x30
 8005f5a:	f809 6d01 	strb.w	r6, [r9, #-1]!
 8005f5e:	e3cc      	b.n	80066fa <_svfprintf_r+0xbca>
 8005f60:	1d33      	adds	r3, r6, #4
 8005f62:	06ea      	lsls	r2, r5, #27
 8005f64:	9306      	str	r3, [sp, #24]
 8005f66:	d502      	bpl.n	8005f6e <_svfprintf_r+0x43e>
 8005f68:	6836      	ldr	r6, [r6, #0]
 8005f6a:	17f7      	asrs	r7, r6, #31
 8005f6c:	e7de      	b.n	8005f2c <_svfprintf_r+0x3fc>
 8005f6e:	f015 0f40 	tst.w	r5, #64	; 0x40
 8005f72:	6836      	ldr	r6, [r6, #0]
 8005f74:	d001      	beq.n	8005f7a <_svfprintf_r+0x44a>
 8005f76:	b236      	sxth	r6, r6
 8005f78:	e7f7      	b.n	8005f6a <_svfprintf_r+0x43a>
 8005f7a:	05ab      	lsls	r3, r5, #22
 8005f7c:	bf48      	it	mi
 8005f7e:	b276      	sxtbmi	r6, r6
 8005f80:	e7f3      	b.n	8005f6a <_svfprintf_r+0x43a>
 8005f82:	3607      	adds	r6, #7
 8005f84:	f026 0607 	bic.w	r6, r6, #7
 8005f88:	ed96 8b00 	vldr	d8, [r6]
 8005f8c:	ed9f 7bb0 	vldr	d7, [pc, #704]	; 8006250 <_svfprintf_r+0x720>
 8005f90:	eeb0 6bc8 	vabs.f64	d6, d8
 8005f94:	f106 0308 	add.w	r3, r6, #8
 8005f98:	eeb4 6b47 	vcmp.f64	d6, d7
 8005f9c:	eef1 fa10 	vmrs	APSR_nzcv, fpscr
 8005fa0:	9306      	str	r3, [sp, #24]
 8005fa2:	dd17      	ble.n	8005fd4 <_svfprintf_r+0x4a4>
 8005fa4:	eeb5 8bc0 	vcmpe.f64	d8, #0.0
 8005fa8:	eef1 fa10 	vmrs	APSR_nzcv, fpscr
 8005fac:	d502      	bpl.n	8005fb4 <_svfprintf_r+0x484>
 8005fae:	232d      	movs	r3, #45	; 0x2d
 8005fb0:	f88d 305b 	strb.w	r3, [sp, #91]	; 0x5b
 8005fb4:	4aa8      	ldr	r2, [pc, #672]	; (8006258 <_svfprintf_r+0x728>)
 8005fb6:	4ba9      	ldr	r3, [pc, #676]	; (800625c <_svfprintf_r+0x72c>)
 8005fb8:	9904      	ldr	r1, [sp, #16]
 8005fba:	f025 0580 	bic.w	r5, r5, #128	; 0x80
 8005fbe:	2947      	cmp	r1, #71	; 0x47
 8005fc0:	bfcc      	ite	gt
 8005fc2:	4691      	movgt	r9, r2
 8005fc4:	4699      	movle	r9, r3
 8005fc6:	f04f 0a00 	mov.w	sl, #0
 8005fca:	f04f 0803 	mov.w	r8, #3
 8005fce:	f8cd a030 	str.w	sl, [sp, #48]	; 0x30
 8005fd2:	e399      	b.n	8006708 <_svfprintf_r+0xbd8>
 8005fd4:	eeb4 8b48 	vcmp.f64	d8, d8
 8005fd8:	eef1 fa10 	vmrs	APSR_nzcv, fpscr
 8005fdc:	d709      	bvc.n	8005ff2 <_svfprintf_r+0x4c2>
 8005fde:	ee18 3a90 	vmov	r3, s17
 8005fe2:	2b00      	cmp	r3, #0
 8005fe4:	bfbc      	itt	lt
 8005fe6:	232d      	movlt	r3, #45	; 0x2d
 8005fe8:	f88d 305b 	strblt.w	r3, [sp, #91]	; 0x5b
 8005fec:	4a9c      	ldr	r2, [pc, #624]	; (8006260 <_svfprintf_r+0x730>)
 8005fee:	4b9d      	ldr	r3, [pc, #628]	; (8006264 <_svfprintf_r+0x734>)
 8005ff0:	e7e2      	b.n	8005fb8 <_svfprintf_r+0x488>
 8005ff2:	9b04      	ldr	r3, [sp, #16]
 8005ff4:	f023 0720 	bic.w	r7, r3, #32
 8005ff8:	2f41      	cmp	r7, #65	; 0x41
 8005ffa:	d126      	bne.n	800604a <_svfprintf_r+0x51a>
 8005ffc:	2330      	movs	r3, #48	; 0x30
 8005ffe:	f88d 305c 	strb.w	r3, [sp, #92]	; 0x5c
 8006002:	9b04      	ldr	r3, [sp, #16]
 8006004:	2b61      	cmp	r3, #97	; 0x61
 8006006:	bf14      	ite	ne
 8006008:	2358      	movne	r3, #88	; 0x58
 800600a:	2378      	moveq	r3, #120	; 0x78
 800600c:	f1b8 0f63 	cmp.w	r8, #99	; 0x63
 8006010:	f88d 305d 	strb.w	r3, [sp, #93]	; 0x5d
 8006014:	f045 0502 	orr.w	r5, r5, #2
 8006018:	dd24      	ble.n	8006064 <_svfprintf_r+0x534>
 800601a:	f108 0101 	add.w	r1, r8, #1
 800601e:	9802      	ldr	r0, [sp, #8]
 8006020:	f7ff fafe 	bl	8005620 <_malloc_r>
 8006024:	4681      	mov	r9, r0
 8006026:	2800      	cmp	r0, #0
 8006028:	f040 80ec 	bne.w	8006204 <_svfprintf_r+0x6d4>
 800602c:	f8bb 300c 	ldrh.w	r3, [fp, #12]
 8006030:	f043 0340 	orr.w	r3, r3, #64	; 0x40
 8006034:	f8ab 300c 	strh.w	r3, [fp, #12]
 8006038:	f8bb 300c 	ldrh.w	r3, [fp, #12]
 800603c:	f013 0f40 	tst.w	r3, #64	; 0x40
 8006040:	9b0a      	ldr	r3, [sp, #40]	; 0x28
 8006042:	bf18      	it	ne
 8006044:	f04f 33ff 	movne.w	r3, #4294967295
 8006048:	e598      	b.n	8005b7c <_svfprintf_r+0x4c>
 800604a:	f1b8 3fff 	cmp.w	r8, #4294967295
 800604e:	f000 80db 	beq.w	8006208 <_svfprintf_r+0x6d8>
 8006052:	2f47      	cmp	r7, #71	; 0x47
 8006054:	d103      	bne.n	800605e <_svfprintf_r+0x52e>
 8006056:	f1b8 0f00 	cmp.w	r8, #0
 800605a:	f000 80da 	beq.w	8006212 <_svfprintf_r+0x6e2>
 800605e:	f04f 0a00 	mov.w	sl, #0
 8006062:	e003      	b.n	800606c <_svfprintf_r+0x53c>
 8006064:	f04f 0a00 	mov.w	sl, #0
 8006068:	f10d 09c4 	add.w	r9, sp, #196	; 0xc4
 800606c:	f445 7380 	orr.w	r3, r5, #256	; 0x100
 8006070:	930c      	str	r3, [sp, #48]	; 0x30
 8006072:	ee18 3a90 	vmov	r3, s17
 8006076:	2b00      	cmp	r3, #0
 8006078:	f280 80cf 	bge.w	800621a <_svfprintf_r+0x6ea>
 800607c:	eeb1 9b48 	vneg.f64	d9, d8
 8006080:	232d      	movs	r3, #45	; 0x2d
 8006082:	2f41      	cmp	r7, #65	; 0x41
 8006084:	930d      	str	r3, [sp, #52]	; 0x34
 8006086:	f040 80d9 	bne.w	800623c <_svfprintf_r+0x70c>
 800608a:	eeb0 0b49 	vmov.f64	d0, d9
 800608e:	a818      	add	r0, sp, #96	; 0x60
 8006090:	f002 f8f6 	bl	8008280 <frexp>
 8006094:	eeb4 7b00 	vmov.f64	d7, #64	; 0x3e000000  0.125
 8006098:	ee20 0b07 	vmul.f64	d0, d0, d7
 800609c:	eeb5 0b40 	vcmp.f64	d0, #0.0
 80060a0:	eef1 fa10 	vmrs	APSR_nzcv, fpscr
 80060a4:	bf04      	itt	eq
 80060a6:	2301      	moveq	r3, #1
 80060a8:	9318      	streq	r3, [sp, #96]	; 0x60
 80060aa:	9a04      	ldr	r2, [sp, #16]
 80060ac:	4b6e      	ldr	r3, [pc, #440]	; (8006268 <_svfprintf_r+0x738>)
 80060ae:	496f      	ldr	r1, [pc, #444]	; (800626c <_svfprintf_r+0x73c>)
 80060b0:	eeb3 7b00 	vmov.f64	d7, #48	; 0x41800000  16.0
 80060b4:	2a61      	cmp	r2, #97	; 0x61
 80060b6:	bf08      	it	eq
 80060b8:	4619      	moveq	r1, r3
 80060ba:	f108 32ff 	add.w	r2, r8, #4294967295
 80060be:	464b      	mov	r3, r9
 80060c0:	ee20 0b07 	vmul.f64	d0, d0, d7
 80060c4:	eefd 6bc0 	vcvt.s32.f64	s13, d0
 80060c8:	f1b2 3fff 	cmp.w	r2, #4294967295
 80060cc:	ee16 0a90 	vmov	r0, s13
 80060d0:	5c0e      	ldrb	r6, [r1, r0]
 80060d2:	f803 6b01 	strb.w	r6, [r3], #1
 80060d6:	eeb8 6be6 	vcvt.f64.s32	d6, s13
 80060da:	4616      	mov	r6, r2
 80060dc:	ee30 0b46 	vsub.f64	d0, d0, d6
 80060e0:	d006      	beq.n	80060f0 <_svfprintf_r+0x5c0>
 80060e2:	eeb5 0b40 	vcmp.f64	d0, #0.0
 80060e6:	eef1 fa10 	vmrs	APSR_nzcv, fpscr
 80060ea:	f102 32ff 	add.w	r2, r2, #4294967295
 80060ee:	d1e7      	bne.n	80060c0 <_svfprintf_r+0x590>
 80060f0:	eeb6 7b00 	vmov.f64	d7, #96	; 0x3f000000  0.5
 80060f4:	eeb4 0bc7 	vcmpe.f64	d0, d7
 80060f8:	eef1 fa10 	vmrs	APSR_nzcv, fpscr
 80060fc:	dc08      	bgt.n	8006110 <_svfprintf_r+0x5e0>
 80060fe:	eeb4 0b47 	vcmp.f64	d0, d7
 8006102:	eef1 fa10 	vmrs	APSR_nzcv, fpscr
 8006106:	f040 8095 	bne.w	8006234 <_svfprintf_r+0x704>
 800610a:	07c0      	lsls	r0, r0, #31
 800610c:	f140 8092 	bpl.w	8006234 <_svfprintf_r+0x704>
 8006110:	7bce      	ldrb	r6, [r1, #15]
 8006112:	931c      	str	r3, [sp, #112]	; 0x70
 8006114:	f04f 0c30 	mov.w	ip, #48	; 0x30
 8006118:	981c      	ldr	r0, [sp, #112]	; 0x70
 800611a:	1e42      	subs	r2, r0, #1
 800611c:	921c      	str	r2, [sp, #112]	; 0x70
 800611e:	f810 2c01 	ldrb.w	r2, [r0, #-1]
 8006122:	42b2      	cmp	r2, r6
 8006124:	d07d      	beq.n	8006222 <_svfprintf_r+0x6f2>
 8006126:	2a39      	cmp	r2, #57	; 0x39
 8006128:	bf16      	itet	ne
 800612a:	3201      	addne	r2, #1
 800612c:	7a8a      	ldrbeq	r2, [r1, #10]
 800612e:	b2d2      	uxtbne	r2, r2
 8006130:	f800 2c01 	strb.w	r2, [r0, #-1]
 8006134:	461a      	mov	r2, r3
 8006136:	eba2 0309 	sub.w	r3, r2, r9
 800613a:	2f47      	cmp	r7, #71	; 0x47
 800613c:	9303      	str	r3, [sp, #12]
 800613e:	9e18      	ldr	r6, [sp, #96]	; 0x60
 8006140:	f040 80ce 	bne.w	80062e0 <_svfprintf_r+0x7b0>
 8006144:	1cf2      	adds	r2, r6, #3
 8006146:	db02      	blt.n	800614e <_svfprintf_r+0x61e>
 8006148:	45b0      	cmp	r8, r6
 800614a:	f280 80f5 	bge.w	8006338 <_svfprintf_r+0x808>
 800614e:	9b04      	ldr	r3, [sp, #16]
 8006150:	3b02      	subs	r3, #2
 8006152:	9304      	str	r3, [sp, #16]
 8006154:	9904      	ldr	r1, [sp, #16]
 8006156:	f89d 2010 	ldrb.w	r2, [sp, #16]
 800615a:	f021 0120 	bic.w	r1, r1, #32
 800615e:	2941      	cmp	r1, #65	; 0x41
 8006160:	bf08      	it	eq
 8006162:	320f      	addeq	r2, #15
 8006164:	f106 33ff 	add.w	r3, r6, #4294967295
 8006168:	bf06      	itte	eq
 800616a:	b2d2      	uxtbeq	r2, r2
 800616c:	2101      	moveq	r1, #1
 800616e:	2100      	movne	r1, #0
 8006170:	2b00      	cmp	r3, #0
 8006172:	9318      	str	r3, [sp, #96]	; 0x60
 8006174:	bfb8      	it	lt
 8006176:	f1c6 0301 	rsblt	r3, r6, #1
 800617a:	f88d 2068 	strb.w	r2, [sp, #104]	; 0x68
 800617e:	bfb4      	ite	lt
 8006180:	222d      	movlt	r2, #45	; 0x2d
 8006182:	222b      	movge	r2, #43	; 0x2b
 8006184:	2b09      	cmp	r3, #9
 8006186:	f88d 2069 	strb.w	r2, [sp, #105]	; 0x69
 800618a:	f340 80c0 	ble.w	800630e <_svfprintf_r+0x7de>
 800618e:	f10d 0277 	add.w	r2, sp, #119	; 0x77
 8006192:	260a      	movs	r6, #10
 8006194:	fb93 f0f6 	sdiv	r0, r3, r6
 8006198:	fb06 3310 	mls	r3, r6, r0, r3
 800619c:	3330      	adds	r3, #48	; 0x30
 800619e:	2809      	cmp	r0, #9
 80061a0:	f802 3c01 	strb.w	r3, [r2, #-1]
 80061a4:	f102 31ff 	add.w	r1, r2, #4294967295
 80061a8:	4603      	mov	r3, r0
 80061aa:	f300 80a9 	bgt.w	8006300 <_svfprintf_r+0x7d0>
 80061ae:	3330      	adds	r3, #48	; 0x30
 80061b0:	f801 3c01 	strb.w	r3, [r1, #-1]
 80061b4:	3a02      	subs	r2, #2
 80061b6:	f10d 036a 	add.w	r3, sp, #106	; 0x6a
 80061ba:	f10d 0077 	add.w	r0, sp, #119	; 0x77
 80061be:	4282      	cmp	r2, r0
 80061c0:	4619      	mov	r1, r3
 80061c2:	f0c0 809f 	bcc.w	8006304 <_svfprintf_r+0x7d4>
 80061c6:	9a03      	ldr	r2, [sp, #12]
 80061c8:	ab1a      	add	r3, sp, #104	; 0x68
 80061ca:	1acb      	subs	r3, r1, r3
 80061cc:	2a01      	cmp	r2, #1
 80061ce:	9310      	str	r3, [sp, #64]	; 0x40
 80061d0:	eb03 0802 	add.w	r8, r3, r2
 80061d4:	dc01      	bgt.n	80061da <_svfprintf_r+0x6aa>
 80061d6:	07eb      	lsls	r3, r5, #31
 80061d8:	d501      	bpl.n	80061de <_svfprintf_r+0x6ae>
 80061da:	9b09      	ldr	r3, [sp, #36]	; 0x24
 80061dc:	4498      	add	r8, r3
 80061de:	f425 6580 	bic.w	r5, r5, #1024	; 0x400
 80061e2:	2700      	movs	r7, #0
 80061e4:	f445 7380 	orr.w	r3, r5, #256	; 0x100
 80061e8:	930c      	str	r3, [sp, #48]	; 0x30
 80061ea:	9705      	str	r7, [sp, #20]
 80061ec:	463e      	mov	r6, r7
 80061ee:	9b0d      	ldr	r3, [sp, #52]	; 0x34
 80061f0:	2b00      	cmp	r3, #0
 80061f2:	f000 82fe 	beq.w	80067f2 <_svfprintf_r+0xcc2>
 80061f6:	232d      	movs	r3, #45	; 0x2d
 80061f8:	9d0c      	ldr	r5, [sp, #48]	; 0x30
 80061fa:	f88d 305b 	strb.w	r3, [sp, #91]	; 0x5b
 80061fe:	2300      	movs	r3, #0
 8006200:	930c      	str	r3, [sp, #48]	; 0x30
 8006202:	e156      	b.n	80064b2 <_svfprintf_r+0x982>
 8006204:	4682      	mov	sl, r0
 8006206:	e731      	b.n	800606c <_svfprintf_r+0x53c>
 8006208:	f04f 0a00 	mov.w	sl, #0
 800620c:	f04f 0806 	mov.w	r8, #6
 8006210:	e72c      	b.n	800606c <_svfprintf_r+0x53c>
 8006212:	46c2      	mov	sl, r8
 8006214:	f04f 0801 	mov.w	r8, #1
 8006218:	e728      	b.n	800606c <_svfprintf_r+0x53c>
 800621a:	eeb0 9b48 	vmov.f64	d9, d8
 800621e:	2300      	movs	r3, #0
 8006220:	e72f      	b.n	8006082 <_svfprintf_r+0x552>
 8006222:	f800 cc01 	strb.w	ip, [r0, #-1]
 8006226:	e777      	b.n	8006118 <_svfprintf_r+0x5e8>
 8006228:	f802 0b01 	strb.w	r0, [r2], #1
 800622c:	1a99      	subs	r1, r3, r2
 800622e:	2900      	cmp	r1, #0
 8006230:	dafa      	bge.n	8006228 <_svfprintf_r+0x6f8>
 8006232:	e780      	b.n	8006136 <_svfprintf_r+0x606>
 8006234:	461a      	mov	r2, r3
 8006236:	2030      	movs	r0, #48	; 0x30
 8006238:	4433      	add	r3, r6
 800623a:	e7f7      	b.n	800622c <_svfprintf_r+0x6fc>
 800623c:	2f46      	cmp	r7, #70	; 0x46
 800623e:	d017      	beq.n	8006270 <_svfprintf_r+0x740>
 8006240:	2f45      	cmp	r7, #69	; 0x45
 8006242:	d146      	bne.n	80062d2 <_svfprintf_r+0x7a2>
 8006244:	f108 0601 	add.w	r6, r8, #1
 8006248:	2102      	movs	r1, #2
 800624a:	e013      	b.n	8006274 <_svfprintf_r+0x744>
 800624c:	f3af 8000 	nop.w
 8006250:	ffffffff 	.word	0xffffffff
 8006254:	7fefffff 	.word	0x7fefffff
 8006258:	08008a2c 	.word	0x08008a2c
 800625c:	08008a28 	.word	0x08008a28
 8006260:	08008a34 	.word	0x08008a34
 8006264:	08008a30 	.word	0x08008a30
 8006268:	08008a38 	.word	0x08008a38
 800626c:	08008a49 	.word	0x08008a49
 8006270:	4646      	mov	r6, r8
 8006272:	2103      	movs	r1, #3
 8006274:	ab1c      	add	r3, sp, #112	; 0x70
 8006276:	9301      	str	r3, [sp, #4]
 8006278:	ab19      	add	r3, sp, #100	; 0x64
 800627a:	9300      	str	r3, [sp, #0]
 800627c:	4632      	mov	r2, r6
 800627e:	ab18      	add	r3, sp, #96	; 0x60
 8006280:	eeb0 0b49 	vmov.f64	d0, d9
 8006284:	9802      	ldr	r0, [sp, #8]
 8006286:	f000 fedf 	bl	8007048 <_dtoa_r>
 800628a:	2f47      	cmp	r7, #71	; 0x47
 800628c:	4681      	mov	r9, r0
 800628e:	d101      	bne.n	8006294 <_svfprintf_r+0x764>
 8006290:	07e9      	lsls	r1, r5, #31
 8006292:	d521      	bpl.n	80062d8 <_svfprintf_r+0x7a8>
 8006294:	2f46      	cmp	r7, #70	; 0x46
 8006296:	eb09 0306 	add.w	r3, r9, r6
 800629a:	d10d      	bne.n	80062b8 <_svfprintf_r+0x788>
 800629c:	f899 2000 	ldrb.w	r2, [r9]
 80062a0:	2a30      	cmp	r2, #48	; 0x30
 80062a2:	d107      	bne.n	80062b4 <_svfprintf_r+0x784>
 80062a4:	eeb5 9b40 	vcmp.f64	d9, #0.0
 80062a8:	eef1 fa10 	vmrs	APSR_nzcv, fpscr
 80062ac:	bf1c      	itt	ne
 80062ae:	f1c6 0601 	rsbne	r6, r6, #1
 80062b2:	9618      	strne	r6, [sp, #96]	; 0x60
 80062b4:	9a18      	ldr	r2, [sp, #96]	; 0x60
 80062b6:	4413      	add	r3, r2
 80062b8:	eeb5 9b40 	vcmp.f64	d9, #0.0
 80062bc:	eef1 fa10 	vmrs	APSR_nzcv, fpscr
 80062c0:	d009      	beq.n	80062d6 <_svfprintf_r+0x7a6>
 80062c2:	2130      	movs	r1, #48	; 0x30
 80062c4:	9a1c      	ldr	r2, [sp, #112]	; 0x70
 80062c6:	4293      	cmp	r3, r2
 80062c8:	d906      	bls.n	80062d8 <_svfprintf_r+0x7a8>
 80062ca:	1c50      	adds	r0, r2, #1
 80062cc:	901c      	str	r0, [sp, #112]	; 0x70
 80062ce:	7011      	strb	r1, [r2, #0]
 80062d0:	e7f8      	b.n	80062c4 <_svfprintf_r+0x794>
 80062d2:	4646      	mov	r6, r8
 80062d4:	e7b8      	b.n	8006248 <_svfprintf_r+0x718>
 80062d6:	931c      	str	r3, [sp, #112]	; 0x70
 80062d8:	9b1c      	ldr	r3, [sp, #112]	; 0x70
 80062da:	eba3 0309 	sub.w	r3, r3, r9
 80062de:	e72c      	b.n	800613a <_svfprintf_r+0x60a>
 80062e0:	2f46      	cmp	r7, #70	; 0x46
 80062e2:	f47f af37 	bne.w	8006154 <_svfprintf_r+0x624>
 80062e6:	2e00      	cmp	r6, #0
 80062e8:	dd1e      	ble.n	8006328 <_svfprintf_r+0x7f8>
 80062ea:	f1b8 0f00 	cmp.w	r8, #0
 80062ee:	d101      	bne.n	80062f4 <_svfprintf_r+0x7c4>
 80062f0:	07ef      	lsls	r7, r5, #31
 80062f2:	d535      	bpl.n	8006360 <_svfprintf_r+0x830>
 80062f4:	9b09      	ldr	r3, [sp, #36]	; 0x24
 80062f6:	18f3      	adds	r3, r6, r3
 80062f8:	4498      	add	r8, r3
 80062fa:	2366      	movs	r3, #102	; 0x66
 80062fc:	9304      	str	r3, [sp, #16]
 80062fe:	e035      	b.n	800636c <_svfprintf_r+0x83c>
 8006300:	460a      	mov	r2, r1
 8006302:	e746      	b.n	8006192 <_svfprintf_r+0x662>
 8006304:	f812 1b01 	ldrb.w	r1, [r2], #1
 8006308:	f803 1b01 	strb.w	r1, [r3], #1
 800630c:	e757      	b.n	80061be <_svfprintf_r+0x68e>
 800630e:	b941      	cbnz	r1, 8006322 <_svfprintf_r+0x7f2>
 8006310:	2230      	movs	r2, #48	; 0x30
 8006312:	f88d 206a 	strb.w	r2, [sp, #106]	; 0x6a
 8006316:	f10d 026b 	add.w	r2, sp, #107	; 0x6b
 800631a:	3330      	adds	r3, #48	; 0x30
 800631c:	1c51      	adds	r1, r2, #1
 800631e:	7013      	strb	r3, [r2, #0]
 8006320:	e751      	b.n	80061c6 <_svfprintf_r+0x696>
 8006322:	f10d 026a 	add.w	r2, sp, #106	; 0x6a
 8006326:	e7f8      	b.n	800631a <_svfprintf_r+0x7ea>
 8006328:	f1b8 0f00 	cmp.w	r8, #0
 800632c:	d101      	bne.n	8006332 <_svfprintf_r+0x802>
 800632e:	07e8      	lsls	r0, r5, #31
 8006330:	d518      	bpl.n	8006364 <_svfprintf_r+0x834>
 8006332:	9b09      	ldr	r3, [sp, #36]	; 0x24
 8006334:	3301      	adds	r3, #1
 8006336:	e7df      	b.n	80062f8 <_svfprintf_r+0x7c8>
 8006338:	9b03      	ldr	r3, [sp, #12]
 800633a:	42b3      	cmp	r3, r6
 800633c:	dc06      	bgt.n	800634c <_svfprintf_r+0x81c>
 800633e:	07e9      	lsls	r1, r5, #31
 8006340:	d527      	bpl.n	8006392 <_svfprintf_r+0x862>
 8006342:	9b09      	ldr	r3, [sp, #36]	; 0x24
 8006344:	eb06 0803 	add.w	r8, r6, r3
 8006348:	2367      	movs	r3, #103	; 0x67
 800634a:	e7d7      	b.n	80062fc <_svfprintf_r+0x7cc>
 800634c:	9b03      	ldr	r3, [sp, #12]
 800634e:	9a09      	ldr	r2, [sp, #36]	; 0x24
 8006350:	2e00      	cmp	r6, #0
 8006352:	eb03 0802 	add.w	r8, r3, r2
 8006356:	dcf7      	bgt.n	8006348 <_svfprintf_r+0x818>
 8006358:	f1c6 0301 	rsb	r3, r6, #1
 800635c:	4498      	add	r8, r3
 800635e:	e7f3      	b.n	8006348 <_svfprintf_r+0x818>
 8006360:	46b0      	mov	r8, r6
 8006362:	e7ca      	b.n	80062fa <_svfprintf_r+0x7ca>
 8006364:	2366      	movs	r3, #102	; 0x66
 8006366:	9304      	str	r3, [sp, #16]
 8006368:	f04f 0801 	mov.w	r8, #1
 800636c:	f415 6380 	ands.w	r3, r5, #1024	; 0x400
 8006370:	9305      	str	r3, [sp, #20]
 8006372:	d01f      	beq.n	80063b4 <_svfprintf_r+0x884>
 8006374:	2700      	movs	r7, #0
 8006376:	2e00      	cmp	r6, #0
 8006378:	9705      	str	r7, [sp, #20]
 800637a:	f77f af38 	ble.w	80061ee <_svfprintf_r+0x6be>
 800637e:	9b07      	ldr	r3, [sp, #28]
 8006380:	781b      	ldrb	r3, [r3, #0]
 8006382:	2bff      	cmp	r3, #255	; 0xff
 8006384:	d107      	bne.n	8006396 <_svfprintf_r+0x866>
 8006386:	9b05      	ldr	r3, [sp, #20]
 8006388:	9a0e      	ldr	r2, [sp, #56]	; 0x38
 800638a:	443b      	add	r3, r7
 800638c:	fb02 8803 	mla	r8, r2, r3, r8
 8006390:	e72d      	b.n	80061ee <_svfprintf_r+0x6be>
 8006392:	46b0      	mov	r8, r6
 8006394:	e7d8      	b.n	8006348 <_svfprintf_r+0x818>
 8006396:	42b3      	cmp	r3, r6
 8006398:	daf5      	bge.n	8006386 <_svfprintf_r+0x856>
 800639a:	1af6      	subs	r6, r6, r3
 800639c:	9b07      	ldr	r3, [sp, #28]
 800639e:	785b      	ldrb	r3, [r3, #1]
 80063a0:	b133      	cbz	r3, 80063b0 <_svfprintf_r+0x880>
 80063a2:	9b05      	ldr	r3, [sp, #20]
 80063a4:	3301      	adds	r3, #1
 80063a6:	9305      	str	r3, [sp, #20]
 80063a8:	9b07      	ldr	r3, [sp, #28]
 80063aa:	3301      	adds	r3, #1
 80063ac:	9307      	str	r3, [sp, #28]
 80063ae:	e7e6      	b.n	800637e <_svfprintf_r+0x84e>
 80063b0:	3701      	adds	r7, #1
 80063b2:	e7e4      	b.n	800637e <_svfprintf_r+0x84e>
 80063b4:	9f05      	ldr	r7, [sp, #20]
 80063b6:	e71a      	b.n	80061ee <_svfprintf_r+0x6be>
 80063b8:	4632      	mov	r2, r6
 80063ba:	f852 3b04 	ldr.w	r3, [r2], #4
 80063be:	9206      	str	r2, [sp, #24]
 80063c0:	06aa      	lsls	r2, r5, #26
 80063c2:	d509      	bpl.n	80063d8 <_svfprintf_r+0x8a8>
 80063c4:	9a0a      	ldr	r2, [sp, #40]	; 0x28
 80063c6:	4610      	mov	r0, r2
 80063c8:	17d1      	asrs	r1, r2, #31
 80063ca:	e9c3 0100 	strd	r0, r1, [r3]
 80063ce:	9e06      	ldr	r6, [sp, #24]
 80063d0:	f8dd 9020 	ldr.w	r9, [sp, #32]
 80063d4:	f7ff bbea 	b.w	8005bac <_svfprintf_r+0x7c>
 80063d8:	06ef      	lsls	r7, r5, #27
 80063da:	d502      	bpl.n	80063e2 <_svfprintf_r+0x8b2>
 80063dc:	9a0a      	ldr	r2, [sp, #40]	; 0x28
 80063de:	601a      	str	r2, [r3, #0]
 80063e0:	e7f5      	b.n	80063ce <_svfprintf_r+0x89e>
 80063e2:	066e      	lsls	r6, r5, #25
 80063e4:	d502      	bpl.n	80063ec <_svfprintf_r+0x8bc>
 80063e6:	9a0a      	ldr	r2, [sp, #40]	; 0x28
 80063e8:	801a      	strh	r2, [r3, #0]
 80063ea:	e7f0      	b.n	80063ce <_svfprintf_r+0x89e>
 80063ec:	05a8      	lsls	r0, r5, #22
 80063ee:	d5f5      	bpl.n	80063dc <_svfprintf_r+0x8ac>
 80063f0:	9a0a      	ldr	r2, [sp, #40]	; 0x28
 80063f2:	701a      	strb	r2, [r3, #0]
 80063f4:	e7eb      	b.n	80063ce <_svfprintf_r+0x89e>
 80063f6:	f045 0510 	orr.w	r5, r5, #16
 80063fa:	06a9      	lsls	r1, r5, #26
 80063fc:	d520      	bpl.n	8006440 <_svfprintf_r+0x910>
 80063fe:	3607      	adds	r6, #7
 8006400:	f026 0607 	bic.w	r6, r6, #7
 8006404:	f106 0308 	add.w	r3, r6, #8
 8006408:	e9d6 6700 	ldrd	r6, r7, [r6]
 800640c:	9306      	str	r3, [sp, #24]
 800640e:	f425 6580 	bic.w	r5, r5, #1024	; 0x400
 8006412:	2300      	movs	r3, #0
 8006414:	2200      	movs	r2, #0
 8006416:	f1b8 3fff 	cmp.w	r8, #4294967295
 800641a:	f88d 205b 	strb.w	r2, [sp, #91]	; 0x5b
 800641e:	f000 814d 	beq.w	80066bc <_svfprintf_r+0xb8c>
 8006422:	462a      	mov	r2, r5
 8006424:	ea56 0107 	orrs.w	r1, r6, r7
 8006428:	f025 0580 	bic.w	r5, r5, #128	; 0x80
 800642c:	f040 8146 	bne.w	80066bc <_svfprintf_r+0xb8c>
 8006430:	f1b8 0f00 	cmp.w	r8, #0
 8006434:	f000 81c7 	beq.w	80067c6 <_svfprintf_r+0xc96>
 8006438:	2b01      	cmp	r3, #1
 800643a:	f040 8142 	bne.w	80066c2 <_svfprintf_r+0xb92>
 800643e:	e589      	b.n	8005f54 <_svfprintf_r+0x424>
 8006440:	1d33      	adds	r3, r6, #4
 8006442:	06ea      	lsls	r2, r5, #27
 8006444:	9306      	str	r3, [sp, #24]
 8006446:	d501      	bpl.n	800644c <_svfprintf_r+0x91c>
 8006448:	6836      	ldr	r6, [r6, #0]
 800644a:	e002      	b.n	8006452 <_svfprintf_r+0x922>
 800644c:	066b      	lsls	r3, r5, #25
 800644e:	d502      	bpl.n	8006456 <_svfprintf_r+0x926>
 8006450:	8836      	ldrh	r6, [r6, #0]
 8006452:	2700      	movs	r7, #0
 8006454:	e7db      	b.n	800640e <_svfprintf_r+0x8de>
 8006456:	05af      	lsls	r7, r5, #22
 8006458:	d5f6      	bpl.n	8006448 <_svfprintf_r+0x918>
 800645a:	7836      	ldrb	r6, [r6, #0]
 800645c:	e7f9      	b.n	8006452 <_svfprintf_r+0x922>
 800645e:	1d33      	adds	r3, r6, #4
 8006460:	9306      	str	r3, [sp, #24]
 8006462:	f647 0330 	movw	r3, #30768	; 0x7830
 8006466:	f8ad 305c 	strh.w	r3, [sp, #92]	; 0x5c
 800646a:	2278      	movs	r2, #120	; 0x78
 800646c:	4baa      	ldr	r3, [pc, #680]	; (8006718 <_svfprintf_r+0xbe8>)
 800646e:	9311      	str	r3, [sp, #68]	; 0x44
 8006470:	6836      	ldr	r6, [r6, #0]
 8006472:	9204      	str	r2, [sp, #16]
 8006474:	2700      	movs	r7, #0
 8006476:	f045 0502 	orr.w	r5, r5, #2
 800647a:	2302      	movs	r3, #2
 800647c:	e7ca      	b.n	8006414 <_svfprintf_r+0x8e4>
 800647e:	1d33      	adds	r3, r6, #4
 8006480:	f8d6 9000 	ldr.w	r9, [r6]
 8006484:	9306      	str	r3, [sp, #24]
 8006486:	2600      	movs	r6, #0
 8006488:	f1b8 3fff 	cmp.w	r8, #4294967295
 800648c:	f88d 605b 	strb.w	r6, [sp, #91]	; 0x5b
 8006490:	f000 80db 	beq.w	800664a <_svfprintf_r+0xb1a>
 8006494:	4642      	mov	r2, r8
 8006496:	4631      	mov	r1, r6
 8006498:	4648      	mov	r0, r9
 800649a:	f7f9 ff21 	bl	80002e0 <memchr>
 800649e:	4682      	mov	sl, r0
 80064a0:	2800      	cmp	r0, #0
 80064a2:	f43f ad94 	beq.w	8005fce <_svfprintf_r+0x49e>
 80064a6:	eba0 0809 	sub.w	r8, r0, r9
 80064aa:	46b2      	mov	sl, r6
 80064ac:	960c      	str	r6, [sp, #48]	; 0x30
 80064ae:	4637      	mov	r7, r6
 80064b0:	9605      	str	r6, [sp, #20]
 80064b2:	9b0c      	ldr	r3, [sp, #48]	; 0x30
 80064b4:	4543      	cmp	r3, r8
 80064b6:	bfb8      	it	lt
 80064b8:	4643      	movlt	r3, r8
 80064ba:	930d      	str	r3, [sp, #52]	; 0x34
 80064bc:	f89d 305b 	ldrb.w	r3, [sp, #91]	; 0x5b
 80064c0:	b113      	cbz	r3, 80064c8 <_svfprintf_r+0x998>
 80064c2:	9b0d      	ldr	r3, [sp, #52]	; 0x34
 80064c4:	3301      	adds	r3, #1
 80064c6:	930d      	str	r3, [sp, #52]	; 0x34
 80064c8:	f015 0302 	ands.w	r3, r5, #2
 80064cc:	9313      	str	r3, [sp, #76]	; 0x4c
 80064ce:	bf1e      	ittt	ne
 80064d0:	9b0d      	ldrne	r3, [sp, #52]	; 0x34
 80064d2:	3302      	addne	r3, #2
 80064d4:	930d      	strne	r3, [sp, #52]	; 0x34
 80064d6:	f015 0384 	ands.w	r3, r5, #132	; 0x84
 80064da:	9314      	str	r3, [sp, #80]	; 0x50
 80064dc:	d120      	bne.n	8006520 <_svfprintf_r+0x9f0>
 80064de:	9b0b      	ldr	r3, [sp, #44]	; 0x2c
 80064e0:	9a0d      	ldr	r2, [sp, #52]	; 0x34
 80064e2:	1a9b      	subs	r3, r3, r2
 80064e4:	2b00      	cmp	r3, #0
 80064e6:	dd1b      	ble.n	8006520 <_svfprintf_r+0x9f0>
 80064e8:	e9dd 2c1f 	ldrd	r2, ip, [sp, #124]	; 0x7c
 80064ec:	498b      	ldr	r1, [pc, #556]	; (800671c <_svfprintf_r+0xbec>)
 80064ee:	6021      	str	r1, [r4, #0]
 80064f0:	2b10      	cmp	r3, #16
 80064f2:	f102 0201 	add.w	r2, r2, #1
 80064f6:	f104 0008 	add.w	r0, r4, #8
 80064fa:	f300 817d 	bgt.w	80067f8 <_svfprintf_r+0xcc8>
 80064fe:	eb0c 0103 	add.w	r1, ip, r3
 8006502:	2a07      	cmp	r2, #7
 8006504:	6063      	str	r3, [r4, #4]
 8006506:	e9cd 211f 	strd	r2, r1, [sp, #124]	; 0x7c
 800650a:	f340 818a 	ble.w	8006822 <_svfprintf_r+0xcf2>
 800650e:	aa1e      	add	r2, sp, #120	; 0x78
 8006510:	4659      	mov	r1, fp
 8006512:	9802      	ldr	r0, [sp, #8]
 8006514:	f001 ff03 	bl	800831e <__ssprint_r>
 8006518:	2800      	cmp	r0, #0
 800651a:	f040 84b7 	bne.w	8006e8c <_svfprintf_r+0x135c>
 800651e:	ac21      	add	r4, sp, #132	; 0x84
 8006520:	f89d 305b 	ldrb.w	r3, [sp, #91]	; 0x5b
 8006524:	b173      	cbz	r3, 8006544 <_svfprintf_r+0xa14>
 8006526:	f10d 035b 	add.w	r3, sp, #91	; 0x5b
 800652a:	6023      	str	r3, [r4, #0]
 800652c:	2301      	movs	r3, #1
 800652e:	6063      	str	r3, [r4, #4]
 8006530:	9b20      	ldr	r3, [sp, #128]	; 0x80
 8006532:	3301      	adds	r3, #1
 8006534:	9320      	str	r3, [sp, #128]	; 0x80
 8006536:	9b1f      	ldr	r3, [sp, #124]	; 0x7c
 8006538:	3301      	adds	r3, #1
 800653a:	2b07      	cmp	r3, #7
 800653c:	931f      	str	r3, [sp, #124]	; 0x7c
 800653e:	f300 8172 	bgt.w	8006826 <_svfprintf_r+0xcf6>
 8006542:	3408      	adds	r4, #8
 8006544:	9b13      	ldr	r3, [sp, #76]	; 0x4c
 8006546:	b16b      	cbz	r3, 8006564 <_svfprintf_r+0xa34>
 8006548:	ab17      	add	r3, sp, #92	; 0x5c
 800654a:	6023      	str	r3, [r4, #0]
 800654c:	2302      	movs	r3, #2
 800654e:	6063      	str	r3, [r4, #4]
 8006550:	9b20      	ldr	r3, [sp, #128]	; 0x80
 8006552:	3302      	adds	r3, #2
 8006554:	9320      	str	r3, [sp, #128]	; 0x80
 8006556:	9b1f      	ldr	r3, [sp, #124]	; 0x7c
 8006558:	3301      	adds	r3, #1
 800655a:	2b07      	cmp	r3, #7
 800655c:	931f      	str	r3, [sp, #124]	; 0x7c
 800655e:	f300 816c 	bgt.w	800683a <_svfprintf_r+0xd0a>
 8006562:	3408      	adds	r4, #8
 8006564:	9b14      	ldr	r3, [sp, #80]	; 0x50
 8006566:	2b80      	cmp	r3, #128	; 0x80
 8006568:	d120      	bne.n	80065ac <_svfprintf_r+0xa7c>
 800656a:	9b0b      	ldr	r3, [sp, #44]	; 0x2c
 800656c:	9a0d      	ldr	r2, [sp, #52]	; 0x34
 800656e:	1a9b      	subs	r3, r3, r2
 8006570:	2b00      	cmp	r3, #0
 8006572:	dd1b      	ble.n	80065ac <_svfprintf_r+0xa7c>
 8006574:	e9dd 2c1f 	ldrd	r2, ip, [sp, #124]	; 0x7c
 8006578:	4969      	ldr	r1, [pc, #420]	; (8006720 <_svfprintf_r+0xbf0>)
 800657a:	6021      	str	r1, [r4, #0]
 800657c:	2b10      	cmp	r3, #16
 800657e:	f102 0201 	add.w	r2, r2, #1
 8006582:	f104 0008 	add.w	r0, r4, #8
 8006586:	f300 8162 	bgt.w	800684e <_svfprintf_r+0xd1e>
 800658a:	eb0c 0103 	add.w	r1, ip, r3
 800658e:	2a07      	cmp	r2, #7
 8006590:	6063      	str	r3, [r4, #4]
 8006592:	e9cd 211f 	strd	r2, r1, [sp, #124]	; 0x7c
 8006596:	f340 816f 	ble.w	8006878 <_svfprintf_r+0xd48>
 800659a:	aa1e      	add	r2, sp, #120	; 0x78
 800659c:	4659      	mov	r1, fp
 800659e:	9802      	ldr	r0, [sp, #8]
 80065a0:	f001 febd 	bl	800831e <__ssprint_r>
 80065a4:	2800      	cmp	r0, #0
 80065a6:	f040 8471 	bne.w	8006e8c <_svfprintf_r+0x135c>
 80065aa:	ac21      	add	r4, sp, #132	; 0x84
 80065ac:	9b0c      	ldr	r3, [sp, #48]	; 0x30
 80065ae:	eba3 0308 	sub.w	r3, r3, r8
 80065b2:	2b00      	cmp	r3, #0
 80065b4:	930c      	str	r3, [sp, #48]	; 0x30
 80065b6:	dd1c      	ble.n	80065f2 <_svfprintf_r+0xac2>
 80065b8:	980c      	ldr	r0, [sp, #48]	; 0x30
 80065ba:	e9dd 231f 	ldrd	r2, r3, [sp, #124]	; 0x7c
 80065be:	2810      	cmp	r0, #16
 80065c0:	4857      	ldr	r0, [pc, #348]	; (8006720 <_svfprintf_r+0xbf0>)
 80065c2:	6020      	str	r0, [r4, #0]
 80065c4:	f102 0201 	add.w	r2, r2, #1
 80065c8:	f104 0108 	add.w	r1, r4, #8
 80065cc:	f300 8156 	bgt.w	800687c <_svfprintf_r+0xd4c>
 80065d0:	980c      	ldr	r0, [sp, #48]	; 0x30
 80065d2:	6060      	str	r0, [r4, #4]
 80065d4:	4403      	add	r3, r0
 80065d6:	2a07      	cmp	r2, #7
 80065d8:	e9cd 231f 	strd	r2, r3, [sp, #124]	; 0x7c
 80065dc:	f340 8163 	ble.w	80068a6 <_svfprintf_r+0xd76>
 80065e0:	aa1e      	add	r2, sp, #120	; 0x78
 80065e2:	4659      	mov	r1, fp
 80065e4:	9802      	ldr	r0, [sp, #8]
 80065e6:	f001 fe9a 	bl	800831e <__ssprint_r>
 80065ea:	2800      	cmp	r0, #0
 80065ec:	f040 844e 	bne.w	8006e8c <_svfprintf_r+0x135c>
 80065f0:	ac21      	add	r4, sp, #132	; 0x84
 80065f2:	05e8      	lsls	r0, r5, #23
 80065f4:	9b20      	ldr	r3, [sp, #128]	; 0x80
 80065f6:	f100 8158 	bmi.w	80068aa <_svfprintf_r+0xd7a>
 80065fa:	4443      	add	r3, r8
 80065fc:	9320      	str	r3, [sp, #128]	; 0x80
 80065fe:	9b1f      	ldr	r3, [sp, #124]	; 0x7c
 8006600:	3301      	adds	r3, #1
 8006602:	2b07      	cmp	r3, #7
 8006604:	e9c4 9800 	strd	r9, r8, [r4]
 8006608:	931f      	str	r3, [sp, #124]	; 0x7c
 800660a:	f300 8190 	bgt.w	800692e <_svfprintf_r+0xdfe>
 800660e:	3408      	adds	r4, #8
 8006610:	076b      	lsls	r3, r5, #29
 8006612:	f100 841d 	bmi.w	8006e50 <_svfprintf_r+0x1320>
 8006616:	e9dd 320a 	ldrd	r3, r2, [sp, #40]	; 0x28
 800661a:	990d      	ldr	r1, [sp, #52]	; 0x34
 800661c:	428a      	cmp	r2, r1
 800661e:	bfac      	ite	ge
 8006620:	189b      	addge	r3, r3, r2
 8006622:	185b      	addlt	r3, r3, r1
 8006624:	930a      	str	r3, [sp, #40]	; 0x28
 8006626:	9b20      	ldr	r3, [sp, #128]	; 0x80
 8006628:	b13b      	cbz	r3, 800663a <_svfprintf_r+0xb0a>
 800662a:	aa1e      	add	r2, sp, #120	; 0x78
 800662c:	4659      	mov	r1, fp
 800662e:	9802      	ldr	r0, [sp, #8]
 8006630:	f001 fe75 	bl	800831e <__ssprint_r>
 8006634:	2800      	cmp	r0, #0
 8006636:	f040 8429 	bne.w	8006e8c <_svfprintf_r+0x135c>
 800663a:	2300      	movs	r3, #0
 800663c:	931f      	str	r3, [sp, #124]	; 0x7c
 800663e:	f1ba 0f00 	cmp.w	sl, #0
 8006642:	f040 843f 	bne.w	8006ec4 <_svfprintf_r+0x1394>
 8006646:	ac21      	add	r4, sp, #132	; 0x84
 8006648:	e6c1      	b.n	80063ce <_svfprintf_r+0x89e>
 800664a:	4648      	mov	r0, r9
 800664c:	f7f9 fe98 	bl	8000380 <strlen>
 8006650:	46b2      	mov	sl, r6
 8006652:	4680      	mov	r8, r0
 8006654:	e4bb      	b.n	8005fce <_svfprintf_r+0x49e>
 8006656:	f045 0510 	orr.w	r5, r5, #16
 800665a:	06a8      	lsls	r0, r5, #26
 800665c:	d509      	bpl.n	8006672 <_svfprintf_r+0xb42>
 800665e:	3607      	adds	r6, #7
 8006660:	f026 0607 	bic.w	r6, r6, #7
 8006664:	f106 0308 	add.w	r3, r6, #8
 8006668:	e9d6 6700 	ldrd	r6, r7, [r6]
 800666c:	9306      	str	r3, [sp, #24]
 800666e:	2301      	movs	r3, #1
 8006670:	e6d0      	b.n	8006414 <_svfprintf_r+0x8e4>
 8006672:	1d33      	adds	r3, r6, #4
 8006674:	06e9      	lsls	r1, r5, #27
 8006676:	9306      	str	r3, [sp, #24]
 8006678:	d501      	bpl.n	800667e <_svfprintf_r+0xb4e>
 800667a:	6836      	ldr	r6, [r6, #0]
 800667c:	e002      	b.n	8006684 <_svfprintf_r+0xb54>
 800667e:	066a      	lsls	r2, r5, #25
 8006680:	d502      	bpl.n	8006688 <_svfprintf_r+0xb58>
 8006682:	8836      	ldrh	r6, [r6, #0]
 8006684:	2700      	movs	r7, #0
 8006686:	e7f2      	b.n	800666e <_svfprintf_r+0xb3e>
 8006688:	05ab      	lsls	r3, r5, #22
 800668a:	d5f6      	bpl.n	800667a <_svfprintf_r+0xb4a>
 800668c:	7836      	ldrb	r6, [r6, #0]
 800668e:	e7f9      	b.n	8006684 <_svfprintf_r+0xb54>
 8006690:	4b21      	ldr	r3, [pc, #132]	; (8006718 <_svfprintf_r+0xbe8>)
 8006692:	f7ff bb86 	b.w	8005da2 <_svfprintf_r+0x272>
 8006696:	1d33      	adds	r3, r6, #4
 8006698:	06e8      	lsls	r0, r5, #27
 800669a:	9306      	str	r3, [sp, #24]
 800669c:	d501      	bpl.n	80066a2 <_svfprintf_r+0xb72>
 800669e:	6836      	ldr	r6, [r6, #0]
 80066a0:	e002      	b.n	80066a8 <_svfprintf_r+0xb78>
 80066a2:	0669      	lsls	r1, r5, #25
 80066a4:	d503      	bpl.n	80066ae <_svfprintf_r+0xb7e>
 80066a6:	8836      	ldrh	r6, [r6, #0]
 80066a8:	2700      	movs	r7, #0
 80066aa:	f7ff bb86 	b.w	8005dba <_svfprintf_r+0x28a>
 80066ae:	05aa      	lsls	r2, r5, #22
 80066b0:	d5f5      	bpl.n	800669e <_svfprintf_r+0xb6e>
 80066b2:	7836      	ldrb	r6, [r6, #0]
 80066b4:	e7f8      	b.n	80066a8 <_svfprintf_r+0xb78>
 80066b6:	462a      	mov	r2, r5
 80066b8:	2301      	movs	r3, #1
 80066ba:	e6b3      	b.n	8006424 <_svfprintf_r+0x8f4>
 80066bc:	2b01      	cmp	r3, #1
 80066be:	f43f ac44 	beq.w	8005f4a <_svfprintf_r+0x41a>
 80066c2:	2b02      	cmp	r3, #2
 80066c4:	d06d      	beq.n	80067a2 <_svfprintf_r+0xc72>
 80066c6:	ab4a      	add	r3, sp, #296	; 0x128
 80066c8:	08f1      	lsrs	r1, r6, #3
 80066ca:	ea41 7147 	orr.w	r1, r1, r7, lsl #29
 80066ce:	08f8      	lsrs	r0, r7, #3
 80066d0:	f006 0207 	and.w	r2, r6, #7
 80066d4:	4607      	mov	r7, r0
 80066d6:	460e      	mov	r6, r1
 80066d8:	3230      	adds	r2, #48	; 0x30
 80066da:	ea56 0107 	orrs.w	r1, r6, r7
 80066de:	f103 39ff 	add.w	r9, r3, #4294967295
 80066e2:	f803 2c01 	strb.w	r2, [r3, #-1]
 80066e6:	d114      	bne.n	8006712 <_svfprintf_r+0xbe2>
 80066e8:	07ef      	lsls	r7, r5, #31
 80066ea:	d506      	bpl.n	80066fa <_svfprintf_r+0xbca>
 80066ec:	2a30      	cmp	r2, #48	; 0x30
 80066ee:	d004      	beq.n	80066fa <_svfprintf_r+0xbca>
 80066f0:	2230      	movs	r2, #48	; 0x30
 80066f2:	f809 2c01 	strb.w	r2, [r9, #-1]
 80066f6:	f1a3 0902 	sub.w	r9, r3, #2
 80066fa:	ab4a      	add	r3, sp, #296	; 0x128
 80066fc:	f8cd 8030 	str.w	r8, [sp, #48]	; 0x30
 8006700:	f04f 0a00 	mov.w	sl, #0
 8006704:	eba3 0809 	sub.w	r8, r3, r9
 8006708:	4657      	mov	r7, sl
 800670a:	f8cd a014 	str.w	sl, [sp, #20]
 800670e:	4656      	mov	r6, sl
 8006710:	e6cf      	b.n	80064b2 <_svfprintf_r+0x982>
 8006712:	464b      	mov	r3, r9
 8006714:	e7d8      	b.n	80066c8 <_svfprintf_r+0xb98>
 8006716:	bf00      	nop
 8006718:	08008a38 	.word	0x08008a38
 800671c:	08008a5c 	.word	0x08008a5c
 8006720:	08008a6c 	.word	0x08008a6c
 8006724:	2300      	movs	r3, #0
 8006726:	9303      	str	r3, [sp, #12]
 8006728:	f405 6380 	and.w	r3, r5, #1024	; 0x400
 800672c:	f50d 7a94 	add.w	sl, sp, #296	; 0x128
 8006730:	9305      	str	r3, [sp, #20]
 8006732:	220a      	movs	r2, #10
 8006734:	2300      	movs	r3, #0
 8006736:	4630      	mov	r0, r6
 8006738:	4639      	mov	r1, r7
 800673a:	f7f9 fe29 	bl	8000390 <__aeabi_uldivmod>
 800673e:	9b03      	ldr	r3, [sp, #12]
 8006740:	3301      	adds	r3, #1
 8006742:	9303      	str	r3, [sp, #12]
 8006744:	9b05      	ldr	r3, [sp, #20]
 8006746:	3230      	adds	r2, #48	; 0x30
 8006748:	f10a 39ff 	add.w	r9, sl, #4294967295
 800674c:	f80a 2c01 	strb.w	r2, [sl, #-1]
 8006750:	b1d3      	cbz	r3, 8006788 <_svfprintf_r+0xc58>
 8006752:	9b07      	ldr	r3, [sp, #28]
 8006754:	9a03      	ldr	r2, [sp, #12]
 8006756:	781b      	ldrb	r3, [r3, #0]
 8006758:	429a      	cmp	r2, r3
 800675a:	d115      	bne.n	8006788 <_svfprintf_r+0xc58>
 800675c:	2aff      	cmp	r2, #255	; 0xff
 800675e:	d013      	beq.n	8006788 <_svfprintf_r+0xc58>
 8006760:	2f00      	cmp	r7, #0
 8006762:	bf08      	it	eq
 8006764:	2e0a      	cmpeq	r6, #10
 8006766:	d30f      	bcc.n	8006788 <_svfprintf_r+0xc58>
 8006768:	9b0e      	ldr	r3, [sp, #56]	; 0x38
 800676a:	9912      	ldr	r1, [sp, #72]	; 0x48
 800676c:	eba9 0903 	sub.w	r9, r9, r3
 8006770:	461a      	mov	r2, r3
 8006772:	4648      	mov	r0, r9
 8006774:	f001 fdbe 	bl	80082f4 <strncpy>
 8006778:	9b07      	ldr	r3, [sp, #28]
 800677a:	785b      	ldrb	r3, [r3, #1]
 800677c:	b11b      	cbz	r3, 8006786 <_svfprintf_r+0xc56>
 800677e:	9b07      	ldr	r3, [sp, #28]
 8006780:	3301      	adds	r3, #1
 8006782:	9307      	str	r3, [sp, #28]
 8006784:	2300      	movs	r3, #0
 8006786:	9303      	str	r3, [sp, #12]
 8006788:	2300      	movs	r3, #0
 800678a:	4630      	mov	r0, r6
 800678c:	4639      	mov	r1, r7
 800678e:	220a      	movs	r2, #10
 8006790:	f7f9 fdfe 	bl	8000390 <__aeabi_uldivmod>
 8006794:	4606      	mov	r6, r0
 8006796:	460f      	mov	r7, r1
 8006798:	ea56 0307 	orrs.w	r3, r6, r7
 800679c:	d0ad      	beq.n	80066fa <_svfprintf_r+0xbca>
 800679e:	46ca      	mov	sl, r9
 80067a0:	e7c7      	b.n	8006732 <_svfprintf_r+0xc02>
 80067a2:	f50d 7994 	add.w	r9, sp, #296	; 0x128
 80067a6:	f006 030f 	and.w	r3, r6, #15
 80067aa:	9a11      	ldr	r2, [sp, #68]	; 0x44
 80067ac:	5cd3      	ldrb	r3, [r2, r3]
 80067ae:	f809 3d01 	strb.w	r3, [r9, #-1]!
 80067b2:	0933      	lsrs	r3, r6, #4
 80067b4:	ea43 7307 	orr.w	r3, r3, r7, lsl #28
 80067b8:	093a      	lsrs	r2, r7, #4
 80067ba:	461e      	mov	r6, r3
 80067bc:	4617      	mov	r7, r2
 80067be:	ea56 0307 	orrs.w	r3, r6, r7
 80067c2:	d1f0      	bne.n	80067a6 <_svfprintf_r+0xc76>
 80067c4:	e799      	b.n	80066fa <_svfprintf_r+0xbca>
 80067c6:	f50d 7994 	add.w	r9, sp, #296	; 0x128
 80067ca:	2b00      	cmp	r3, #0
 80067cc:	d195      	bne.n	80066fa <_svfprintf_r+0xbca>
 80067ce:	07d6      	lsls	r6, r2, #31
 80067d0:	bf44      	itt	mi
 80067d2:	2330      	movmi	r3, #48	; 0x30
 80067d4:	f809 3d01 	strbmi.w	r3, [r9, #-1]!
 80067d8:	e78f      	b.n	80066fa <_svfprintf_r+0xbca>
 80067da:	9b04      	ldr	r3, [sp, #16]
 80067dc:	2b00      	cmp	r3, #0
 80067de:	f000 8377 	beq.w	8006ed0 <_svfprintf_r+0x13a0>
 80067e2:	f88d 30c4 	strb.w	r3, [sp, #196]	; 0xc4
 80067e6:	2300      	movs	r3, #0
 80067e8:	f88d 305b 	strb.w	r3, [sp, #91]	; 0x5b
 80067ec:	9606      	str	r6, [sp, #24]
 80067ee:	f7ff bb87 	b.w	8005f00 <_svfprintf_r+0x3d0>
 80067f2:	e9dd 530c 	ldrd	r5, r3, [sp, #48]	; 0x30
 80067f6:	e503      	b.n	8006200 <_svfprintf_r+0x6d0>
 80067f8:	2110      	movs	r1, #16
 80067fa:	6061      	str	r1, [r4, #4]
 80067fc:	2a07      	cmp	r2, #7
 80067fe:	4461      	add	r1, ip
 8006800:	e9cd 211f 	strd	r2, r1, [sp, #124]	; 0x7c
 8006804:	dd0a      	ble.n	800681c <_svfprintf_r+0xcec>
 8006806:	aa1e      	add	r2, sp, #120	; 0x78
 8006808:	4659      	mov	r1, fp
 800680a:	9802      	ldr	r0, [sp, #8]
 800680c:	9315      	str	r3, [sp, #84]	; 0x54
 800680e:	f001 fd86 	bl	800831e <__ssprint_r>
 8006812:	2800      	cmp	r0, #0
 8006814:	f040 833a 	bne.w	8006e8c <_svfprintf_r+0x135c>
 8006818:	9b15      	ldr	r3, [sp, #84]	; 0x54
 800681a:	a821      	add	r0, sp, #132	; 0x84
 800681c:	3b10      	subs	r3, #16
 800681e:	4604      	mov	r4, r0
 8006820:	e662      	b.n	80064e8 <_svfprintf_r+0x9b8>
 8006822:	4604      	mov	r4, r0
 8006824:	e67c      	b.n	8006520 <_svfprintf_r+0x9f0>
 8006826:	aa1e      	add	r2, sp, #120	; 0x78
 8006828:	4659      	mov	r1, fp
 800682a:	9802      	ldr	r0, [sp, #8]
 800682c:	f001 fd77 	bl	800831e <__ssprint_r>
 8006830:	2800      	cmp	r0, #0
 8006832:	f040 832b 	bne.w	8006e8c <_svfprintf_r+0x135c>
 8006836:	ac21      	add	r4, sp, #132	; 0x84
 8006838:	e684      	b.n	8006544 <_svfprintf_r+0xa14>
 800683a:	aa1e      	add	r2, sp, #120	; 0x78
 800683c:	4659      	mov	r1, fp
 800683e:	9802      	ldr	r0, [sp, #8]
 8006840:	f001 fd6d 	bl	800831e <__ssprint_r>
 8006844:	2800      	cmp	r0, #0
 8006846:	f040 8321 	bne.w	8006e8c <_svfprintf_r+0x135c>
 800684a:	ac21      	add	r4, sp, #132	; 0x84
 800684c:	e68a      	b.n	8006564 <_svfprintf_r+0xa34>
 800684e:	2110      	movs	r1, #16
 8006850:	6061      	str	r1, [r4, #4]
 8006852:	2a07      	cmp	r2, #7
 8006854:	4461      	add	r1, ip
 8006856:	e9cd 211f 	strd	r2, r1, [sp, #124]	; 0x7c
 800685a:	dd0a      	ble.n	8006872 <_svfprintf_r+0xd42>
 800685c:	aa1e      	add	r2, sp, #120	; 0x78
 800685e:	4659      	mov	r1, fp
 8006860:	9802      	ldr	r0, [sp, #8]
 8006862:	9313      	str	r3, [sp, #76]	; 0x4c
 8006864:	f001 fd5b 	bl	800831e <__ssprint_r>
 8006868:	2800      	cmp	r0, #0
 800686a:	f040 830f 	bne.w	8006e8c <_svfprintf_r+0x135c>
 800686e:	9b13      	ldr	r3, [sp, #76]	; 0x4c
 8006870:	a821      	add	r0, sp, #132	; 0x84
 8006872:	3b10      	subs	r3, #16
 8006874:	4604      	mov	r4, r0
 8006876:	e67d      	b.n	8006574 <_svfprintf_r+0xa44>
 8006878:	4604      	mov	r4, r0
 800687a:	e697      	b.n	80065ac <_svfprintf_r+0xa7c>
 800687c:	2010      	movs	r0, #16
 800687e:	4403      	add	r3, r0
 8006880:	2a07      	cmp	r2, #7
 8006882:	6060      	str	r0, [r4, #4]
 8006884:	e9cd 231f 	strd	r2, r3, [sp, #124]	; 0x7c
 8006888:	dd08      	ble.n	800689c <_svfprintf_r+0xd6c>
 800688a:	aa1e      	add	r2, sp, #120	; 0x78
 800688c:	4659      	mov	r1, fp
 800688e:	9802      	ldr	r0, [sp, #8]
 8006890:	f001 fd45 	bl	800831e <__ssprint_r>
 8006894:	2800      	cmp	r0, #0
 8006896:	f040 82f9 	bne.w	8006e8c <_svfprintf_r+0x135c>
 800689a:	a921      	add	r1, sp, #132	; 0x84
 800689c:	9b0c      	ldr	r3, [sp, #48]	; 0x30
 800689e:	3b10      	subs	r3, #16
 80068a0:	930c      	str	r3, [sp, #48]	; 0x30
 80068a2:	460c      	mov	r4, r1
 80068a4:	e688      	b.n	80065b8 <_svfprintf_r+0xa88>
 80068a6:	460c      	mov	r4, r1
 80068a8:	e6a3      	b.n	80065f2 <_svfprintf_r+0xac2>
 80068aa:	9a04      	ldr	r2, [sp, #16]
 80068ac:	2a65      	cmp	r2, #101	; 0x65
 80068ae:	f340 8243 	ble.w	8006d38 <_svfprintf_r+0x1208>
 80068b2:	eeb5 8b40 	vcmp.f64	d8, #0.0
 80068b6:	eef1 fa10 	vmrs	APSR_nzcv, fpscr
 80068ba:	d169      	bne.n	8006990 <_svfprintf_r+0xe60>
 80068bc:	4a72      	ldr	r2, [pc, #456]	; (8006a88 <_svfprintf_r+0xf58>)
 80068be:	6022      	str	r2, [r4, #0]
 80068c0:	2201      	movs	r2, #1
 80068c2:	4413      	add	r3, r2
 80068c4:	9320      	str	r3, [sp, #128]	; 0x80
 80068c6:	9b1f      	ldr	r3, [sp, #124]	; 0x7c
 80068c8:	6062      	str	r2, [r4, #4]
 80068ca:	4413      	add	r3, r2
 80068cc:	2b07      	cmp	r3, #7
 80068ce:	931f      	str	r3, [sp, #124]	; 0x7c
 80068d0:	dc37      	bgt.n	8006942 <_svfprintf_r+0xe12>
 80068d2:	3408      	adds	r4, #8
 80068d4:	9b18      	ldr	r3, [sp, #96]	; 0x60
 80068d6:	9a03      	ldr	r2, [sp, #12]
 80068d8:	4293      	cmp	r3, r2
 80068da:	db02      	blt.n	80068e2 <_svfprintf_r+0xdb2>
 80068dc:	07e9      	lsls	r1, r5, #31
 80068de:	f57f ae97 	bpl.w	8006610 <_svfprintf_r+0xae0>
 80068e2:	9b0f      	ldr	r3, [sp, #60]	; 0x3c
 80068e4:	6023      	str	r3, [r4, #0]
 80068e6:	9b09      	ldr	r3, [sp, #36]	; 0x24
 80068e8:	6063      	str	r3, [r4, #4]
 80068ea:	9a09      	ldr	r2, [sp, #36]	; 0x24
 80068ec:	9b20      	ldr	r3, [sp, #128]	; 0x80
 80068ee:	4413      	add	r3, r2
 80068f0:	9320      	str	r3, [sp, #128]	; 0x80
 80068f2:	9b1f      	ldr	r3, [sp, #124]	; 0x7c
 80068f4:	3301      	adds	r3, #1
 80068f6:	2b07      	cmp	r3, #7
 80068f8:	931f      	str	r3, [sp, #124]	; 0x7c
 80068fa:	dc2c      	bgt.n	8006956 <_svfprintf_r+0xe26>
 80068fc:	3408      	adds	r4, #8
 80068fe:	9b03      	ldr	r3, [sp, #12]
 8006900:	1e5e      	subs	r6, r3, #1
 8006902:	2e00      	cmp	r6, #0
 8006904:	f77f ae84 	ble.w	8006610 <_svfprintf_r+0xae0>
 8006908:	4f60      	ldr	r7, [pc, #384]	; (8006a8c <_svfprintf_r+0xf5c>)
 800690a:	f04f 0810 	mov.w	r8, #16
 800690e:	e9dd 321f 	ldrd	r3, r2, [sp, #124]	; 0x7c
 8006912:	2e10      	cmp	r6, #16
 8006914:	f103 0301 	add.w	r3, r3, #1
 8006918:	f104 0108 	add.w	r1, r4, #8
 800691c:	6027      	str	r7, [r4, #0]
 800691e:	dc24      	bgt.n	800696a <_svfprintf_r+0xe3a>
 8006920:	6066      	str	r6, [r4, #4]
 8006922:	2b07      	cmp	r3, #7
 8006924:	4416      	add	r6, r2
 8006926:	e9cd 361f 	strd	r3, r6, [sp, #124]	; 0x7c
 800692a:	f340 828e 	ble.w	8006e4a <_svfprintf_r+0x131a>
 800692e:	aa1e      	add	r2, sp, #120	; 0x78
 8006930:	4659      	mov	r1, fp
 8006932:	9802      	ldr	r0, [sp, #8]
 8006934:	f001 fcf3 	bl	800831e <__ssprint_r>
 8006938:	2800      	cmp	r0, #0
 800693a:	f040 82a7 	bne.w	8006e8c <_svfprintf_r+0x135c>
 800693e:	ac21      	add	r4, sp, #132	; 0x84
 8006940:	e666      	b.n	8006610 <_svfprintf_r+0xae0>
 8006942:	aa1e      	add	r2, sp, #120	; 0x78
 8006944:	4659      	mov	r1, fp
 8006946:	9802      	ldr	r0, [sp, #8]
 8006948:	f001 fce9 	bl	800831e <__ssprint_r>
 800694c:	2800      	cmp	r0, #0
 800694e:	f040 829d 	bne.w	8006e8c <_svfprintf_r+0x135c>
 8006952:	ac21      	add	r4, sp, #132	; 0x84
 8006954:	e7be      	b.n	80068d4 <_svfprintf_r+0xda4>
 8006956:	aa1e      	add	r2, sp, #120	; 0x78
 8006958:	4659      	mov	r1, fp
 800695a:	9802      	ldr	r0, [sp, #8]
 800695c:	f001 fcdf 	bl	800831e <__ssprint_r>
 8006960:	2800      	cmp	r0, #0
 8006962:	f040 8293 	bne.w	8006e8c <_svfprintf_r+0x135c>
 8006966:	ac21      	add	r4, sp, #132	; 0x84
 8006968:	e7c9      	b.n	80068fe <_svfprintf_r+0xdce>
 800696a:	3210      	adds	r2, #16
 800696c:	2b07      	cmp	r3, #7
 800696e:	f8c4 8004 	str.w	r8, [r4, #4]
 8006972:	e9cd 321f 	strd	r3, r2, [sp, #124]	; 0x7c
 8006976:	dd08      	ble.n	800698a <_svfprintf_r+0xe5a>
 8006978:	aa1e      	add	r2, sp, #120	; 0x78
 800697a:	4659      	mov	r1, fp
 800697c:	9802      	ldr	r0, [sp, #8]
 800697e:	f001 fcce 	bl	800831e <__ssprint_r>
 8006982:	2800      	cmp	r0, #0
 8006984:	f040 8282 	bne.w	8006e8c <_svfprintf_r+0x135c>
 8006988:	a921      	add	r1, sp, #132	; 0x84
 800698a:	3e10      	subs	r6, #16
 800698c:	460c      	mov	r4, r1
 800698e:	e7be      	b.n	800690e <_svfprintf_r+0xdde>
 8006990:	9a18      	ldr	r2, [sp, #96]	; 0x60
 8006992:	2a00      	cmp	r2, #0
 8006994:	dc7c      	bgt.n	8006a90 <_svfprintf_r+0xf60>
 8006996:	4a3c      	ldr	r2, [pc, #240]	; (8006a88 <_svfprintf_r+0xf58>)
 8006998:	6022      	str	r2, [r4, #0]
 800699a:	2201      	movs	r2, #1
 800699c:	4413      	add	r3, r2
 800699e:	9320      	str	r3, [sp, #128]	; 0x80
 80069a0:	9b1f      	ldr	r3, [sp, #124]	; 0x7c
 80069a2:	6062      	str	r2, [r4, #4]
 80069a4:	4413      	add	r3, r2
 80069a6:	2b07      	cmp	r3, #7
 80069a8:	931f      	str	r3, [sp, #124]	; 0x7c
 80069aa:	dc46      	bgt.n	8006a3a <_svfprintf_r+0xf0a>
 80069ac:	3408      	adds	r4, #8
 80069ae:	9b18      	ldr	r3, [sp, #96]	; 0x60
 80069b0:	b923      	cbnz	r3, 80069bc <_svfprintf_r+0xe8c>
 80069b2:	9b03      	ldr	r3, [sp, #12]
 80069b4:	b913      	cbnz	r3, 80069bc <_svfprintf_r+0xe8c>
 80069b6:	07ea      	lsls	r2, r5, #31
 80069b8:	f57f ae2a 	bpl.w	8006610 <_svfprintf_r+0xae0>
 80069bc:	9b0f      	ldr	r3, [sp, #60]	; 0x3c
 80069be:	6023      	str	r3, [r4, #0]
 80069c0:	9b09      	ldr	r3, [sp, #36]	; 0x24
 80069c2:	6063      	str	r3, [r4, #4]
 80069c4:	9a09      	ldr	r2, [sp, #36]	; 0x24
 80069c6:	9b20      	ldr	r3, [sp, #128]	; 0x80
 80069c8:	4413      	add	r3, r2
 80069ca:	9320      	str	r3, [sp, #128]	; 0x80
 80069cc:	9b1f      	ldr	r3, [sp, #124]	; 0x7c
 80069ce:	3301      	adds	r3, #1
 80069d0:	2b07      	cmp	r3, #7
 80069d2:	931f      	str	r3, [sp, #124]	; 0x7c
 80069d4:	dc3b      	bgt.n	8006a4e <_svfprintf_r+0xf1e>
 80069d6:	f104 0308 	add.w	r3, r4, #8
 80069da:	9e18      	ldr	r6, [sp, #96]	; 0x60
 80069dc:	2e00      	cmp	r6, #0
 80069de:	da1b      	bge.n	8006a18 <_svfprintf_r+0xee8>
 80069e0:	4f2a      	ldr	r7, [pc, #168]	; (8006a8c <_svfprintf_r+0xf5c>)
 80069e2:	4276      	negs	r6, r6
 80069e4:	461a      	mov	r2, r3
 80069e6:	2410      	movs	r4, #16
 80069e8:	e9dd 101f 	ldrd	r1, r0, [sp, #124]	; 0x7c
 80069ec:	2e10      	cmp	r6, #16
 80069ee:	f101 0101 	add.w	r1, r1, #1
 80069f2:	f103 0308 	add.w	r3, r3, #8
 80069f6:	6017      	str	r7, [r2, #0]
 80069f8:	dc33      	bgt.n	8006a62 <_svfprintf_r+0xf32>
 80069fa:	6056      	str	r6, [r2, #4]
 80069fc:	2907      	cmp	r1, #7
 80069fe:	4406      	add	r6, r0
 8006a00:	e9cd 161f 	strd	r1, r6, [sp, #124]	; 0x7c
 8006a04:	dd08      	ble.n	8006a18 <_svfprintf_r+0xee8>
 8006a06:	aa1e      	add	r2, sp, #120	; 0x78
 8006a08:	4659      	mov	r1, fp
 8006a0a:	9802      	ldr	r0, [sp, #8]
 8006a0c:	f001 fc87 	bl	800831e <__ssprint_r>
 8006a10:	2800      	cmp	r0, #0
 8006a12:	f040 823b 	bne.w	8006e8c <_svfprintf_r+0x135c>
 8006a16:	ab21      	add	r3, sp, #132	; 0x84
 8006a18:	9a03      	ldr	r2, [sp, #12]
 8006a1a:	605a      	str	r2, [r3, #4]
 8006a1c:	9903      	ldr	r1, [sp, #12]
 8006a1e:	9a20      	ldr	r2, [sp, #128]	; 0x80
 8006a20:	f8c3 9000 	str.w	r9, [r3]
 8006a24:	440a      	add	r2, r1
 8006a26:	9220      	str	r2, [sp, #128]	; 0x80
 8006a28:	9a1f      	ldr	r2, [sp, #124]	; 0x7c
 8006a2a:	3201      	adds	r2, #1
 8006a2c:	2a07      	cmp	r2, #7
 8006a2e:	921f      	str	r2, [sp, #124]	; 0x7c
 8006a30:	f73f af7d 	bgt.w	800692e <_svfprintf_r+0xdfe>
 8006a34:	f103 0408 	add.w	r4, r3, #8
 8006a38:	e5ea      	b.n	8006610 <_svfprintf_r+0xae0>
 8006a3a:	aa1e      	add	r2, sp, #120	; 0x78
 8006a3c:	4659      	mov	r1, fp
 8006a3e:	9802      	ldr	r0, [sp, #8]
 8006a40:	f001 fc6d 	bl	800831e <__ssprint_r>
 8006a44:	2800      	cmp	r0, #0
 8006a46:	f040 8221 	bne.w	8006e8c <_svfprintf_r+0x135c>
 8006a4a:	ac21      	add	r4, sp, #132	; 0x84
 8006a4c:	e7af      	b.n	80069ae <_svfprintf_r+0xe7e>
 8006a4e:	aa1e      	add	r2, sp, #120	; 0x78
 8006a50:	4659      	mov	r1, fp
 8006a52:	9802      	ldr	r0, [sp, #8]
 8006a54:	f001 fc63 	bl	800831e <__ssprint_r>
 8006a58:	2800      	cmp	r0, #0
 8006a5a:	f040 8217 	bne.w	8006e8c <_svfprintf_r+0x135c>
 8006a5e:	ab21      	add	r3, sp, #132	; 0x84
 8006a60:	e7bb      	b.n	80069da <_svfprintf_r+0xeaa>
 8006a62:	3010      	adds	r0, #16
 8006a64:	2907      	cmp	r1, #7
 8006a66:	6054      	str	r4, [r2, #4]
 8006a68:	e9cd 101f 	strd	r1, r0, [sp, #124]	; 0x7c
 8006a6c:	dd08      	ble.n	8006a80 <_svfprintf_r+0xf50>
 8006a6e:	aa1e      	add	r2, sp, #120	; 0x78
 8006a70:	4659      	mov	r1, fp
 8006a72:	9802      	ldr	r0, [sp, #8]
 8006a74:	f001 fc53 	bl	800831e <__ssprint_r>
 8006a78:	2800      	cmp	r0, #0
 8006a7a:	f040 8207 	bne.w	8006e8c <_svfprintf_r+0x135c>
 8006a7e:	ab21      	add	r3, sp, #132	; 0x84
 8006a80:	3e10      	subs	r6, #16
 8006a82:	461a      	mov	r2, r3
 8006a84:	e7b0      	b.n	80069e8 <_svfprintf_r+0xeb8>
 8006a86:	bf00      	nop
 8006a88:	08008a5a 	.word	0x08008a5a
 8006a8c:	08008a6c 	.word	0x08008a6c
 8006a90:	9a03      	ldr	r2, [sp, #12]
 8006a92:	42b2      	cmp	r2, r6
 8006a94:	bfa8      	it	ge
 8006a96:	4632      	movge	r2, r6
 8006a98:	2a00      	cmp	r2, #0
 8006a9a:	4690      	mov	r8, r2
 8006a9c:	dd0a      	ble.n	8006ab4 <_svfprintf_r+0xf84>
 8006a9e:	4413      	add	r3, r2
 8006aa0:	9320      	str	r3, [sp, #128]	; 0x80
 8006aa2:	9b1f      	ldr	r3, [sp, #124]	; 0x7c
 8006aa4:	3301      	adds	r3, #1
 8006aa6:	2b07      	cmp	r3, #7
 8006aa8:	e9c4 9200 	strd	r9, r2, [r4]
 8006aac:	931f      	str	r3, [sp, #124]	; 0x7c
 8006aae:	f300 808a 	bgt.w	8006bc6 <_svfprintf_r+0x1096>
 8006ab2:	3408      	adds	r4, #8
 8006ab4:	f1b8 0f00 	cmp.w	r8, #0
 8006ab8:	bfac      	ite	ge
 8006aba:	eba6 0808 	subge.w	r8, r6, r8
 8006abe:	46b0      	movlt	r8, r6
 8006ac0:	f1b8 0f00 	cmp.w	r8, #0
 8006ac4:	dd1b      	ble.n	8006afe <_svfprintf_r+0xfce>
 8006ac6:	e9dd 231f 	ldrd	r2, r3, [sp, #124]	; 0x7c
 8006aca:	489a      	ldr	r0, [pc, #616]	; (8006d34 <_svfprintf_r+0x1204>)
 8006acc:	6020      	str	r0, [r4, #0]
 8006ace:	f1b8 0f10 	cmp.w	r8, #16
 8006ad2:	f102 0201 	add.w	r2, r2, #1
 8006ad6:	f104 0108 	add.w	r1, r4, #8
 8006ada:	dc7e      	bgt.n	8006bda <_svfprintf_r+0x10aa>
 8006adc:	4443      	add	r3, r8
 8006ade:	2a07      	cmp	r2, #7
 8006ae0:	f8c4 8004 	str.w	r8, [r4, #4]
 8006ae4:	e9cd 231f 	strd	r2, r3, [sp, #124]	; 0x7c
 8006ae8:	f340 808b 	ble.w	8006c02 <_svfprintf_r+0x10d2>
 8006aec:	aa1e      	add	r2, sp, #120	; 0x78
 8006aee:	4659      	mov	r1, fp
 8006af0:	9802      	ldr	r0, [sp, #8]
 8006af2:	f001 fc14 	bl	800831e <__ssprint_r>
 8006af6:	2800      	cmp	r0, #0
 8006af8:	f040 81c8 	bne.w	8006e8c <_svfprintf_r+0x135c>
 8006afc:	ac21      	add	r4, sp, #132	; 0x84
 8006afe:	056b      	lsls	r3, r5, #21
 8006b00:	444e      	add	r6, r9
 8006b02:	d509      	bpl.n	8006b18 <_svfprintf_r+0xfe8>
 8006b04:	9b05      	ldr	r3, [sp, #20]
 8006b06:	2b00      	cmp	r3, #0
 8006b08:	d17d      	bne.n	8006c06 <_svfprintf_r+0x10d6>
 8006b0a:	2f00      	cmp	r7, #0
 8006b0c:	d17d      	bne.n	8006c0a <_svfprintf_r+0x10da>
 8006b0e:	9b03      	ldr	r3, [sp, #12]
 8006b10:	444b      	add	r3, r9
 8006b12:	429e      	cmp	r6, r3
 8006b14:	bf28      	it	cs
 8006b16:	461e      	movcs	r6, r3
 8006b18:	9b18      	ldr	r3, [sp, #96]	; 0x60
 8006b1a:	9a03      	ldr	r2, [sp, #12]
 8006b1c:	4293      	cmp	r3, r2
 8006b1e:	db01      	blt.n	8006b24 <_svfprintf_r+0xff4>
 8006b20:	07ef      	lsls	r7, r5, #31
 8006b22:	d50e      	bpl.n	8006b42 <_svfprintf_r+0x1012>
 8006b24:	9b0f      	ldr	r3, [sp, #60]	; 0x3c
 8006b26:	6023      	str	r3, [r4, #0]
 8006b28:	9b09      	ldr	r3, [sp, #36]	; 0x24
 8006b2a:	6063      	str	r3, [r4, #4]
 8006b2c:	9a09      	ldr	r2, [sp, #36]	; 0x24
 8006b2e:	9b20      	ldr	r3, [sp, #128]	; 0x80
 8006b30:	4413      	add	r3, r2
 8006b32:	9320      	str	r3, [sp, #128]	; 0x80
 8006b34:	9b1f      	ldr	r3, [sp, #124]	; 0x7c
 8006b36:	3301      	adds	r3, #1
 8006b38:	2b07      	cmp	r3, #7
 8006b3a:	931f      	str	r3, [sp, #124]	; 0x7c
 8006b3c:	f300 80e5 	bgt.w	8006d0a <_svfprintf_r+0x11da>
 8006b40:	3408      	adds	r4, #8
 8006b42:	9b03      	ldr	r3, [sp, #12]
 8006b44:	9a03      	ldr	r2, [sp, #12]
 8006b46:	eb09 0703 	add.w	r7, r9, r3
 8006b4a:	1bbb      	subs	r3, r7, r6
 8006b4c:	9f18      	ldr	r7, [sp, #96]	; 0x60
 8006b4e:	1bd7      	subs	r7, r2, r7
 8006b50:	429f      	cmp	r7, r3
 8006b52:	bfa8      	it	ge
 8006b54:	461f      	movge	r7, r3
 8006b56:	2f00      	cmp	r7, #0
 8006b58:	dd0b      	ble.n	8006b72 <_svfprintf_r+0x1042>
 8006b5a:	9b20      	ldr	r3, [sp, #128]	; 0x80
 8006b5c:	443b      	add	r3, r7
 8006b5e:	9320      	str	r3, [sp, #128]	; 0x80
 8006b60:	9b1f      	ldr	r3, [sp, #124]	; 0x7c
 8006b62:	3301      	adds	r3, #1
 8006b64:	2b07      	cmp	r3, #7
 8006b66:	e9c4 6700 	strd	r6, r7, [r4]
 8006b6a:	931f      	str	r3, [sp, #124]	; 0x7c
 8006b6c:	f300 80d7 	bgt.w	8006d1e <_svfprintf_r+0x11ee>
 8006b70:	3408      	adds	r4, #8
 8006b72:	9e18      	ldr	r6, [sp, #96]	; 0x60
 8006b74:	9b03      	ldr	r3, [sp, #12]
 8006b76:	2f00      	cmp	r7, #0
 8006b78:	eba3 0606 	sub.w	r6, r3, r6
 8006b7c:	bfa8      	it	ge
 8006b7e:	1bf6      	subge	r6, r6, r7
 8006b80:	2e00      	cmp	r6, #0
 8006b82:	f77f ad45 	ble.w	8006610 <_svfprintf_r+0xae0>
 8006b86:	4f6b      	ldr	r7, [pc, #428]	; (8006d34 <_svfprintf_r+0x1204>)
 8006b88:	f04f 0810 	mov.w	r8, #16
 8006b8c:	e9dd 321f 	ldrd	r3, r2, [sp, #124]	; 0x7c
 8006b90:	2e10      	cmp	r6, #16
 8006b92:	f103 0301 	add.w	r3, r3, #1
 8006b96:	f104 0108 	add.w	r1, r4, #8
 8006b9a:	6027      	str	r7, [r4, #0]
 8006b9c:	f77f aec0 	ble.w	8006920 <_svfprintf_r+0xdf0>
 8006ba0:	3210      	adds	r2, #16
 8006ba2:	2b07      	cmp	r3, #7
 8006ba4:	f8c4 8004 	str.w	r8, [r4, #4]
 8006ba8:	e9cd 321f 	strd	r3, r2, [sp, #124]	; 0x7c
 8006bac:	dd08      	ble.n	8006bc0 <_svfprintf_r+0x1090>
 8006bae:	aa1e      	add	r2, sp, #120	; 0x78
 8006bb0:	4659      	mov	r1, fp
 8006bb2:	9802      	ldr	r0, [sp, #8]
 8006bb4:	f001 fbb3 	bl	800831e <__ssprint_r>
 8006bb8:	2800      	cmp	r0, #0
 8006bba:	f040 8167 	bne.w	8006e8c <_svfprintf_r+0x135c>
 8006bbe:	a921      	add	r1, sp, #132	; 0x84
 8006bc0:	3e10      	subs	r6, #16
 8006bc2:	460c      	mov	r4, r1
 8006bc4:	e7e2      	b.n	8006b8c <_svfprintf_r+0x105c>
 8006bc6:	aa1e      	add	r2, sp, #120	; 0x78
 8006bc8:	4659      	mov	r1, fp
 8006bca:	9802      	ldr	r0, [sp, #8]
 8006bcc:	f001 fba7 	bl	800831e <__ssprint_r>
 8006bd0:	2800      	cmp	r0, #0
 8006bd2:	f040 815b 	bne.w	8006e8c <_svfprintf_r+0x135c>
 8006bd6:	ac21      	add	r4, sp, #132	; 0x84
 8006bd8:	e76c      	b.n	8006ab4 <_svfprintf_r+0xf84>
 8006bda:	2010      	movs	r0, #16
 8006bdc:	4403      	add	r3, r0
 8006bde:	2a07      	cmp	r2, #7
 8006be0:	6060      	str	r0, [r4, #4]
 8006be2:	e9cd 231f 	strd	r2, r3, [sp, #124]	; 0x7c
 8006be6:	dd08      	ble.n	8006bfa <_svfprintf_r+0x10ca>
 8006be8:	aa1e      	add	r2, sp, #120	; 0x78
 8006bea:	4659      	mov	r1, fp
 8006bec:	9802      	ldr	r0, [sp, #8]
 8006bee:	f001 fb96 	bl	800831e <__ssprint_r>
 8006bf2:	2800      	cmp	r0, #0
 8006bf4:	f040 814a 	bne.w	8006e8c <_svfprintf_r+0x135c>
 8006bf8:	a921      	add	r1, sp, #132	; 0x84
 8006bfa:	f1a8 0810 	sub.w	r8, r8, #16
 8006bfe:	460c      	mov	r4, r1
 8006c00:	e761      	b.n	8006ac6 <_svfprintf_r+0xf96>
 8006c02:	460c      	mov	r4, r1
 8006c04:	e77b      	b.n	8006afe <_svfprintf_r+0xfce>
 8006c06:	2f00      	cmp	r7, #0
 8006c08:	d04e      	beq.n	8006ca8 <_svfprintf_r+0x1178>
 8006c0a:	3f01      	subs	r7, #1
 8006c0c:	9b12      	ldr	r3, [sp, #72]	; 0x48
 8006c0e:	6023      	str	r3, [r4, #0]
 8006c10:	9b0e      	ldr	r3, [sp, #56]	; 0x38
 8006c12:	6063      	str	r3, [r4, #4]
 8006c14:	9a0e      	ldr	r2, [sp, #56]	; 0x38
 8006c16:	9b20      	ldr	r3, [sp, #128]	; 0x80
 8006c18:	4413      	add	r3, r2
 8006c1a:	9320      	str	r3, [sp, #128]	; 0x80
 8006c1c:	9b1f      	ldr	r3, [sp, #124]	; 0x7c
 8006c1e:	3301      	adds	r3, #1
 8006c20:	2b07      	cmp	r3, #7
 8006c22:	931f      	str	r3, [sp, #124]	; 0x7c
 8006c24:	dc47      	bgt.n	8006cb6 <_svfprintf_r+0x1186>
 8006c26:	3408      	adds	r4, #8
 8006c28:	9b03      	ldr	r3, [sp, #12]
 8006c2a:	444b      	add	r3, r9
 8006c2c:	1b9a      	subs	r2, r3, r6
 8006c2e:	9b07      	ldr	r3, [sp, #28]
 8006c30:	781b      	ldrb	r3, [r3, #0]
 8006c32:	4293      	cmp	r3, r2
 8006c34:	bfa8      	it	ge
 8006c36:	4613      	movge	r3, r2
 8006c38:	2b00      	cmp	r3, #0
 8006c3a:	4698      	mov	r8, r3
 8006c3c:	dd0a      	ble.n	8006c54 <_svfprintf_r+0x1124>
 8006c3e:	e9c4 6300 	strd	r6, r3, [r4]
 8006c42:	9b20      	ldr	r3, [sp, #128]	; 0x80
 8006c44:	4443      	add	r3, r8
 8006c46:	9320      	str	r3, [sp, #128]	; 0x80
 8006c48:	9b1f      	ldr	r3, [sp, #124]	; 0x7c
 8006c4a:	3301      	adds	r3, #1
 8006c4c:	2b07      	cmp	r3, #7
 8006c4e:	931f      	str	r3, [sp, #124]	; 0x7c
 8006c50:	dc3b      	bgt.n	8006cca <_svfprintf_r+0x119a>
 8006c52:	3408      	adds	r4, #8
 8006c54:	9b07      	ldr	r3, [sp, #28]
 8006c56:	781b      	ldrb	r3, [r3, #0]
 8006c58:	f1b8 0f00 	cmp.w	r8, #0
 8006c5c:	bfac      	ite	ge
 8006c5e:	eba3 0808 	subge.w	r8, r3, r8
 8006c62:	4698      	movlt	r8, r3
 8006c64:	f1b8 0f00 	cmp.w	r8, #0
 8006c68:	dd1a      	ble.n	8006ca0 <_svfprintf_r+0x1170>
 8006c6a:	e9dd 231f 	ldrd	r2, r3, [sp, #124]	; 0x7c
 8006c6e:	4831      	ldr	r0, [pc, #196]	; (8006d34 <_svfprintf_r+0x1204>)
 8006c70:	6020      	str	r0, [r4, #0]
 8006c72:	f1b8 0f10 	cmp.w	r8, #16
 8006c76:	f102 0201 	add.w	r2, r2, #1
 8006c7a:	f104 0108 	add.w	r1, r4, #8
 8006c7e:	dc2e      	bgt.n	8006cde <_svfprintf_r+0x11ae>
 8006c80:	4443      	add	r3, r8
 8006c82:	2a07      	cmp	r2, #7
 8006c84:	f8c4 8004 	str.w	r8, [r4, #4]
 8006c88:	e9cd 231f 	strd	r2, r3, [sp, #124]	; 0x7c
 8006c8c:	dd3b      	ble.n	8006d06 <_svfprintf_r+0x11d6>
 8006c8e:	aa1e      	add	r2, sp, #120	; 0x78
 8006c90:	4659      	mov	r1, fp
 8006c92:	9802      	ldr	r0, [sp, #8]
 8006c94:	f001 fb43 	bl	800831e <__ssprint_r>
 8006c98:	2800      	cmp	r0, #0
 8006c9a:	f040 80f7 	bne.w	8006e8c <_svfprintf_r+0x135c>
 8006c9e:	ac21      	add	r4, sp, #132	; 0x84
 8006ca0:	9b07      	ldr	r3, [sp, #28]
 8006ca2:	781b      	ldrb	r3, [r3, #0]
 8006ca4:	441e      	add	r6, r3
 8006ca6:	e72d      	b.n	8006b04 <_svfprintf_r+0xfd4>
 8006ca8:	9b07      	ldr	r3, [sp, #28]
 8006caa:	3b01      	subs	r3, #1
 8006cac:	9307      	str	r3, [sp, #28]
 8006cae:	9b05      	ldr	r3, [sp, #20]
 8006cb0:	3b01      	subs	r3, #1
 8006cb2:	9305      	str	r3, [sp, #20]
 8006cb4:	e7aa      	b.n	8006c0c <_svfprintf_r+0x10dc>
 8006cb6:	aa1e      	add	r2, sp, #120	; 0x78
 8006cb8:	4659      	mov	r1, fp
 8006cba:	9802      	ldr	r0, [sp, #8]
 8006cbc:	f001 fb2f 	bl	800831e <__ssprint_r>
 8006cc0:	2800      	cmp	r0, #0
 8006cc2:	f040 80e3 	bne.w	8006e8c <_svfprintf_r+0x135c>
 8006cc6:	ac21      	add	r4, sp, #132	; 0x84
 8006cc8:	e7ae      	b.n	8006c28 <_svfprintf_r+0x10f8>
 8006cca:	aa1e      	add	r2, sp, #120	; 0x78
 8006ccc:	4659      	mov	r1, fp
 8006cce:	9802      	ldr	r0, [sp, #8]
 8006cd0:	f001 fb25 	bl	800831e <__ssprint_r>
 8006cd4:	2800      	cmp	r0, #0
 8006cd6:	f040 80d9 	bne.w	8006e8c <_svfprintf_r+0x135c>
 8006cda:	ac21      	add	r4, sp, #132	; 0x84
 8006cdc:	e7ba      	b.n	8006c54 <_svfprintf_r+0x1124>
 8006cde:	2010      	movs	r0, #16
 8006ce0:	4403      	add	r3, r0
 8006ce2:	2a07      	cmp	r2, #7
 8006ce4:	6060      	str	r0, [r4, #4]
 8006ce6:	e9cd 231f 	strd	r2, r3, [sp, #124]	; 0x7c
 8006cea:	dd08      	ble.n	8006cfe <_svfprintf_r+0x11ce>
 8006cec:	aa1e      	add	r2, sp, #120	; 0x78
 8006cee:	4659      	mov	r1, fp
 8006cf0:	9802      	ldr	r0, [sp, #8]
 8006cf2:	f001 fb14 	bl	800831e <__ssprint_r>
 8006cf6:	2800      	cmp	r0, #0
 8006cf8:	f040 80c8 	bne.w	8006e8c <_svfprintf_r+0x135c>
 8006cfc:	a921      	add	r1, sp, #132	; 0x84
 8006cfe:	f1a8 0810 	sub.w	r8, r8, #16
 8006d02:	460c      	mov	r4, r1
 8006d04:	e7b1      	b.n	8006c6a <_svfprintf_r+0x113a>
 8006d06:	460c      	mov	r4, r1
 8006d08:	e7ca      	b.n	8006ca0 <_svfprintf_r+0x1170>
 8006d0a:	aa1e      	add	r2, sp, #120	; 0x78
 8006d0c:	4659      	mov	r1, fp
 8006d0e:	9802      	ldr	r0, [sp, #8]
 8006d10:	f001 fb05 	bl	800831e <__ssprint_r>
 8006d14:	2800      	cmp	r0, #0
 8006d16:	f040 80b9 	bne.w	8006e8c <_svfprintf_r+0x135c>
 8006d1a:	ac21      	add	r4, sp, #132	; 0x84
 8006d1c:	e711      	b.n	8006b42 <_svfprintf_r+0x1012>
 8006d1e:	aa1e      	add	r2, sp, #120	; 0x78
 8006d20:	4659      	mov	r1, fp
 8006d22:	9802      	ldr	r0, [sp, #8]
 8006d24:	f001 fafb 	bl	800831e <__ssprint_r>
 8006d28:	2800      	cmp	r0, #0
 8006d2a:	f040 80af 	bne.w	8006e8c <_svfprintf_r+0x135c>
 8006d2e:	ac21      	add	r4, sp, #132	; 0x84
 8006d30:	e71f      	b.n	8006b72 <_svfprintf_r+0x1042>
 8006d32:	bf00      	nop
 8006d34:	08008a6c 	.word	0x08008a6c
 8006d38:	9803      	ldr	r0, [sp, #12]
 8006d3a:	991f      	ldr	r1, [sp, #124]	; 0x7c
 8006d3c:	2801      	cmp	r0, #1
 8006d3e:	f103 0201 	add.w	r2, r3, #1
 8006d42:	f101 0101 	add.w	r1, r1, #1
 8006d46:	f104 0308 	add.w	r3, r4, #8
 8006d4a:	dc01      	bgt.n	8006d50 <_svfprintf_r+0x1220>
 8006d4c:	07e8      	lsls	r0, r5, #31
 8006d4e:	d571      	bpl.n	8006e34 <_svfprintf_r+0x1304>
 8006d50:	2001      	movs	r0, #1
 8006d52:	2907      	cmp	r1, #7
 8006d54:	f8c4 9000 	str.w	r9, [r4]
 8006d58:	6060      	str	r0, [r4, #4]
 8006d5a:	e9cd 121f 	strd	r1, r2, [sp, #124]	; 0x7c
 8006d5e:	dd08      	ble.n	8006d72 <_svfprintf_r+0x1242>
 8006d60:	aa1e      	add	r2, sp, #120	; 0x78
 8006d62:	4659      	mov	r1, fp
 8006d64:	9802      	ldr	r0, [sp, #8]
 8006d66:	f001 fada 	bl	800831e <__ssprint_r>
 8006d6a:	2800      	cmp	r0, #0
 8006d6c:	f040 808e 	bne.w	8006e8c <_svfprintf_r+0x135c>
 8006d70:	ab21      	add	r3, sp, #132	; 0x84
 8006d72:	9a0f      	ldr	r2, [sp, #60]	; 0x3c
 8006d74:	601a      	str	r2, [r3, #0]
 8006d76:	9a09      	ldr	r2, [sp, #36]	; 0x24
 8006d78:	605a      	str	r2, [r3, #4]
 8006d7a:	9909      	ldr	r1, [sp, #36]	; 0x24
 8006d7c:	9a20      	ldr	r2, [sp, #128]	; 0x80
 8006d7e:	440a      	add	r2, r1
 8006d80:	9220      	str	r2, [sp, #128]	; 0x80
 8006d82:	9a1f      	ldr	r2, [sp, #124]	; 0x7c
 8006d84:	3201      	adds	r2, #1
 8006d86:	2a07      	cmp	r2, #7
 8006d88:	921f      	str	r2, [sp, #124]	; 0x7c
 8006d8a:	dc25      	bgt.n	8006dd8 <_svfprintf_r+0x12a8>
 8006d8c:	3308      	adds	r3, #8
 8006d8e:	9a03      	ldr	r2, [sp, #12]
 8006d90:	eeb5 8b40 	vcmp.f64	d8, #0.0
 8006d94:	eef1 fa10 	vmrs	APSR_nzcv, fpscr
 8006d98:	f102 34ff 	add.w	r4, r2, #4294967295
 8006d9c:	d025      	beq.n	8006dea <_svfprintf_r+0x12ba>
 8006d9e:	f109 0201 	add.w	r2, r9, #1
 8006da2:	991f      	ldr	r1, [sp, #124]	; 0x7c
 8006da4:	9803      	ldr	r0, [sp, #12]
 8006da6:	e9c3 2400 	strd	r2, r4, [r3]
 8006daa:	9a20      	ldr	r2, [sp, #128]	; 0x80
 8006dac:	3101      	adds	r1, #1
 8006dae:	3a01      	subs	r2, #1
 8006db0:	4402      	add	r2, r0
 8006db2:	2907      	cmp	r1, #7
 8006db4:	e9cd 121f 	strd	r1, r2, [sp, #124]	; 0x7c
 8006db8:	dd45      	ble.n	8006e46 <_svfprintf_r+0x1316>
 8006dba:	aa1e      	add	r2, sp, #120	; 0x78
 8006dbc:	4659      	mov	r1, fp
 8006dbe:	9802      	ldr	r0, [sp, #8]
 8006dc0:	f001 faad 	bl	800831e <__ssprint_r>
 8006dc4:	2800      	cmp	r0, #0
 8006dc6:	d161      	bne.n	8006e8c <_svfprintf_r+0x135c>
 8006dc8:	ab21      	add	r3, sp, #132	; 0x84
 8006dca:	aa1a      	add	r2, sp, #104	; 0x68
 8006dcc:	601a      	str	r2, [r3, #0]
 8006dce:	9a10      	ldr	r2, [sp, #64]	; 0x40
 8006dd0:	605a      	str	r2, [r3, #4]
 8006dd2:	9910      	ldr	r1, [sp, #64]	; 0x40
 8006dd4:	9a20      	ldr	r2, [sp, #128]	; 0x80
 8006dd6:	e625      	b.n	8006a24 <_svfprintf_r+0xef4>
 8006dd8:	aa1e      	add	r2, sp, #120	; 0x78
 8006dda:	4659      	mov	r1, fp
 8006ddc:	9802      	ldr	r0, [sp, #8]
 8006dde:	f001 fa9e 	bl	800831e <__ssprint_r>
 8006de2:	2800      	cmp	r0, #0
 8006de4:	d152      	bne.n	8006e8c <_svfprintf_r+0x135c>
 8006de6:	ab21      	add	r3, sp, #132	; 0x84
 8006de8:	e7d1      	b.n	8006d8e <_svfprintf_r+0x125e>
 8006dea:	2c00      	cmp	r4, #0
 8006dec:	dded      	ble.n	8006dca <_svfprintf_r+0x129a>
 8006dee:	4e3e      	ldr	r6, [pc, #248]	; (8006ee8 <_svfprintf_r+0x13b8>)
 8006df0:	2710      	movs	r7, #16
 8006df2:	e9dd 211f 	ldrd	r2, r1, [sp, #124]	; 0x7c
 8006df6:	2c10      	cmp	r4, #16
 8006df8:	f102 0201 	add.w	r2, r2, #1
 8006dfc:	f103 0008 	add.w	r0, r3, #8
 8006e00:	601e      	str	r6, [r3, #0]
 8006e02:	dc07      	bgt.n	8006e14 <_svfprintf_r+0x12e4>
 8006e04:	605c      	str	r4, [r3, #4]
 8006e06:	2a07      	cmp	r2, #7
 8006e08:	440c      	add	r4, r1
 8006e0a:	e9cd 241f 	strd	r2, r4, [sp, #124]	; 0x7c
 8006e0e:	dcd4      	bgt.n	8006dba <_svfprintf_r+0x128a>
 8006e10:	4603      	mov	r3, r0
 8006e12:	e7da      	b.n	8006dca <_svfprintf_r+0x129a>
 8006e14:	3110      	adds	r1, #16
 8006e16:	2a07      	cmp	r2, #7
 8006e18:	605f      	str	r7, [r3, #4]
 8006e1a:	e9cd 211f 	strd	r2, r1, [sp, #124]	; 0x7c
 8006e1e:	dd06      	ble.n	8006e2e <_svfprintf_r+0x12fe>
 8006e20:	aa1e      	add	r2, sp, #120	; 0x78
 8006e22:	4659      	mov	r1, fp
 8006e24:	9802      	ldr	r0, [sp, #8]
 8006e26:	f001 fa7a 	bl	800831e <__ssprint_r>
 8006e2a:	bb78      	cbnz	r0, 8006e8c <_svfprintf_r+0x135c>
 8006e2c:	a821      	add	r0, sp, #132	; 0x84
 8006e2e:	3c10      	subs	r4, #16
 8006e30:	4603      	mov	r3, r0
 8006e32:	e7de      	b.n	8006df2 <_svfprintf_r+0x12c2>
 8006e34:	2001      	movs	r0, #1
 8006e36:	2907      	cmp	r1, #7
 8006e38:	f8c4 9000 	str.w	r9, [r4]
 8006e3c:	6060      	str	r0, [r4, #4]
 8006e3e:	e9cd 121f 	strd	r1, r2, [sp, #124]	; 0x7c
 8006e42:	ddc2      	ble.n	8006dca <_svfprintf_r+0x129a>
 8006e44:	e7b9      	b.n	8006dba <_svfprintf_r+0x128a>
 8006e46:	3308      	adds	r3, #8
 8006e48:	e7bf      	b.n	8006dca <_svfprintf_r+0x129a>
 8006e4a:	460c      	mov	r4, r1
 8006e4c:	f7ff bbe0 	b.w	8006610 <_svfprintf_r+0xae0>
 8006e50:	9b0b      	ldr	r3, [sp, #44]	; 0x2c
 8006e52:	9a0d      	ldr	r2, [sp, #52]	; 0x34
 8006e54:	1a9d      	subs	r5, r3, r2
 8006e56:	2d00      	cmp	r5, #0
 8006e58:	f77f abdd 	ble.w	8006616 <_svfprintf_r+0xae6>
 8006e5c:	4e23      	ldr	r6, [pc, #140]	; (8006eec <_svfprintf_r+0x13bc>)
 8006e5e:	2710      	movs	r7, #16
 8006e60:	e9dd 321f 	ldrd	r3, r2, [sp, #124]	; 0x7c
 8006e64:	2d10      	cmp	r5, #16
 8006e66:	f103 0301 	add.w	r3, r3, #1
 8006e6a:	6026      	str	r6, [r4, #0]
 8006e6c:	dc18      	bgt.n	8006ea0 <_svfprintf_r+0x1370>
 8006e6e:	6065      	str	r5, [r4, #4]
 8006e70:	2b07      	cmp	r3, #7
 8006e72:	4415      	add	r5, r2
 8006e74:	e9cd 351f 	strd	r3, r5, [sp, #124]	; 0x7c
 8006e78:	f77f abcd 	ble.w	8006616 <_svfprintf_r+0xae6>
 8006e7c:	aa1e      	add	r2, sp, #120	; 0x78
 8006e7e:	4659      	mov	r1, fp
 8006e80:	9802      	ldr	r0, [sp, #8]
 8006e82:	f001 fa4c 	bl	800831e <__ssprint_r>
 8006e86:	2800      	cmp	r0, #0
 8006e88:	f43f abc5 	beq.w	8006616 <_svfprintf_r+0xae6>
 8006e8c:	f1ba 0f00 	cmp.w	sl, #0
 8006e90:	f43f a8d2 	beq.w	8006038 <_svfprintf_r+0x508>
 8006e94:	4651      	mov	r1, sl
 8006e96:	9802      	ldr	r0, [sp, #8]
 8006e98:	f000 fe76 	bl	8007b88 <_free_r>
 8006e9c:	f7ff b8cc 	b.w	8006038 <_svfprintf_r+0x508>
 8006ea0:	3210      	adds	r2, #16
 8006ea2:	2b07      	cmp	r3, #7
 8006ea4:	6067      	str	r7, [r4, #4]
 8006ea6:	e9cd 321f 	strd	r3, r2, [sp, #124]	; 0x7c
 8006eaa:	dc02      	bgt.n	8006eb2 <_svfprintf_r+0x1382>
 8006eac:	3408      	adds	r4, #8
 8006eae:	3d10      	subs	r5, #16
 8006eb0:	e7d6      	b.n	8006e60 <_svfprintf_r+0x1330>
 8006eb2:	aa1e      	add	r2, sp, #120	; 0x78
 8006eb4:	4659      	mov	r1, fp
 8006eb6:	9802      	ldr	r0, [sp, #8]
 8006eb8:	f001 fa31 	bl	800831e <__ssprint_r>
 8006ebc:	2800      	cmp	r0, #0
 8006ebe:	d1e5      	bne.n	8006e8c <_svfprintf_r+0x135c>
 8006ec0:	ac21      	add	r4, sp, #132	; 0x84
 8006ec2:	e7f4      	b.n	8006eae <_svfprintf_r+0x137e>
 8006ec4:	4651      	mov	r1, sl
 8006ec6:	9802      	ldr	r0, [sp, #8]
 8006ec8:	f000 fe5e 	bl	8007b88 <_free_r>
 8006ecc:	f7ff bbbb 	b.w	8006646 <_svfprintf_r+0xb16>
 8006ed0:	9b20      	ldr	r3, [sp, #128]	; 0x80
 8006ed2:	2b00      	cmp	r3, #0
 8006ed4:	f43f a8b0 	beq.w	8006038 <_svfprintf_r+0x508>
 8006ed8:	aa1e      	add	r2, sp, #120	; 0x78
 8006eda:	4659      	mov	r1, fp
 8006edc:	9802      	ldr	r0, [sp, #8]
 8006ede:	f001 fa1e 	bl	800831e <__ssprint_r>
 8006ee2:	f7ff b8a9 	b.w	8006038 <_svfprintf_r+0x508>
 8006ee6:	bf00      	nop
 8006ee8:	08008a6c 	.word	0x08008a6c
 8006eec:	08008a5c 	.word	0x08008a5c

08006ef0 <sysconf>:
 8006ef0:	2808      	cmp	r0, #8
 8006ef2:	b508      	push	{r3, lr}
 8006ef4:	d006      	beq.n	8006f04 <sysconf+0x14>
 8006ef6:	f7fe fb59 	bl	80055ac <__errno>
 8006efa:	2316      	movs	r3, #22
 8006efc:	6003      	str	r3, [r0, #0]
 8006efe:	f04f 30ff 	mov.w	r0, #4294967295
 8006f02:	bd08      	pop	{r3, pc}
 8006f04:	f44f 5080 	mov.w	r0, #4096	; 0x1000
 8006f08:	e7fb      	b.n	8006f02 <sysconf+0x12>
	...

08006f0c <register_fini>:
 8006f0c:	4b02      	ldr	r3, [pc, #8]	; (8006f18 <register_fini+0xc>)
 8006f0e:	b113      	cbz	r3, 8006f16 <register_fini+0xa>
 8006f10:	4802      	ldr	r0, [pc, #8]	; (8006f1c <register_fini+0x10>)
 8006f12:	f000 b805 	b.w	8006f20 <atexit>
 8006f16:	4770      	bx	lr
 8006f18:	00000000 	.word	0x00000000
 8006f1c:	08007ab9 	.word	0x08007ab9

08006f20 <atexit>:
 8006f20:	2300      	movs	r3, #0
 8006f22:	4601      	mov	r1, r0
 8006f24:	461a      	mov	r2, r3
 8006f26:	4618      	mov	r0, r3
 8006f28:	f001 ba72 	b.w	8008410 <__register_exitproc>

08006f2c <quorem>:
 8006f2c:	e92d 4ff7 	stmdb	sp!, {r0, r1, r2, r4, r5, r6, r7, r8, r9, sl, fp, lr}
 8006f30:	6903      	ldr	r3, [r0, #16]
 8006f32:	690c      	ldr	r4, [r1, #16]
 8006f34:	42a3      	cmp	r3, r4
 8006f36:	4680      	mov	r8, r0
 8006f38:	f2c0 8082 	blt.w	8007040 <quorem+0x114>
 8006f3c:	3c01      	subs	r4, #1
 8006f3e:	f101 0714 	add.w	r7, r1, #20
 8006f42:	ea4f 0c84 	mov.w	ip, r4, lsl #2
 8006f46:	f100 0614 	add.w	r6, r0, #20
 8006f4a:	f857 5024 	ldr.w	r5, [r7, r4, lsl #2]
 8006f4e:	f856 0024 	ldr.w	r0, [r6, r4, lsl #2]
 8006f52:	eb06 030c 	add.w	r3, r6, ip
 8006f56:	3501      	adds	r5, #1
 8006f58:	eb07 090c 	add.w	r9, r7, ip
 8006f5c:	9301      	str	r3, [sp, #4]
 8006f5e:	fbb0 f5f5 	udiv	r5, r0, r5
 8006f62:	b395      	cbz	r5, 8006fca <quorem+0x9e>
 8006f64:	f04f 0a00 	mov.w	sl, #0
 8006f68:	4638      	mov	r0, r7
 8006f6a:	46b6      	mov	lr, r6
 8006f6c:	46d3      	mov	fp, sl
 8006f6e:	f850 2b04 	ldr.w	r2, [r0], #4
 8006f72:	b293      	uxth	r3, r2
 8006f74:	fb05 a303 	mla	r3, r5, r3, sl
 8006f78:	ea4f 4a13 	mov.w	sl, r3, lsr #16
 8006f7c:	b29b      	uxth	r3, r3
 8006f7e:	ebab 0303 	sub.w	r3, fp, r3
 8006f82:	0c12      	lsrs	r2, r2, #16
 8006f84:	f8de b000 	ldr.w	fp, [lr]
 8006f88:	fb05 a202 	mla	r2, r5, r2, sl
 8006f8c:	fa13 f38b 	uxtah	r3, r3, fp
 8006f90:	ea4f 4a12 	mov.w	sl, r2, lsr #16
 8006f94:	fa1f fb82 	uxth.w	fp, r2
 8006f98:	f8de 2000 	ldr.w	r2, [lr]
 8006f9c:	ebcb 4212 	rsb	r2, fp, r2, lsr #16
 8006fa0:	eb02 4223 	add.w	r2, r2, r3, asr #16
 8006fa4:	b29b      	uxth	r3, r3
 8006fa6:	ea43 4302 	orr.w	r3, r3, r2, lsl #16
 8006faa:	4581      	cmp	r9, r0
 8006fac:	ea4f 4b22 	mov.w	fp, r2, asr #16
 8006fb0:	f84e 3b04 	str.w	r3, [lr], #4
 8006fb4:	d2db      	bcs.n	8006f6e <quorem+0x42>
 8006fb6:	f856 300c 	ldr.w	r3, [r6, ip]
 8006fba:	b933      	cbnz	r3, 8006fca <quorem+0x9e>
 8006fbc:	9b01      	ldr	r3, [sp, #4]
 8006fbe:	3b04      	subs	r3, #4
 8006fc0:	429e      	cmp	r6, r3
 8006fc2:	461a      	mov	r2, r3
 8006fc4:	d330      	bcc.n	8007028 <quorem+0xfc>
 8006fc6:	f8c8 4010 	str.w	r4, [r8, #16]
 8006fca:	4640      	mov	r0, r8
 8006fcc:	f001 f892 	bl	80080f4 <__mcmp>
 8006fd0:	2800      	cmp	r0, #0
 8006fd2:	db25      	blt.n	8007020 <quorem+0xf4>
 8006fd4:	3501      	adds	r5, #1
 8006fd6:	4630      	mov	r0, r6
 8006fd8:	f04f 0c00 	mov.w	ip, #0
 8006fdc:	f857 2b04 	ldr.w	r2, [r7], #4
 8006fe0:	f8d0 e000 	ldr.w	lr, [r0]
 8006fe4:	b293      	uxth	r3, r2
 8006fe6:	ebac 0303 	sub.w	r3, ip, r3
 8006fea:	0c12      	lsrs	r2, r2, #16
 8006fec:	fa13 f38e 	uxtah	r3, r3, lr
 8006ff0:	ebc2 421e 	rsb	r2, r2, lr, lsr #16
 8006ff4:	eb02 4223 	add.w	r2, r2, r3, asr #16
 8006ff8:	b29b      	uxth	r3, r3
 8006ffa:	ea43 4302 	orr.w	r3, r3, r2, lsl #16
 8006ffe:	45b9      	cmp	r9, r7
 8007000:	ea4f 4c22 	mov.w	ip, r2, asr #16
 8007004:	f840 3b04 	str.w	r3, [r0], #4
 8007008:	d2e8      	bcs.n	8006fdc <quorem+0xb0>
 800700a:	f856 2024 	ldr.w	r2, [r6, r4, lsl #2]
 800700e:	eb06 0384 	add.w	r3, r6, r4, lsl #2
 8007012:	b92a      	cbnz	r2, 8007020 <quorem+0xf4>
 8007014:	3b04      	subs	r3, #4
 8007016:	429e      	cmp	r6, r3
 8007018:	461a      	mov	r2, r3
 800701a:	d30b      	bcc.n	8007034 <quorem+0x108>
 800701c:	f8c8 4010 	str.w	r4, [r8, #16]
 8007020:	4628      	mov	r0, r5
 8007022:	b003      	add	sp, #12
 8007024:	e8bd 8ff0 	ldmia.w	sp!, {r4, r5, r6, r7, r8, r9, sl, fp, pc}
 8007028:	6812      	ldr	r2, [r2, #0]
 800702a:	3b04      	subs	r3, #4
 800702c:	2a00      	cmp	r2, #0
 800702e:	d1ca      	bne.n	8006fc6 <quorem+0x9a>
 8007030:	3c01      	subs	r4, #1
 8007032:	e7c5      	b.n	8006fc0 <quorem+0x94>
 8007034:	6812      	ldr	r2, [r2, #0]
 8007036:	3b04      	subs	r3, #4
 8007038:	2a00      	cmp	r2, #0
 800703a:	d1ef      	bne.n	800701c <quorem+0xf0>
 800703c:	3c01      	subs	r4, #1
 800703e:	e7ea      	b.n	8007016 <quorem+0xea>
 8007040:	2000      	movs	r0, #0
 8007042:	e7ee      	b.n	8007022 <quorem+0xf6>
 8007044:	0000      	movs	r0, r0
	...

08007048 <_dtoa_r>:
 8007048:	e92d 4ff0 	stmdb	sp!, {r4, r5, r6, r7, r8, r9, sl, fp, lr}
 800704c:	b095      	sub	sp, #84	; 0x54
 800704e:	ec57 6b10 	vmov	r6, r7, d0
 8007052:	9108      	str	r1, [sp, #32]
 8007054:	6c01      	ldr	r1, [r0, #64]	; 0x40
 8007056:	920a      	str	r2, [sp, #40]	; 0x28
 8007058:	4604      	mov	r4, r0
 800705a:	9311      	str	r3, [sp, #68]	; 0x44
 800705c:	9d1e      	ldr	r5, [sp, #120]	; 0x78
 800705e:	e9cd 6704 	strd	r6, r7, [sp, #16]
 8007062:	b141      	cbz	r1, 8007076 <_dtoa_r+0x2e>
 8007064:	6c42      	ldr	r2, [r0, #68]	; 0x44
 8007066:	604a      	str	r2, [r1, #4]
 8007068:	2301      	movs	r3, #1
 800706a:	4093      	lsls	r3, r2
 800706c:	608b      	str	r3, [r1, #8]
 800706e:	f000 fe7c 	bl	8007d6a <_Bfree>
 8007072:	2300      	movs	r3, #0
 8007074:	6423      	str	r3, [r4, #64]	; 0x40
 8007076:	1e3b      	subs	r3, r7, #0
 8007078:	bfbb      	ittet	lt
 800707a:	f023 4300 	biclt.w	r3, r3, #2147483648	; 0x80000000
 800707e:	9305      	strlt	r3, [sp, #20]
 8007080:	2300      	movge	r3, #0
 8007082:	2201      	movlt	r2, #1
 8007084:	bfac      	ite	ge
 8007086:	602b      	strge	r3, [r5, #0]
 8007088:	602a      	strlt	r2, [r5, #0]
 800708a:	4ba9      	ldr	r3, [pc, #676]	; (8007330 <_dtoa_r+0x2e8>)
 800708c:	9d05      	ldr	r5, [sp, #20]
 800708e:	43ab      	bics	r3, r5
 8007090:	d11b      	bne.n	80070ca <_dtoa_r+0x82>
 8007092:	9a11      	ldr	r2, [sp, #68]	; 0x44
 8007094:	f242 730f 	movw	r3, #9999	; 0x270f
 8007098:	6013      	str	r3, [r2, #0]
 800709a:	9b04      	ldr	r3, [sp, #16]
 800709c:	b923      	cbnz	r3, 80070a8 <_dtoa_r+0x60>
 800709e:	f3c5 0513 	ubfx	r5, r5, #0, #20
 80070a2:	2d00      	cmp	r5, #0
 80070a4:	f000 84d9 	beq.w	8007a5a <_dtoa_r+0xa12>
 80070a8:	9b1f      	ldr	r3, [sp, #124]	; 0x7c
 80070aa:	b90b      	cbnz	r3, 80070b0 <_dtoa_r+0x68>
 80070ac:	4ba1      	ldr	r3, [pc, #644]	; (8007334 <_dtoa_r+0x2ec>)
 80070ae:	e020      	b.n	80070f2 <_dtoa_r+0xaa>
 80070b0:	4ba0      	ldr	r3, [pc, #640]	; (8007334 <_dtoa_r+0x2ec>)
 80070b2:	9302      	str	r3, [sp, #8]
 80070b4:	3303      	adds	r3, #3
 80070b6:	9a1f      	ldr	r2, [sp, #124]	; 0x7c
 80070b8:	6013      	str	r3, [r2, #0]
 80070ba:	9802      	ldr	r0, [sp, #8]
 80070bc:	b015      	add	sp, #84	; 0x54
 80070be:	e8bd 8ff0 	ldmia.w	sp!, {r4, r5, r6, r7, r8, r9, sl, fp, pc}
 80070c2:	4b9d      	ldr	r3, [pc, #628]	; (8007338 <_dtoa_r+0x2f0>)
 80070c4:	9302      	str	r3, [sp, #8]
 80070c6:	3308      	adds	r3, #8
 80070c8:	e7f5      	b.n	80070b6 <_dtoa_r+0x6e>
 80070ca:	ed9d 7b04 	vldr	d7, [sp, #16]
 80070ce:	eeb5 7b40 	vcmp.f64	d7, #0.0
 80070d2:	eef1 fa10 	vmrs	APSR_nzcv, fpscr
 80070d6:	ed8d 7b02 	vstr	d7, [sp, #8]
 80070da:	d10c      	bne.n	80070f6 <_dtoa_r+0xae>
 80070dc:	9a11      	ldr	r2, [sp, #68]	; 0x44
 80070de:	2301      	movs	r3, #1
 80070e0:	6013      	str	r3, [r2, #0]
 80070e2:	9b1f      	ldr	r3, [sp, #124]	; 0x7c
 80070e4:	2b00      	cmp	r3, #0
 80070e6:	f000 84b5 	beq.w	8007a54 <_dtoa_r+0xa0c>
 80070ea:	4b94      	ldr	r3, [pc, #592]	; (800733c <_dtoa_r+0x2f4>)
 80070ec:	9a1f      	ldr	r2, [sp, #124]	; 0x7c
 80070ee:	6013      	str	r3, [r2, #0]
 80070f0:	3b01      	subs	r3, #1
 80070f2:	9302      	str	r3, [sp, #8]
 80070f4:	e7e1      	b.n	80070ba <_dtoa_r+0x72>
 80070f6:	a913      	add	r1, sp, #76	; 0x4c
 80070f8:	aa12      	add	r2, sp, #72	; 0x48
 80070fa:	ed9d 0b02 	vldr	d0, [sp, #8]
 80070fe:	4620      	mov	r0, r4
 8007100:	f001 f86f 	bl	80081e2 <__d2b>
 8007104:	f3c5 560a 	ubfx	r6, r5, #20, #11
 8007108:	9001      	str	r0, [sp, #4]
 800710a:	9912      	ldr	r1, [sp, #72]	; 0x48
 800710c:	2e00      	cmp	r6, #0
 800710e:	d046      	beq.n	800719e <_dtoa_r+0x156>
 8007110:	9803      	ldr	r0, [sp, #12]
 8007112:	f3c0 0013 	ubfx	r0, r0, #0, #20
 8007116:	e9dd 2302 	ldrd	r2, r3, [sp, #8]
 800711a:	f040 537f 	orr.w	r3, r0, #1069547520	; 0x3fc00000
 800711e:	f443 1340 	orr.w	r3, r3, #3145728	; 0x300000
 8007122:	f2a6 3aff 	subw	sl, r6, #1023	; 0x3ff
 8007126:	2700      	movs	r7, #0
 8007128:	ee07 aa90 	vmov	s15, sl
 800712c:	ec43 2b16 	vmov	d6, r2, r3
 8007130:	eeb8 5be7 	vcvt.f64.s32	d5, s15
 8007134:	ed9f 4b78 	vldr	d4, [pc, #480]	; 8007318 <_dtoa_r+0x2d0>
 8007138:	eeb7 7b08 	vmov.f64	d7, #120	; 0x3fc00000  1.5
 800713c:	ee36 7b47 	vsub.f64	d7, d6, d7
 8007140:	ed9f 6b77 	vldr	d6, [pc, #476]	; 8007320 <_dtoa_r+0x2d8>
 8007144:	eea7 6b04 	vfma.f64	d6, d7, d4
 8007148:	eeb0 7b46 	vmov.f64	d7, d6
 800714c:	ed9f 6b76 	vldr	d6, [pc, #472]	; 8007328 <_dtoa_r+0x2e0>
 8007150:	eea5 7b06 	vfma.f64	d7, d5, d6
 8007154:	eefd 6bc7 	vcvt.s32.f64	s13, d7
 8007158:	eeb5 7bc0 	vcmpe.f64	d7, #0.0
 800715c:	eef1 fa10 	vmrs	APSR_nzcv, fpscr
 8007160:	ee16 ba90 	vmov	fp, s13
 8007164:	d508      	bpl.n	8007178 <_dtoa_r+0x130>
 8007166:	eeb8 6be6 	vcvt.f64.s32	d6, s13
 800716a:	eeb4 6b47 	vcmp.f64	d6, d7
 800716e:	eef1 fa10 	vmrs	APSR_nzcv, fpscr
 8007172:	bf18      	it	ne
 8007174:	f10b 3bff 	addne.w	fp, fp, #4294967295
 8007178:	f1bb 0f16 	cmp.w	fp, #22
 800717c:	d834      	bhi.n	80071e8 <_dtoa_r+0x1a0>
 800717e:	4b70      	ldr	r3, [pc, #448]	; (8007340 <_dtoa_r+0x2f8>)
 8007180:	eb03 03cb 	add.w	r3, r3, fp, lsl #3
 8007184:	ed93 7b00 	vldr	d7, [r3]
 8007188:	ed9d 6b04 	vldr	d6, [sp, #16]
 800718c:	eeb4 7bc6 	vcmpe.f64	d7, d6
 8007190:	eef1 fa10 	vmrs	APSR_nzcv, fpscr
 8007194:	dd01      	ble.n	800719a <_dtoa_r+0x152>
 8007196:	f10b 3bff 	add.w	fp, fp, #4294967295
 800719a:	2300      	movs	r3, #0
 800719c:	e025      	b.n	80071ea <_dtoa_r+0x1a2>
 800719e:	9b13      	ldr	r3, [sp, #76]	; 0x4c
 80071a0:	eb01 0a03 	add.w	sl, r1, r3
 80071a4:	f20a 4332 	addw	r3, sl, #1074	; 0x432
 80071a8:	2b20      	cmp	r3, #32
 80071aa:	dd17      	ble.n	80071dc <_dtoa_r+0x194>
 80071ac:	f1c3 0340 	rsb	r3, r3, #64	; 0x40
 80071b0:	9a04      	ldr	r2, [sp, #16]
 80071b2:	409d      	lsls	r5, r3
 80071b4:	f20a 4312 	addw	r3, sl, #1042	; 0x412
 80071b8:	fa22 f303 	lsr.w	r3, r2, r3
 80071bc:	432b      	orrs	r3, r5
 80071be:	ee07 3a90 	vmov	s15, r3
 80071c2:	eeb8 7b67 	vcvt.f64.u32	d7, s15
 80071c6:	f10a 3aff 	add.w	sl, sl, #4294967295
 80071ca:	ed8d 7b02 	vstr	d7, [sp, #8]
 80071ce:	9803      	ldr	r0, [sp, #12]
 80071d0:	e9dd 2302 	ldrd	r2, r3, [sp, #8]
 80071d4:	2701      	movs	r7, #1
 80071d6:	f1a0 73f8 	sub.w	r3, r0, #32505856	; 0x1f00000
 80071da:	e7a5      	b.n	8007128 <_dtoa_r+0xe0>
 80071dc:	9a04      	ldr	r2, [sp, #16]
 80071de:	f1c3 0320 	rsb	r3, r3, #32
 80071e2:	fa02 f303 	lsl.w	r3, r2, r3
 80071e6:	e7ea      	b.n	80071be <_dtoa_r+0x176>
 80071e8:	2301      	movs	r3, #1
 80071ea:	eba1 0a0a 	sub.w	sl, r1, sl
 80071ee:	9310      	str	r3, [sp, #64]	; 0x40
 80071f0:	f1ba 0301 	subs.w	r3, sl, #1
 80071f4:	9307      	str	r3, [sp, #28]
 80071f6:	bf43      	ittte	mi
 80071f8:	2300      	movmi	r3, #0
 80071fa:	f1ca 0a01 	rsbmi	sl, sl, #1
 80071fe:	9307      	strmi	r3, [sp, #28]
 8007200:	f04f 0a00 	movpl.w	sl, #0
 8007204:	f1bb 0f00 	cmp.w	fp, #0
 8007208:	db19      	blt.n	800723e <_dtoa_r+0x1f6>
 800720a:	9b07      	ldr	r3, [sp, #28]
 800720c:	f8cd b02c 	str.w	fp, [sp, #44]	; 0x2c
 8007210:	445b      	add	r3, fp
 8007212:	9307      	str	r3, [sp, #28]
 8007214:	f04f 0800 	mov.w	r8, #0
 8007218:	9b08      	ldr	r3, [sp, #32]
 800721a:	2b09      	cmp	r3, #9
 800721c:	d863      	bhi.n	80072e6 <_dtoa_r+0x29e>
 800721e:	2b05      	cmp	r3, #5
 8007220:	bfc4      	itt	gt
 8007222:	3b04      	subgt	r3, #4
 8007224:	9308      	strgt	r3, [sp, #32]
 8007226:	9b08      	ldr	r3, [sp, #32]
 8007228:	f1a3 0302 	sub.w	r3, r3, #2
 800722c:	bfcc      	ite	gt
 800722e:	2500      	movgt	r5, #0
 8007230:	2501      	movle	r5, #1
 8007232:	2b03      	cmp	r3, #3
 8007234:	d863      	bhi.n	80072fe <_dtoa_r+0x2b6>
 8007236:	e8df f003 	tbb	[pc, r3]
 800723a:	5452      	.short	0x5452
 800723c:	4609      	.short	0x4609
 800723e:	2300      	movs	r3, #0
 8007240:	ebaa 0a0b 	sub.w	sl, sl, fp
 8007244:	f1cb 0800 	rsb	r8, fp, #0
 8007248:	930b      	str	r3, [sp, #44]	; 0x2c
 800724a:	e7e5      	b.n	8007218 <_dtoa_r+0x1d0>
 800724c:	2301      	movs	r3, #1
 800724e:	9309      	str	r3, [sp, #36]	; 0x24
 8007250:	9b0a      	ldr	r3, [sp, #40]	; 0x28
 8007252:	2b00      	cmp	r3, #0
 8007254:	dd56      	ble.n	8007304 <_dtoa_r+0x2bc>
 8007256:	9306      	str	r3, [sp, #24]
 8007258:	4699      	mov	r9, r3
 800725a:	2200      	movs	r2, #0
 800725c:	6462      	str	r2, [r4, #68]	; 0x44
 800725e:	2204      	movs	r2, #4
 8007260:	f102 0014 	add.w	r0, r2, #20
 8007264:	4298      	cmp	r0, r3
 8007266:	6c61      	ldr	r1, [r4, #68]	; 0x44
 8007268:	d951      	bls.n	800730e <_dtoa_r+0x2c6>
 800726a:	4620      	mov	r0, r4
 800726c:	f000 fd58 	bl	8007d20 <_Balloc>
 8007270:	f1b9 0f0e 	cmp.w	r9, #14
 8007274:	9002      	str	r0, [sp, #8]
 8007276:	6420      	str	r0, [r4, #64]	; 0x40
 8007278:	f200 80c1 	bhi.w	80073fe <_dtoa_r+0x3b6>
 800727c:	2d00      	cmp	r5, #0
 800727e:	f000 80be 	beq.w	80073fe <_dtoa_r+0x3b6>
 8007282:	ed9d 7b04 	vldr	d7, [sp, #16]
 8007286:	f1bb 0f00 	cmp.w	fp, #0
 800728a:	ed8d 7b0e 	vstr	d7, [sp, #56]	; 0x38
 800728e:	f340 80e5 	ble.w	800745c <_dtoa_r+0x414>
 8007292:	4a2b      	ldr	r2, [pc, #172]	; (8007340 <_dtoa_r+0x2f8>)
 8007294:	f00b 030f 	and.w	r3, fp, #15
 8007298:	eb02 03c3 	add.w	r3, r2, r3, lsl #3
 800729c:	ed93 7b00 	vldr	d7, [r3]
 80072a0:	ea4f 132b 	mov.w	r3, fp, asr #4
 80072a4:	06da      	lsls	r2, r3, #27
 80072a6:	f140 80d7 	bpl.w	8007458 <_dtoa_r+0x410>
 80072aa:	4a26      	ldr	r2, [pc, #152]	; (8007344 <_dtoa_r+0x2fc>)
 80072ac:	ed9d 5b0e 	vldr	d5, [sp, #56]	; 0x38
 80072b0:	ed92 6b08 	vldr	d6, [r2, #32]
 80072b4:	ee85 6b06 	vdiv.f64	d6, d5, d6
 80072b8:	ed8d 6b04 	vstr	d6, [sp, #16]
 80072bc:	f003 030f 	and.w	r3, r3, #15
 80072c0:	2203      	movs	r2, #3
 80072c2:	4920      	ldr	r1, [pc, #128]	; (8007344 <_dtoa_r+0x2fc>)
 80072c4:	e049      	b.n	800735a <_dtoa_r+0x312>
 80072c6:	2301      	movs	r3, #1
 80072c8:	9309      	str	r3, [sp, #36]	; 0x24
 80072ca:	9b0a      	ldr	r3, [sp, #40]	; 0x28
 80072cc:	445b      	add	r3, fp
 80072ce:	f103 0901 	add.w	r9, r3, #1
 80072d2:	9306      	str	r3, [sp, #24]
 80072d4:	464b      	mov	r3, r9
 80072d6:	2b01      	cmp	r3, #1
 80072d8:	bfb8      	it	lt
 80072da:	2301      	movlt	r3, #1
 80072dc:	e7bd      	b.n	800725a <_dtoa_r+0x212>
 80072de:	2300      	movs	r3, #0
 80072e0:	e7b5      	b.n	800724e <_dtoa_r+0x206>
 80072e2:	2300      	movs	r3, #0
 80072e4:	e7f0      	b.n	80072c8 <_dtoa_r+0x280>
 80072e6:	2501      	movs	r5, #1
 80072e8:	2300      	movs	r3, #0
 80072ea:	e9cd 3508 	strd	r3, r5, [sp, #32]
 80072ee:	f04f 33ff 	mov.w	r3, #4294967295
 80072f2:	9306      	str	r3, [sp, #24]
 80072f4:	4699      	mov	r9, r3
 80072f6:	2200      	movs	r2, #0
 80072f8:	2312      	movs	r3, #18
 80072fa:	920a      	str	r2, [sp, #40]	; 0x28
 80072fc:	e7ad      	b.n	800725a <_dtoa_r+0x212>
 80072fe:	2301      	movs	r3, #1
 8007300:	9309      	str	r3, [sp, #36]	; 0x24
 8007302:	e7f4      	b.n	80072ee <_dtoa_r+0x2a6>
 8007304:	2301      	movs	r3, #1
 8007306:	9306      	str	r3, [sp, #24]
 8007308:	4699      	mov	r9, r3
 800730a:	461a      	mov	r2, r3
 800730c:	e7f5      	b.n	80072fa <_dtoa_r+0x2b2>
 800730e:	3101      	adds	r1, #1
 8007310:	6461      	str	r1, [r4, #68]	; 0x44
 8007312:	0052      	lsls	r2, r2, #1
 8007314:	e7a4      	b.n	8007260 <_dtoa_r+0x218>
 8007316:	bf00      	nop
 8007318:	636f4361 	.word	0x636f4361
 800731c:	3fd287a7 	.word	0x3fd287a7
 8007320:	8b60c8b3 	.word	0x8b60c8b3
 8007324:	3fc68a28 	.word	0x3fc68a28
 8007328:	509f79fb 	.word	0x509f79fb
 800732c:	3fd34413 	.word	0x3fd34413
 8007330:	7ff00000 	.word	0x7ff00000
 8007334:	08008a85 	.word	0x08008a85
 8007338:	08008a7c 	.word	0x08008a7c
 800733c:	08008a5b 	.word	0x08008a5b
 8007340:	08008ab8 	.word	0x08008ab8
 8007344:	08008a90 	.word	0x08008a90
 8007348:	07de      	lsls	r6, r3, #31
 800734a:	d504      	bpl.n	8007356 <_dtoa_r+0x30e>
 800734c:	ed91 6b00 	vldr	d6, [r1]
 8007350:	3201      	adds	r2, #1
 8007352:	ee27 7b06 	vmul.f64	d7, d7, d6
 8007356:	105b      	asrs	r3, r3, #1
 8007358:	3108      	adds	r1, #8
 800735a:	2b00      	cmp	r3, #0
 800735c:	d1f4      	bne.n	8007348 <_dtoa_r+0x300>
 800735e:	ed9d 6b04 	vldr	d6, [sp, #16]
 8007362:	ee86 7b07 	vdiv.f64	d7, d6, d7
 8007366:	ed8d 7b04 	vstr	d7, [sp, #16]
 800736a:	9b10      	ldr	r3, [sp, #64]	; 0x40
 800736c:	2b00      	cmp	r3, #0
 800736e:	f000 80a7 	beq.w	80074c0 <_dtoa_r+0x478>
 8007372:	eeb7 6b00 	vmov.f64	d6, #112	; 0x3f800000  1.0
 8007376:	ed9d 7b04 	vldr	d7, [sp, #16]
 800737a:	eeb4 7bc6 	vcmpe.f64	d7, d6
 800737e:	eef1 fa10 	vmrs	APSR_nzcv, fpscr
 8007382:	f140 809d 	bpl.w	80074c0 <_dtoa_r+0x478>
 8007386:	f1b9 0f00 	cmp.w	r9, #0
 800738a:	f000 8099 	beq.w	80074c0 <_dtoa_r+0x478>
 800738e:	9b06      	ldr	r3, [sp, #24]
 8007390:	2b00      	cmp	r3, #0
 8007392:	dd30      	ble.n	80073f6 <_dtoa_r+0x3ae>
 8007394:	eeb2 6b04 	vmov.f64	d6, #36	; 0x41200000  10.0
 8007398:	ee27 7b06 	vmul.f64	d7, d7, d6
 800739c:	ed8d 7b04 	vstr	d7, [sp, #16]
 80073a0:	9d06      	ldr	r5, [sp, #24]
 80073a2:	f10b 33ff 	add.w	r3, fp, #4294967295
 80073a6:	3201      	adds	r2, #1
 80073a8:	ed9d 6b04 	vldr	d6, [sp, #16]
 80073ac:	eeb1 5b0c 	vmov.f64	d5, #28	; 0x40e00000  7.0
 80073b0:	ee07 2a90 	vmov	s15, r2
 80073b4:	eeb8 7be7 	vcvt.f64.s32	d7, s15
 80073b8:	eea7 5b06 	vfma.f64	d5, d7, d6
 80073bc:	ed8d 5b04 	vstr	d5, [sp, #16]
 80073c0:	9a05      	ldr	r2, [sp, #20]
 80073c2:	e9dd 0104 	ldrd	r0, r1, [sp, #16]
 80073c6:	f1a2 7150 	sub.w	r1, r2, #54525952	; 0x3400000
 80073ca:	2d00      	cmp	r5, #0
 80073cc:	d17b      	bne.n	80074c6 <_dtoa_r+0x47e>
 80073ce:	eeb1 7b04 	vmov.f64	d7, #20	; 0x40a00000  5.0
 80073d2:	ee36 6b47 	vsub.f64	d6, d6, d7
 80073d6:	ec41 0b17 	vmov	d7, r0, r1
 80073da:	eeb4 6bc7 	vcmpe.f64	d6, d7
 80073de:	eef1 fa10 	vmrs	APSR_nzcv, fpscr
 80073e2:	f300 8253 	bgt.w	800788c <_dtoa_r+0x844>
 80073e6:	eeb1 7b47 	vneg.f64	d7, d7
 80073ea:	eeb4 6bc7 	vcmpe.f64	d6, d7
 80073ee:	eef1 fa10 	vmrs	APSR_nzcv, fpscr
 80073f2:	f100 8249 	bmi.w	8007888 <_dtoa_r+0x840>
 80073f6:	e9dd 230e 	ldrd	r2, r3, [sp, #56]	; 0x38
 80073fa:	e9cd 2304 	strd	r2, r3, [sp, #16]
 80073fe:	9b13      	ldr	r3, [sp, #76]	; 0x4c
 8007400:	2b00      	cmp	r3, #0
 8007402:	f2c0 8119 	blt.w	8007638 <_dtoa_r+0x5f0>
 8007406:	f1bb 0f0e 	cmp.w	fp, #14
 800740a:	f300 8115 	bgt.w	8007638 <_dtoa_r+0x5f0>
 800740e:	4bc3      	ldr	r3, [pc, #780]	; (800771c <_dtoa_r+0x6d4>)
 8007410:	eb03 03cb 	add.w	r3, r3, fp, lsl #3
 8007414:	ed93 6b00 	vldr	d6, [r3]
 8007418:	9b0a      	ldr	r3, [sp, #40]	; 0x28
 800741a:	2b00      	cmp	r3, #0
 800741c:	f280 80ba 	bge.w	8007594 <_dtoa_r+0x54c>
 8007420:	f1b9 0f00 	cmp.w	r9, #0
 8007424:	f300 80b6 	bgt.w	8007594 <_dtoa_r+0x54c>
 8007428:	f040 822d 	bne.w	8007886 <_dtoa_r+0x83e>
 800742c:	eeb1 7b04 	vmov.f64	d7, #20	; 0x40a00000  5.0
 8007430:	ee26 6b07 	vmul.f64	d6, d6, d7
 8007434:	ed9d 7b04 	vldr	d7, [sp, #16]
 8007438:	eeb4 6bc7 	vcmpe.f64	d6, d7
 800743c:	eef1 fa10 	vmrs	APSR_nzcv, fpscr
 8007440:	464d      	mov	r5, r9
 8007442:	464f      	mov	r7, r9
 8007444:	f280 8204 	bge.w	8007850 <_dtoa_r+0x808>
 8007448:	9b02      	ldr	r3, [sp, #8]
 800744a:	9a02      	ldr	r2, [sp, #8]
 800744c:	1c5e      	adds	r6, r3, #1
 800744e:	2331      	movs	r3, #49	; 0x31
 8007450:	7013      	strb	r3, [r2, #0]
 8007452:	f10b 0b01 	add.w	fp, fp, #1
 8007456:	e1ff      	b.n	8007858 <_dtoa_r+0x810>
 8007458:	2202      	movs	r2, #2
 800745a:	e732      	b.n	80072c2 <_dtoa_r+0x27a>
 800745c:	d02e      	beq.n	80074bc <_dtoa_r+0x474>
 800745e:	f1cb 0300 	rsb	r3, fp, #0
 8007462:	4aae      	ldr	r2, [pc, #696]	; (800771c <_dtoa_r+0x6d4>)
 8007464:	f003 010f 	and.w	r1, r3, #15
 8007468:	eb02 02c1 	add.w	r2, r2, r1, lsl #3
 800746c:	ed92 7b00 	vldr	d7, [r2]
 8007470:	ed9d 6b0e 	vldr	d6, [sp, #56]	; 0x38
 8007474:	ee26 7b07 	vmul.f64	d7, d6, d7
 8007478:	ed8d 7b0c 	vstr	d7, [sp, #48]	; 0x30
 800747c:	e9dd 120c 	ldrd	r1, r2, [sp, #48]	; 0x30
 8007480:	e9cd 1204 	strd	r1, r2, [sp, #16]
 8007484:	49a6      	ldr	r1, [pc, #664]	; (8007720 <_dtoa_r+0x6d8>)
 8007486:	111b      	asrs	r3, r3, #4
 8007488:	2000      	movs	r0, #0
 800748a:	2202      	movs	r2, #2
 800748c:	b93b      	cbnz	r3, 800749e <_dtoa_r+0x456>
 800748e:	2800      	cmp	r0, #0
 8007490:	f43f af6b 	beq.w	800736a <_dtoa_r+0x322>
 8007494:	e9dd 010c 	ldrd	r0, r1, [sp, #48]	; 0x30
 8007498:	e9cd 0104 	strd	r0, r1, [sp, #16]
 800749c:	e765      	b.n	800736a <_dtoa_r+0x322>
 800749e:	07dd      	lsls	r5, r3, #31
 80074a0:	d509      	bpl.n	80074b6 <_dtoa_r+0x46e>
 80074a2:	ed9d 6b0c 	vldr	d6, [sp, #48]	; 0x30
 80074a6:	ed91 7b00 	vldr	d7, [r1]
 80074aa:	ee26 7b07 	vmul.f64	d7, d6, d7
 80074ae:	ed8d 7b0c 	vstr	d7, [sp, #48]	; 0x30
 80074b2:	3201      	adds	r2, #1
 80074b4:	2001      	movs	r0, #1
 80074b6:	105b      	asrs	r3, r3, #1
 80074b8:	3108      	adds	r1, #8
 80074ba:	e7e7      	b.n	800748c <_dtoa_r+0x444>
 80074bc:	2202      	movs	r2, #2
 80074be:	e754      	b.n	800736a <_dtoa_r+0x322>
 80074c0:	465b      	mov	r3, fp
 80074c2:	464d      	mov	r5, r9
 80074c4:	e770      	b.n	80073a8 <_dtoa_r+0x360>
 80074c6:	4a95      	ldr	r2, [pc, #596]	; (800771c <_dtoa_r+0x6d4>)
 80074c8:	eb02 02c5 	add.w	r2, r2, r5, lsl #3
 80074cc:	ed12 4b02 	vldr	d4, [r2, #-8]
 80074d0:	9a09      	ldr	r2, [sp, #36]	; 0x24
 80074d2:	ec41 0b17 	vmov	d7, r0, r1
 80074d6:	b35a      	cbz	r2, 8007530 <_dtoa_r+0x4e8>
 80074d8:	eeb6 3b00 	vmov.f64	d3, #96	; 0x3f000000  0.5
 80074dc:	eeb7 2b00 	vmov.f64	d2, #112	; 0x3f800000  1.0
 80074e0:	9e02      	ldr	r6, [sp, #8]
 80074e2:	ee83 5b04 	vdiv.f64	d5, d3, d4
 80074e6:	eeb2 3b04 	vmov.f64	d3, #36	; 0x41200000  10.0
 80074ea:	ee35 7b47 	vsub.f64	d7, d5, d7
 80074ee:	eefd 4bc6 	vcvt.s32.f64	s9, d6
 80074f2:	ee14 2a90 	vmov	r2, s9
 80074f6:	eeb8 5be4 	vcvt.f64.s32	d5, s9
 80074fa:	3230      	adds	r2, #48	; 0x30
 80074fc:	ee36 6b45 	vsub.f64	d6, d6, d5
 8007500:	eeb4 6bc7 	vcmpe.f64	d6, d7
 8007504:	eef1 fa10 	vmrs	APSR_nzcv, fpscr
 8007508:	f806 2b01 	strb.w	r2, [r6], #1
 800750c:	d43b      	bmi.n	8007586 <_dtoa_r+0x53e>
 800750e:	ee32 5b46 	vsub.f64	d5, d2, d6
 8007512:	eeb4 5bc7 	vcmpe.f64	d5, d7
 8007516:	eef1 fa10 	vmrs	APSR_nzcv, fpscr
 800751a:	d472      	bmi.n	8007602 <_dtoa_r+0x5ba>
 800751c:	9a02      	ldr	r2, [sp, #8]
 800751e:	1ab2      	subs	r2, r6, r2
 8007520:	4295      	cmp	r5, r2
 8007522:	f77f af68 	ble.w	80073f6 <_dtoa_r+0x3ae>
 8007526:	ee27 7b03 	vmul.f64	d7, d7, d3
 800752a:	ee26 6b03 	vmul.f64	d6, d6, d3
 800752e:	e7de      	b.n	80074ee <_dtoa_r+0x4a6>
 8007530:	9a02      	ldr	r2, [sp, #8]
 8007532:	ee24 7b07 	vmul.f64	d7, d4, d7
 8007536:	1956      	adds	r6, r2, r5
 8007538:	4611      	mov	r1, r2
 800753a:	eeb2 3b04 	vmov.f64	d3, #36	; 0x41200000  10.0
 800753e:	eefd 4bc6 	vcvt.s32.f64	s9, d6
 8007542:	ee14 2a90 	vmov	r2, s9
 8007546:	3230      	adds	r2, #48	; 0x30
 8007548:	f801 2b01 	strb.w	r2, [r1], #1
 800754c:	42b1      	cmp	r1, r6
 800754e:	eeb8 5be4 	vcvt.f64.s32	d5, s9
 8007552:	ee36 6b45 	vsub.f64	d6, d6, d5
 8007556:	d11a      	bne.n	800758e <_dtoa_r+0x546>
 8007558:	eeb6 5b00 	vmov.f64	d5, #96	; 0x3f000000  0.5
 800755c:	ee37 4b05 	vadd.f64	d4, d7, d5
 8007560:	eeb4 6bc4 	vcmpe.f64	d6, d4
 8007564:	eef1 fa10 	vmrs	APSR_nzcv, fpscr
 8007568:	dc4b      	bgt.n	8007602 <_dtoa_r+0x5ba>
 800756a:	ee35 7b47 	vsub.f64	d7, d5, d7
 800756e:	eeb4 6bc7 	vcmpe.f64	d6, d7
 8007572:	eef1 fa10 	vmrs	APSR_nzcv, fpscr
 8007576:	f57f af3e 	bpl.w	80073f6 <_dtoa_r+0x3ae>
 800757a:	f816 2c01 	ldrb.w	r2, [r6, #-1]
 800757e:	2a30      	cmp	r2, #48	; 0x30
 8007580:	f106 31ff 	add.w	r1, r6, #4294967295
 8007584:	d001      	beq.n	800758a <_dtoa_r+0x542>
 8007586:	469b      	mov	fp, r3
 8007588:	e02a      	b.n	80075e0 <_dtoa_r+0x598>
 800758a:	460e      	mov	r6, r1
 800758c:	e7f5      	b.n	800757a <_dtoa_r+0x532>
 800758e:	ee26 6b03 	vmul.f64	d6, d6, d3
 8007592:	e7d4      	b.n	800753e <_dtoa_r+0x4f6>
 8007594:	ed9d 7b04 	vldr	d7, [sp, #16]
 8007598:	eeb2 4b04 	vmov.f64	d4, #36	; 0x41200000  10.0
 800759c:	9e02      	ldr	r6, [sp, #8]
 800759e:	ee87 5b06 	vdiv.f64	d5, d7, d6
 80075a2:	eebd 5bc5 	vcvt.s32.f64	s10, d5
 80075a6:	ee15 3a10 	vmov	r3, s10
 80075aa:	3330      	adds	r3, #48	; 0x30
 80075ac:	f806 3b01 	strb.w	r3, [r6], #1
 80075b0:	9b02      	ldr	r3, [sp, #8]
 80075b2:	1af3      	subs	r3, r6, r3
 80075b4:	4599      	cmp	r9, r3
 80075b6:	eeb8 3bc5 	vcvt.f64.s32	d3, s10
 80075ba:	eea3 7b46 	vfms.f64	d7, d3, d6
 80075be:	d133      	bne.n	8007628 <_dtoa_r+0x5e0>
 80075c0:	ee37 7b07 	vadd.f64	d7, d7, d7
 80075c4:	eeb4 7bc6 	vcmpe.f64	d7, d6
 80075c8:	eef1 fa10 	vmrs	APSR_nzcv, fpscr
 80075cc:	dc18      	bgt.n	8007600 <_dtoa_r+0x5b8>
 80075ce:	eeb4 7b46 	vcmp.f64	d7, d6
 80075d2:	eef1 fa10 	vmrs	APSR_nzcv, fpscr
 80075d6:	d103      	bne.n	80075e0 <_dtoa_r+0x598>
 80075d8:	ee15 3a10 	vmov	r3, s10
 80075dc:	07db      	lsls	r3, r3, #31
 80075de:	d40f      	bmi.n	8007600 <_dtoa_r+0x5b8>
 80075e0:	9901      	ldr	r1, [sp, #4]
 80075e2:	4620      	mov	r0, r4
 80075e4:	f000 fbc1 	bl	8007d6a <_Bfree>
 80075e8:	2300      	movs	r3, #0
 80075ea:	9a11      	ldr	r2, [sp, #68]	; 0x44
 80075ec:	7033      	strb	r3, [r6, #0]
 80075ee:	f10b 0301 	add.w	r3, fp, #1
 80075f2:	6013      	str	r3, [r2, #0]
 80075f4:	9b1f      	ldr	r3, [sp, #124]	; 0x7c
 80075f6:	2b00      	cmp	r3, #0
 80075f8:	f43f ad5f 	beq.w	80070ba <_dtoa_r+0x72>
 80075fc:	601e      	str	r6, [r3, #0]
 80075fe:	e55c      	b.n	80070ba <_dtoa_r+0x72>
 8007600:	465b      	mov	r3, fp
 8007602:	f816 1c01 	ldrb.w	r1, [r6, #-1]
 8007606:	2939      	cmp	r1, #57	; 0x39
 8007608:	f106 32ff 	add.w	r2, r6, #4294967295
 800760c:	d106      	bne.n	800761c <_dtoa_r+0x5d4>
 800760e:	9902      	ldr	r1, [sp, #8]
 8007610:	4291      	cmp	r1, r2
 8007612:	d107      	bne.n	8007624 <_dtoa_r+0x5dc>
 8007614:	2230      	movs	r2, #48	; 0x30
 8007616:	700a      	strb	r2, [r1, #0]
 8007618:	3301      	adds	r3, #1
 800761a:	460a      	mov	r2, r1
 800761c:	7811      	ldrb	r1, [r2, #0]
 800761e:	3101      	adds	r1, #1
 8007620:	7011      	strb	r1, [r2, #0]
 8007622:	e7b0      	b.n	8007586 <_dtoa_r+0x53e>
 8007624:	4616      	mov	r6, r2
 8007626:	e7ec      	b.n	8007602 <_dtoa_r+0x5ba>
 8007628:	ee27 7b04 	vmul.f64	d7, d7, d4
 800762c:	eeb5 7b40 	vcmp.f64	d7, #0.0
 8007630:	eef1 fa10 	vmrs	APSR_nzcv, fpscr
 8007634:	d1b3      	bne.n	800759e <_dtoa_r+0x556>
 8007636:	e7d3      	b.n	80075e0 <_dtoa_r+0x598>
 8007638:	9a09      	ldr	r2, [sp, #36]	; 0x24
 800763a:	2a00      	cmp	r2, #0
 800763c:	f000 808d 	beq.w	800775a <_dtoa_r+0x712>
 8007640:	9a08      	ldr	r2, [sp, #32]
 8007642:	2a01      	cmp	r2, #1
 8007644:	dc72      	bgt.n	800772c <_dtoa_r+0x6e4>
 8007646:	2f00      	cmp	r7, #0
 8007648:	d06c      	beq.n	8007724 <_dtoa_r+0x6dc>
 800764a:	f203 4333 	addw	r3, r3, #1075	; 0x433
 800764e:	4645      	mov	r5, r8
 8007650:	4656      	mov	r6, sl
 8007652:	9a07      	ldr	r2, [sp, #28]
 8007654:	2101      	movs	r1, #1
 8007656:	441a      	add	r2, r3
 8007658:	4620      	mov	r0, r4
 800765a:	449a      	add	sl, r3
 800765c:	9207      	str	r2, [sp, #28]
 800765e:	f000 fc16 	bl	8007e8e <__i2b>
 8007662:	4607      	mov	r7, r0
 8007664:	2e00      	cmp	r6, #0
 8007666:	dd0b      	ble.n	8007680 <_dtoa_r+0x638>
 8007668:	9b07      	ldr	r3, [sp, #28]
 800766a:	2b00      	cmp	r3, #0
 800766c:	dd08      	ble.n	8007680 <_dtoa_r+0x638>
 800766e:	42b3      	cmp	r3, r6
 8007670:	9a07      	ldr	r2, [sp, #28]
 8007672:	bfa8      	it	ge
 8007674:	4633      	movge	r3, r6
 8007676:	ebaa 0a03 	sub.w	sl, sl, r3
 800767a:	1af6      	subs	r6, r6, r3
 800767c:	1ad3      	subs	r3, r2, r3
 800767e:	9307      	str	r3, [sp, #28]
 8007680:	f1b8 0f00 	cmp.w	r8, #0
 8007684:	d01d      	beq.n	80076c2 <_dtoa_r+0x67a>
 8007686:	9b09      	ldr	r3, [sp, #36]	; 0x24
 8007688:	2b00      	cmp	r3, #0
 800768a:	d06a      	beq.n	8007762 <_dtoa_r+0x71a>
 800768c:	b18d      	cbz	r5, 80076b2 <_dtoa_r+0x66a>
 800768e:	4639      	mov	r1, r7
 8007690:	462a      	mov	r2, r5
 8007692:	4620      	mov	r0, r4
 8007694:	f000 fc9a 	bl	8007fcc <__pow5mult>
 8007698:	9a01      	ldr	r2, [sp, #4]
 800769a:	4601      	mov	r1, r0
 800769c:	4607      	mov	r7, r0
 800769e:	4620      	mov	r0, r4
 80076a0:	f000 fbfe 	bl	8007ea0 <__multiply>
 80076a4:	9901      	ldr	r1, [sp, #4]
 80076a6:	900c      	str	r0, [sp, #48]	; 0x30
 80076a8:	4620      	mov	r0, r4
 80076aa:	f000 fb5e 	bl	8007d6a <_Bfree>
 80076ae:	9b0c      	ldr	r3, [sp, #48]	; 0x30
 80076b0:	9301      	str	r3, [sp, #4]
 80076b2:	ebb8 0205 	subs.w	r2, r8, r5
 80076b6:	d004      	beq.n	80076c2 <_dtoa_r+0x67a>
 80076b8:	9901      	ldr	r1, [sp, #4]
 80076ba:	4620      	mov	r0, r4
 80076bc:	f000 fc86 	bl	8007fcc <__pow5mult>
 80076c0:	9001      	str	r0, [sp, #4]
 80076c2:	2101      	movs	r1, #1
 80076c4:	4620      	mov	r0, r4
 80076c6:	f000 fbe2 	bl	8007e8e <__i2b>
 80076ca:	9b0b      	ldr	r3, [sp, #44]	; 0x2c
 80076cc:	4605      	mov	r5, r0
 80076ce:	2b00      	cmp	r3, #0
 80076d0:	f000 81ca 	beq.w	8007a68 <_dtoa_r+0xa20>
 80076d4:	461a      	mov	r2, r3
 80076d6:	4601      	mov	r1, r0
 80076d8:	4620      	mov	r0, r4
 80076da:	f000 fc77 	bl	8007fcc <__pow5mult>
 80076de:	9b08      	ldr	r3, [sp, #32]
 80076e0:	2b01      	cmp	r3, #1
 80076e2:	4605      	mov	r5, r0
 80076e4:	dc44      	bgt.n	8007770 <_dtoa_r+0x728>
 80076e6:	9b04      	ldr	r3, [sp, #16]
 80076e8:	2b00      	cmp	r3, #0
 80076ea:	d13c      	bne.n	8007766 <_dtoa_r+0x71e>
 80076ec:	9b05      	ldr	r3, [sp, #20]
 80076ee:	f3c3 0313 	ubfx	r3, r3, #0, #20
 80076f2:	2b00      	cmp	r3, #0
 80076f4:	d137      	bne.n	8007766 <_dtoa_r+0x71e>
 80076f6:	9b05      	ldr	r3, [sp, #20]
 80076f8:	f023 4300 	bic.w	r3, r3, #2147483648	; 0x80000000
 80076fc:	0d1b      	lsrs	r3, r3, #20
 80076fe:	051b      	lsls	r3, r3, #20
 8007700:	2b00      	cmp	r3, #0
 8007702:	d033      	beq.n	800776c <_dtoa_r+0x724>
 8007704:	9b07      	ldr	r3, [sp, #28]
 8007706:	3301      	adds	r3, #1
 8007708:	f10a 0a01 	add.w	sl, sl, #1
 800770c:	9307      	str	r3, [sp, #28]
 800770e:	f04f 0801 	mov.w	r8, #1
 8007712:	9b0b      	ldr	r3, [sp, #44]	; 0x2c
 8007714:	bb73      	cbnz	r3, 8007774 <_dtoa_r+0x72c>
 8007716:	2001      	movs	r0, #1
 8007718:	e034      	b.n	8007784 <_dtoa_r+0x73c>
 800771a:	bf00      	nop
 800771c:	08008ab8 	.word	0x08008ab8
 8007720:	08008a90 	.word	0x08008a90
 8007724:	9b12      	ldr	r3, [sp, #72]	; 0x48
 8007726:	f1c3 0336 	rsb	r3, r3, #54	; 0x36
 800772a:	e790      	b.n	800764e <_dtoa_r+0x606>
 800772c:	f109 35ff 	add.w	r5, r9, #4294967295
 8007730:	45a8      	cmp	r8, r5
 8007732:	bfbf      	itttt	lt
 8007734:	9b0b      	ldrlt	r3, [sp, #44]	; 0x2c
 8007736:	eba5 0808 	sublt.w	r8, r5, r8
 800773a:	4443      	addlt	r3, r8
 800773c:	930b      	strlt	r3, [sp, #44]	; 0x2c
 800773e:	bfb6      	itet	lt
 8007740:	46a8      	movlt	r8, r5
 8007742:	eba8 0505 	subge.w	r5, r8, r5
 8007746:	2500      	movlt	r5, #0
 8007748:	f1b9 0f00 	cmp.w	r9, #0
 800774c:	bfb9      	ittee	lt
 800774e:	ebaa 0609 	sublt.w	r6, sl, r9
 8007752:	2300      	movlt	r3, #0
 8007754:	4656      	movge	r6, sl
 8007756:	464b      	movge	r3, r9
 8007758:	e77b      	b.n	8007652 <_dtoa_r+0x60a>
 800775a:	4645      	mov	r5, r8
 800775c:	4656      	mov	r6, sl
 800775e:	9f09      	ldr	r7, [sp, #36]	; 0x24
 8007760:	e780      	b.n	8007664 <_dtoa_r+0x61c>
 8007762:	4642      	mov	r2, r8
 8007764:	e7a8      	b.n	80076b8 <_dtoa_r+0x670>
 8007766:	f04f 0800 	mov.w	r8, #0
 800776a:	e7d2      	b.n	8007712 <_dtoa_r+0x6ca>
 800776c:	4698      	mov	r8, r3
 800776e:	e7d0      	b.n	8007712 <_dtoa_r+0x6ca>
 8007770:	f04f 0800 	mov.w	r8, #0
 8007774:	692b      	ldr	r3, [r5, #16]
 8007776:	eb05 0383 	add.w	r3, r5, r3, lsl #2
 800777a:	6918      	ldr	r0, [r3, #16]
 800777c:	f000 fb39 	bl	8007df2 <__hi0bits>
 8007780:	f1c0 0020 	rsb	r0, r0, #32
 8007784:	9b07      	ldr	r3, [sp, #28]
 8007786:	4418      	add	r0, r3
 8007788:	f010 001f 	ands.w	r0, r0, #31
 800778c:	d047      	beq.n	800781e <_dtoa_r+0x7d6>
 800778e:	f1c0 0320 	rsb	r3, r0, #32
 8007792:	2b04      	cmp	r3, #4
 8007794:	dd3b      	ble.n	800780e <_dtoa_r+0x7c6>
 8007796:	9b07      	ldr	r3, [sp, #28]
 8007798:	f1c0 001c 	rsb	r0, r0, #28
 800779c:	4482      	add	sl, r0
 800779e:	4406      	add	r6, r0
 80077a0:	4403      	add	r3, r0
 80077a2:	9307      	str	r3, [sp, #28]
 80077a4:	f1ba 0f00 	cmp.w	sl, #0
 80077a8:	dd05      	ble.n	80077b6 <_dtoa_r+0x76e>
 80077aa:	4652      	mov	r2, sl
 80077ac:	9901      	ldr	r1, [sp, #4]
 80077ae:	4620      	mov	r0, r4
 80077b0:	f000 fc4c 	bl	800804c <__lshift>
 80077b4:	9001      	str	r0, [sp, #4]
 80077b6:	9b07      	ldr	r3, [sp, #28]
 80077b8:	2b00      	cmp	r3, #0
 80077ba:	dd05      	ble.n	80077c8 <_dtoa_r+0x780>
 80077bc:	4629      	mov	r1, r5
 80077be:	461a      	mov	r2, r3
 80077c0:	4620      	mov	r0, r4
 80077c2:	f000 fc43 	bl	800804c <__lshift>
 80077c6:	4605      	mov	r5, r0
 80077c8:	9b10      	ldr	r3, [sp, #64]	; 0x40
 80077ca:	b353      	cbz	r3, 8007822 <_dtoa_r+0x7da>
 80077cc:	4629      	mov	r1, r5
 80077ce:	9801      	ldr	r0, [sp, #4]
 80077d0:	f000 fc90 	bl	80080f4 <__mcmp>
 80077d4:	2800      	cmp	r0, #0
 80077d6:	da24      	bge.n	8007822 <_dtoa_r+0x7da>
 80077d8:	2300      	movs	r3, #0
 80077da:	220a      	movs	r2, #10
 80077dc:	9901      	ldr	r1, [sp, #4]
 80077de:	4620      	mov	r0, r4
 80077e0:	f000 facc 	bl	8007d7c <__multadd>
 80077e4:	9b09      	ldr	r3, [sp, #36]	; 0x24
 80077e6:	9001      	str	r0, [sp, #4]
 80077e8:	f10b 3bff 	add.w	fp, fp, #4294967295
 80077ec:	2b00      	cmp	r3, #0
 80077ee:	f000 8142 	beq.w	8007a76 <_dtoa_r+0xa2e>
 80077f2:	2300      	movs	r3, #0
 80077f4:	4639      	mov	r1, r7
 80077f6:	220a      	movs	r2, #10
 80077f8:	4620      	mov	r0, r4
 80077fa:	f000 fabf 	bl	8007d7c <__multadd>
 80077fe:	9b06      	ldr	r3, [sp, #24]
 8007800:	2b00      	cmp	r3, #0
 8007802:	4607      	mov	r7, r0
 8007804:	dc4b      	bgt.n	800789e <_dtoa_r+0x856>
 8007806:	9b08      	ldr	r3, [sp, #32]
 8007808:	2b02      	cmp	r3, #2
 800780a:	dd48      	ble.n	800789e <_dtoa_r+0x856>
 800780c:	e011      	b.n	8007832 <_dtoa_r+0x7ea>
 800780e:	d0c9      	beq.n	80077a4 <_dtoa_r+0x75c>
 8007810:	9a07      	ldr	r2, [sp, #28]
 8007812:	331c      	adds	r3, #28
 8007814:	441a      	add	r2, r3
 8007816:	449a      	add	sl, r3
 8007818:	441e      	add	r6, r3
 800781a:	4613      	mov	r3, r2
 800781c:	e7c1      	b.n	80077a2 <_dtoa_r+0x75a>
 800781e:	4603      	mov	r3, r0
 8007820:	e7f6      	b.n	8007810 <_dtoa_r+0x7c8>
 8007822:	f1b9 0f00 	cmp.w	r9, #0
 8007826:	dc34      	bgt.n	8007892 <_dtoa_r+0x84a>
 8007828:	9b08      	ldr	r3, [sp, #32]
 800782a:	2b02      	cmp	r3, #2
 800782c:	dd31      	ble.n	8007892 <_dtoa_r+0x84a>
 800782e:	f8cd 9018 	str.w	r9, [sp, #24]
 8007832:	9b06      	ldr	r3, [sp, #24]
 8007834:	b963      	cbnz	r3, 8007850 <_dtoa_r+0x808>
 8007836:	4629      	mov	r1, r5
 8007838:	2205      	movs	r2, #5
 800783a:	4620      	mov	r0, r4
 800783c:	f000 fa9e 	bl	8007d7c <__multadd>
 8007840:	4601      	mov	r1, r0
 8007842:	4605      	mov	r5, r0
 8007844:	9801      	ldr	r0, [sp, #4]
 8007846:	f000 fc55 	bl	80080f4 <__mcmp>
 800784a:	2800      	cmp	r0, #0
 800784c:	f73f adfc 	bgt.w	8007448 <_dtoa_r+0x400>
 8007850:	9b0a      	ldr	r3, [sp, #40]	; 0x28
 8007852:	9e02      	ldr	r6, [sp, #8]
 8007854:	ea6f 0b03 	mvn.w	fp, r3
 8007858:	f04f 0900 	mov.w	r9, #0
 800785c:	4629      	mov	r1, r5
 800785e:	4620      	mov	r0, r4
 8007860:	f000 fa83 	bl	8007d6a <_Bfree>
 8007864:	2f00      	cmp	r7, #0
 8007866:	f43f aebb 	beq.w	80075e0 <_dtoa_r+0x598>
 800786a:	f1b9 0f00 	cmp.w	r9, #0
 800786e:	d005      	beq.n	800787c <_dtoa_r+0x834>
 8007870:	45b9      	cmp	r9, r7
 8007872:	d003      	beq.n	800787c <_dtoa_r+0x834>
 8007874:	4649      	mov	r1, r9
 8007876:	4620      	mov	r0, r4
 8007878:	f000 fa77 	bl	8007d6a <_Bfree>
 800787c:	4639      	mov	r1, r7
 800787e:	4620      	mov	r0, r4
 8007880:	f000 fa73 	bl	8007d6a <_Bfree>
 8007884:	e6ac      	b.n	80075e0 <_dtoa_r+0x598>
 8007886:	2500      	movs	r5, #0
 8007888:	462f      	mov	r7, r5
 800788a:	e7e1      	b.n	8007850 <_dtoa_r+0x808>
 800788c:	469b      	mov	fp, r3
 800788e:	462f      	mov	r7, r5
 8007890:	e5da      	b.n	8007448 <_dtoa_r+0x400>
 8007892:	9b09      	ldr	r3, [sp, #36]	; 0x24
 8007894:	f8cd 9018 	str.w	r9, [sp, #24]
 8007898:	2b00      	cmp	r3, #0
 800789a:	f000 80f3 	beq.w	8007a84 <_dtoa_r+0xa3c>
 800789e:	2e00      	cmp	r6, #0
 80078a0:	dd05      	ble.n	80078ae <_dtoa_r+0x866>
 80078a2:	4639      	mov	r1, r7
 80078a4:	4632      	mov	r2, r6
 80078a6:	4620      	mov	r0, r4
 80078a8:	f000 fbd0 	bl	800804c <__lshift>
 80078ac:	4607      	mov	r7, r0
 80078ae:	f1b8 0f00 	cmp.w	r8, #0
 80078b2:	d04c      	beq.n	800794e <_dtoa_r+0x906>
 80078b4:	6879      	ldr	r1, [r7, #4]
 80078b6:	4620      	mov	r0, r4
 80078b8:	f000 fa32 	bl	8007d20 <_Balloc>
 80078bc:	693a      	ldr	r2, [r7, #16]
 80078be:	3202      	adds	r2, #2
 80078c0:	4606      	mov	r6, r0
 80078c2:	0092      	lsls	r2, r2, #2
 80078c4:	f107 010c 	add.w	r1, r7, #12
 80078c8:	300c      	adds	r0, #12
 80078ca:	f7fe f8df 	bl	8005a8c <memcpy>
 80078ce:	2201      	movs	r2, #1
 80078d0:	4631      	mov	r1, r6
 80078d2:	4620      	mov	r0, r4
 80078d4:	f000 fbba 	bl	800804c <__lshift>
 80078d8:	9b04      	ldr	r3, [sp, #16]
 80078da:	f8dd a008 	ldr.w	sl, [sp, #8]
 80078de:	f003 0301 	and.w	r3, r3, #1
 80078e2:	46b9      	mov	r9, r7
 80078e4:	9307      	str	r3, [sp, #28]
 80078e6:	4607      	mov	r7, r0
 80078e8:	4629      	mov	r1, r5
 80078ea:	9801      	ldr	r0, [sp, #4]
 80078ec:	f7ff fb1e 	bl	8006f2c <quorem>
 80078f0:	4649      	mov	r1, r9
 80078f2:	4606      	mov	r6, r0
 80078f4:	f100 0830 	add.w	r8, r0, #48	; 0x30
 80078f8:	9801      	ldr	r0, [sp, #4]
 80078fa:	f000 fbfb 	bl	80080f4 <__mcmp>
 80078fe:	463a      	mov	r2, r7
 8007900:	9004      	str	r0, [sp, #16]
 8007902:	4629      	mov	r1, r5
 8007904:	4620      	mov	r0, r4
 8007906:	f000 fc0f 	bl	8008128 <__mdiff>
 800790a:	68c3      	ldr	r3, [r0, #12]
 800790c:	4602      	mov	r2, r0
 800790e:	bb03      	cbnz	r3, 8007952 <_dtoa_r+0x90a>
 8007910:	4601      	mov	r1, r0
 8007912:	9009      	str	r0, [sp, #36]	; 0x24
 8007914:	9801      	ldr	r0, [sp, #4]
 8007916:	f000 fbed 	bl	80080f4 <__mcmp>
 800791a:	9a09      	ldr	r2, [sp, #36]	; 0x24
 800791c:	4603      	mov	r3, r0
 800791e:	4611      	mov	r1, r2
 8007920:	4620      	mov	r0, r4
 8007922:	9309      	str	r3, [sp, #36]	; 0x24
 8007924:	f000 fa21 	bl	8007d6a <_Bfree>
 8007928:	9b09      	ldr	r3, [sp, #36]	; 0x24
 800792a:	b9a3      	cbnz	r3, 8007956 <_dtoa_r+0x90e>
 800792c:	9a08      	ldr	r2, [sp, #32]
 800792e:	b992      	cbnz	r2, 8007956 <_dtoa_r+0x90e>
 8007930:	9a07      	ldr	r2, [sp, #28]
 8007932:	b982      	cbnz	r2, 8007956 <_dtoa_r+0x90e>
 8007934:	f1b8 0f39 	cmp.w	r8, #57	; 0x39
 8007938:	d029      	beq.n	800798e <_dtoa_r+0x946>
 800793a:	9b04      	ldr	r3, [sp, #16]
 800793c:	2b00      	cmp	r3, #0
 800793e:	dd01      	ble.n	8007944 <_dtoa_r+0x8fc>
 8007940:	f106 0831 	add.w	r8, r6, #49	; 0x31
 8007944:	f10a 0601 	add.w	r6, sl, #1
 8007948:	f88a 8000 	strb.w	r8, [sl]
 800794c:	e786      	b.n	800785c <_dtoa_r+0x814>
 800794e:	4638      	mov	r0, r7
 8007950:	e7c2      	b.n	80078d8 <_dtoa_r+0x890>
 8007952:	2301      	movs	r3, #1
 8007954:	e7e3      	b.n	800791e <_dtoa_r+0x8d6>
 8007956:	9a04      	ldr	r2, [sp, #16]
 8007958:	2a00      	cmp	r2, #0
 800795a:	db04      	blt.n	8007966 <_dtoa_r+0x91e>
 800795c:	d124      	bne.n	80079a8 <_dtoa_r+0x960>
 800795e:	9a08      	ldr	r2, [sp, #32]
 8007960:	bb12      	cbnz	r2, 80079a8 <_dtoa_r+0x960>
 8007962:	9a07      	ldr	r2, [sp, #28]
 8007964:	bb02      	cbnz	r2, 80079a8 <_dtoa_r+0x960>
 8007966:	2b00      	cmp	r3, #0
 8007968:	ddec      	ble.n	8007944 <_dtoa_r+0x8fc>
 800796a:	2201      	movs	r2, #1
 800796c:	9901      	ldr	r1, [sp, #4]
 800796e:	4620      	mov	r0, r4
 8007970:	f000 fb6c 	bl	800804c <__lshift>
 8007974:	4629      	mov	r1, r5
 8007976:	9001      	str	r0, [sp, #4]
 8007978:	f000 fbbc 	bl	80080f4 <__mcmp>
 800797c:	2800      	cmp	r0, #0
 800797e:	dc03      	bgt.n	8007988 <_dtoa_r+0x940>
 8007980:	d1e0      	bne.n	8007944 <_dtoa_r+0x8fc>
 8007982:	f018 0f01 	tst.w	r8, #1
 8007986:	d0dd      	beq.n	8007944 <_dtoa_r+0x8fc>
 8007988:	f1b8 0f39 	cmp.w	r8, #57	; 0x39
 800798c:	d1d8      	bne.n	8007940 <_dtoa_r+0x8f8>
 800798e:	2339      	movs	r3, #57	; 0x39
 8007990:	f10a 0601 	add.w	r6, sl, #1
 8007994:	f88a 3000 	strb.w	r3, [sl]
 8007998:	f816 3c01 	ldrb.w	r3, [r6, #-1]
 800799c:	2b39      	cmp	r3, #57	; 0x39
 800799e:	f106 32ff 	add.w	r2, r6, #4294967295
 80079a2:	d04c      	beq.n	8007a3e <_dtoa_r+0x9f6>
 80079a4:	3301      	adds	r3, #1
 80079a6:	e051      	b.n	8007a4c <_dtoa_r+0xa04>
 80079a8:	2b00      	cmp	r3, #0
 80079aa:	f10a 0601 	add.w	r6, sl, #1
 80079ae:	dd05      	ble.n	80079bc <_dtoa_r+0x974>
 80079b0:	f1b8 0f39 	cmp.w	r8, #57	; 0x39
 80079b4:	d0eb      	beq.n	800798e <_dtoa_r+0x946>
 80079b6:	f108 0801 	add.w	r8, r8, #1
 80079ba:	e7c5      	b.n	8007948 <_dtoa_r+0x900>
 80079bc:	9b02      	ldr	r3, [sp, #8]
 80079be:	9a06      	ldr	r2, [sp, #24]
 80079c0:	f806 8c01 	strb.w	r8, [r6, #-1]
 80079c4:	1af3      	subs	r3, r6, r3
 80079c6:	4293      	cmp	r3, r2
 80079c8:	d021      	beq.n	8007a0e <_dtoa_r+0x9c6>
 80079ca:	2300      	movs	r3, #0
 80079cc:	220a      	movs	r2, #10
 80079ce:	9901      	ldr	r1, [sp, #4]
 80079d0:	4620      	mov	r0, r4
 80079d2:	f000 f9d3 	bl	8007d7c <__multadd>
 80079d6:	45b9      	cmp	r9, r7
 80079d8:	9001      	str	r0, [sp, #4]
 80079da:	f04f 0300 	mov.w	r3, #0
 80079de:	f04f 020a 	mov.w	r2, #10
 80079e2:	4649      	mov	r1, r9
 80079e4:	4620      	mov	r0, r4
 80079e6:	d105      	bne.n	80079f4 <_dtoa_r+0x9ac>
 80079e8:	f000 f9c8 	bl	8007d7c <__multadd>
 80079ec:	4681      	mov	r9, r0
 80079ee:	4607      	mov	r7, r0
 80079f0:	46b2      	mov	sl, r6
 80079f2:	e779      	b.n	80078e8 <_dtoa_r+0x8a0>
 80079f4:	f000 f9c2 	bl	8007d7c <__multadd>
 80079f8:	4639      	mov	r1, r7
 80079fa:	4681      	mov	r9, r0
 80079fc:	2300      	movs	r3, #0
 80079fe:	220a      	movs	r2, #10
 8007a00:	4620      	mov	r0, r4
 8007a02:	f000 f9bb 	bl	8007d7c <__multadd>
 8007a06:	4607      	mov	r7, r0
 8007a08:	e7f2      	b.n	80079f0 <_dtoa_r+0x9a8>
 8007a0a:	f04f 0900 	mov.w	r9, #0
 8007a0e:	2201      	movs	r2, #1
 8007a10:	9901      	ldr	r1, [sp, #4]
 8007a12:	4620      	mov	r0, r4
 8007a14:	f000 fb1a 	bl	800804c <__lshift>
 8007a18:	4629      	mov	r1, r5
 8007a1a:	9001      	str	r0, [sp, #4]
 8007a1c:	f000 fb6a 	bl	80080f4 <__mcmp>
 8007a20:	2800      	cmp	r0, #0
 8007a22:	dcb9      	bgt.n	8007998 <_dtoa_r+0x950>
 8007a24:	d102      	bne.n	8007a2c <_dtoa_r+0x9e4>
 8007a26:	f018 0f01 	tst.w	r8, #1
 8007a2a:	d1b5      	bne.n	8007998 <_dtoa_r+0x950>
 8007a2c:	f816 3c01 	ldrb.w	r3, [r6, #-1]
 8007a30:	2b30      	cmp	r3, #48	; 0x30
 8007a32:	f106 32ff 	add.w	r2, r6, #4294967295
 8007a36:	f47f af11 	bne.w	800785c <_dtoa_r+0x814>
 8007a3a:	4616      	mov	r6, r2
 8007a3c:	e7f6      	b.n	8007a2c <_dtoa_r+0x9e4>
 8007a3e:	9b02      	ldr	r3, [sp, #8]
 8007a40:	4293      	cmp	r3, r2
 8007a42:	d105      	bne.n	8007a50 <_dtoa_r+0xa08>
 8007a44:	9a02      	ldr	r2, [sp, #8]
 8007a46:	f10b 0b01 	add.w	fp, fp, #1
 8007a4a:	2331      	movs	r3, #49	; 0x31
 8007a4c:	7013      	strb	r3, [r2, #0]
 8007a4e:	e705      	b.n	800785c <_dtoa_r+0x814>
 8007a50:	4616      	mov	r6, r2
 8007a52:	e7a1      	b.n	8007998 <_dtoa_r+0x950>
 8007a54:	4b16      	ldr	r3, [pc, #88]	; (8007ab0 <_dtoa_r+0xa68>)
 8007a56:	f7ff bb4c 	b.w	80070f2 <_dtoa_r+0xaa>
 8007a5a:	9b1f      	ldr	r3, [sp, #124]	; 0x7c
 8007a5c:	2b00      	cmp	r3, #0
 8007a5e:	f47f ab30 	bne.w	80070c2 <_dtoa_r+0x7a>
 8007a62:	4b14      	ldr	r3, [pc, #80]	; (8007ab4 <_dtoa_r+0xa6c>)
 8007a64:	f7ff bb45 	b.w	80070f2 <_dtoa_r+0xaa>
 8007a68:	9b08      	ldr	r3, [sp, #32]
 8007a6a:	2b01      	cmp	r3, #1
 8007a6c:	f77f ae3b 	ble.w	80076e6 <_dtoa_r+0x69e>
 8007a70:	f8dd 802c 	ldr.w	r8, [sp, #44]	; 0x2c
 8007a74:	e64f      	b.n	8007716 <_dtoa_r+0x6ce>
 8007a76:	9b06      	ldr	r3, [sp, #24]
 8007a78:	2b00      	cmp	r3, #0
 8007a7a:	dc03      	bgt.n	8007a84 <_dtoa_r+0xa3c>
 8007a7c:	9b08      	ldr	r3, [sp, #32]
 8007a7e:	2b02      	cmp	r3, #2
 8007a80:	f73f aed7 	bgt.w	8007832 <_dtoa_r+0x7ea>
 8007a84:	9e02      	ldr	r6, [sp, #8]
 8007a86:	9801      	ldr	r0, [sp, #4]
 8007a88:	4629      	mov	r1, r5
 8007a8a:	f7ff fa4f 	bl	8006f2c <quorem>
 8007a8e:	f100 0830 	add.w	r8, r0, #48	; 0x30
 8007a92:	f806 8b01 	strb.w	r8, [r6], #1
 8007a96:	9b02      	ldr	r3, [sp, #8]
 8007a98:	9a06      	ldr	r2, [sp, #24]
 8007a9a:	1af3      	subs	r3, r6, r3
 8007a9c:	429a      	cmp	r2, r3
 8007a9e:	ddb4      	ble.n	8007a0a <_dtoa_r+0x9c2>
 8007aa0:	2300      	movs	r3, #0
 8007aa2:	220a      	movs	r2, #10
 8007aa4:	9901      	ldr	r1, [sp, #4]
 8007aa6:	4620      	mov	r0, r4
 8007aa8:	f000 f968 	bl	8007d7c <__multadd>
 8007aac:	9001      	str	r0, [sp, #4]
 8007aae:	e7ea      	b.n	8007a86 <_dtoa_r+0xa3e>
 8007ab0:	08008a5a 	.word	0x08008a5a
 8007ab4:	08008a7c 	.word	0x08008a7c

08007ab8 <__libc_fini_array>:
 8007ab8:	b538      	push	{r3, r4, r5, lr}
 8007aba:	4d07      	ldr	r5, [pc, #28]	; (8007ad8 <__libc_fini_array+0x20>)
 8007abc:	4c07      	ldr	r4, [pc, #28]	; (8007adc <__libc_fini_array+0x24>)
 8007abe:	1b64      	subs	r4, r4, r5
 8007ac0:	10a4      	asrs	r4, r4, #2
 8007ac2:	b91c      	cbnz	r4, 8007acc <__libc_fini_array+0x14>
 8007ac4:	e8bd 4038 	ldmia.w	sp!, {r3, r4, r5, lr}
 8007ac8:	f000 bf0c 	b.w	80088e4 <_fini>
 8007acc:	3c01      	subs	r4, #1
 8007ace:	f855 3024 	ldr.w	r3, [r5, r4, lsl #2]
 8007ad2:	4798      	blx	r3
 8007ad4:	e7f5      	b.n	8007ac2 <__libc_fini_array+0xa>
 8007ad6:	bf00      	nop
 8007ad8:	08008ca8 	.word	0x08008ca8
 8007adc:	08008cac 	.word	0x08008cac

08007ae0 <_malloc_trim_r>:
 8007ae0:	e92d 41f0 	stmdb	sp!, {r4, r5, r6, r7, r8, lr}
 8007ae4:	4605      	mov	r5, r0
 8007ae6:	2008      	movs	r0, #8
 8007ae8:	460c      	mov	r4, r1
 8007aea:	f7ff fa01 	bl	8006ef0 <sysconf>
 8007aee:	4f23      	ldr	r7, [pc, #140]	; (8007b7c <_malloc_trim_r+0x9c>)
 8007af0:	4680      	mov	r8, r0
 8007af2:	4628      	mov	r0, r5
 8007af4:	f7fd ffde 	bl	8005ab4 <__malloc_lock>
 8007af8:	68bb      	ldr	r3, [r7, #8]
 8007afa:	685e      	ldr	r6, [r3, #4]
 8007afc:	f026 0603 	bic.w	r6, r6, #3
 8007b00:	1b34      	subs	r4, r6, r4
 8007b02:	3c11      	subs	r4, #17
 8007b04:	4444      	add	r4, r8
 8007b06:	fbb4 f4f8 	udiv	r4, r4, r8
 8007b0a:	3c01      	subs	r4, #1
 8007b0c:	fb08 f404 	mul.w	r4, r8, r4
 8007b10:	45a0      	cmp	r8, r4
 8007b12:	dd05      	ble.n	8007b20 <_malloc_trim_r+0x40>
 8007b14:	4628      	mov	r0, r5
 8007b16:	f7fd ffd3 	bl	8005ac0 <__malloc_unlock>
 8007b1a:	2000      	movs	r0, #0
 8007b1c:	e8bd 81f0 	ldmia.w	sp!, {r4, r5, r6, r7, r8, pc}
 8007b20:	2100      	movs	r1, #0
 8007b22:	4628      	mov	r0, r5
 8007b24:	f7fd ffd2 	bl	8005acc <_sbrk_r>
 8007b28:	68bb      	ldr	r3, [r7, #8]
 8007b2a:	4433      	add	r3, r6
 8007b2c:	4298      	cmp	r0, r3
 8007b2e:	d1f1      	bne.n	8007b14 <_malloc_trim_r+0x34>
 8007b30:	4261      	negs	r1, r4
 8007b32:	4628      	mov	r0, r5
 8007b34:	f7fd ffca 	bl	8005acc <_sbrk_r>
 8007b38:	3001      	adds	r0, #1
 8007b3a:	d110      	bne.n	8007b5e <_malloc_trim_r+0x7e>
 8007b3c:	2100      	movs	r1, #0
 8007b3e:	4628      	mov	r0, r5
 8007b40:	f7fd ffc4 	bl	8005acc <_sbrk_r>
 8007b44:	68ba      	ldr	r2, [r7, #8]
 8007b46:	1a83      	subs	r3, r0, r2
 8007b48:	2b0f      	cmp	r3, #15
 8007b4a:	dde3      	ble.n	8007b14 <_malloc_trim_r+0x34>
 8007b4c:	490c      	ldr	r1, [pc, #48]	; (8007b80 <_malloc_trim_r+0xa0>)
 8007b4e:	6809      	ldr	r1, [r1, #0]
 8007b50:	1a40      	subs	r0, r0, r1
 8007b52:	490c      	ldr	r1, [pc, #48]	; (8007b84 <_malloc_trim_r+0xa4>)
 8007b54:	f043 0301 	orr.w	r3, r3, #1
 8007b58:	6008      	str	r0, [r1, #0]
 8007b5a:	6053      	str	r3, [r2, #4]
 8007b5c:	e7da      	b.n	8007b14 <_malloc_trim_r+0x34>
 8007b5e:	68bb      	ldr	r3, [r7, #8]
 8007b60:	4a08      	ldr	r2, [pc, #32]	; (8007b84 <_malloc_trim_r+0xa4>)
 8007b62:	1b36      	subs	r6, r6, r4
 8007b64:	f046 0601 	orr.w	r6, r6, #1
 8007b68:	605e      	str	r6, [r3, #4]
 8007b6a:	6813      	ldr	r3, [r2, #0]
 8007b6c:	4628      	mov	r0, r5
 8007b6e:	1b1c      	subs	r4, r3, r4
 8007b70:	6014      	str	r4, [r2, #0]
 8007b72:	f7fd ffa5 	bl	8005ac0 <__malloc_unlock>
 8007b76:	2001      	movs	r0, #1
 8007b78:	e7d0      	b.n	8007b1c <_malloc_trim_r+0x3c>
 8007b7a:	bf00      	nop
 8007b7c:	24000440 	.word	0x24000440
 8007b80:	24000848 	.word	0x24000848
 8007b84:	24000a48 	.word	0x24000a48

08007b88 <_free_r>:
 8007b88:	e92d 41f0 	stmdb	sp!, {r4, r5, r6, r7, r8, lr}
 8007b8c:	4604      	mov	r4, r0
 8007b8e:	4688      	mov	r8, r1
 8007b90:	2900      	cmp	r1, #0
 8007b92:	f000 80ab 	beq.w	8007cec <_free_r+0x164>
 8007b96:	f7fd ff8d 	bl	8005ab4 <__malloc_lock>
 8007b9a:	f858 2c04 	ldr.w	r2, [r8, #-4]
 8007b9e:	4d54      	ldr	r5, [pc, #336]	; (8007cf0 <_free_r+0x168>)
 8007ba0:	f022 0001 	bic.w	r0, r2, #1
 8007ba4:	f1a8 0308 	sub.w	r3, r8, #8
 8007ba8:	181f      	adds	r7, r3, r0
 8007baa:	68a9      	ldr	r1, [r5, #8]
 8007bac:	687e      	ldr	r6, [r7, #4]
 8007bae:	42b9      	cmp	r1, r7
 8007bb0:	f026 0603 	bic.w	r6, r6, #3
 8007bb4:	f002 0201 	and.w	r2, r2, #1
 8007bb8:	d11b      	bne.n	8007bf2 <_free_r+0x6a>
 8007bba:	4430      	add	r0, r6
 8007bbc:	b93a      	cbnz	r2, 8007bce <_free_r+0x46>
 8007bbe:	f858 2c08 	ldr.w	r2, [r8, #-8]
 8007bc2:	1a9b      	subs	r3, r3, r2
 8007bc4:	4410      	add	r0, r2
 8007bc6:	e9d3 1202 	ldrd	r1, r2, [r3, #8]
 8007bca:	60ca      	str	r2, [r1, #12]
 8007bcc:	6091      	str	r1, [r2, #8]
 8007bce:	f040 0201 	orr.w	r2, r0, #1
 8007bd2:	605a      	str	r2, [r3, #4]
 8007bd4:	60ab      	str	r3, [r5, #8]
 8007bd6:	4b47      	ldr	r3, [pc, #284]	; (8007cf4 <_free_r+0x16c>)
 8007bd8:	681b      	ldr	r3, [r3, #0]
 8007bda:	4283      	cmp	r3, r0
 8007bdc:	d804      	bhi.n	8007be8 <_free_r+0x60>
 8007bde:	4b46      	ldr	r3, [pc, #280]	; (8007cf8 <_free_r+0x170>)
 8007be0:	4620      	mov	r0, r4
 8007be2:	6819      	ldr	r1, [r3, #0]
 8007be4:	f7ff ff7c 	bl	8007ae0 <_malloc_trim_r>
 8007be8:	4620      	mov	r0, r4
 8007bea:	e8bd 41f0 	ldmia.w	sp!, {r4, r5, r6, r7, r8, lr}
 8007bee:	f7fd bf67 	b.w	8005ac0 <__malloc_unlock>
 8007bf2:	607e      	str	r6, [r7, #4]
 8007bf4:	2a00      	cmp	r2, #0
 8007bf6:	d139      	bne.n	8007c6c <_free_r+0xe4>
 8007bf8:	f858 1c08 	ldr.w	r1, [r8, #-8]
 8007bfc:	1a5b      	subs	r3, r3, r1
 8007bfe:	4408      	add	r0, r1
 8007c00:	6899      	ldr	r1, [r3, #8]
 8007c02:	f105 0c08 	add.w	ip, r5, #8
 8007c06:	4561      	cmp	r1, ip
 8007c08:	d032      	beq.n	8007c70 <_free_r+0xe8>
 8007c0a:	f8d3 c00c 	ldr.w	ip, [r3, #12]
 8007c0e:	f8c1 c00c 	str.w	ip, [r1, #12]
 8007c12:	f8cc 1008 	str.w	r1, [ip, #8]
 8007c16:	19b9      	adds	r1, r7, r6
 8007c18:	6849      	ldr	r1, [r1, #4]
 8007c1a:	07c9      	lsls	r1, r1, #31
 8007c1c:	d40a      	bmi.n	8007c34 <_free_r+0xac>
 8007c1e:	4430      	add	r0, r6
 8007c20:	68b9      	ldr	r1, [r7, #8]
 8007c22:	bb3a      	cbnz	r2, 8007c74 <_free_r+0xec>
 8007c24:	4e35      	ldr	r6, [pc, #212]	; (8007cfc <_free_r+0x174>)
 8007c26:	42b1      	cmp	r1, r6
 8007c28:	d124      	bne.n	8007c74 <_free_r+0xec>
 8007c2a:	e9c5 3304 	strd	r3, r3, [r5, #16]
 8007c2e:	e9c3 1102 	strd	r1, r1, [r3, #8]
 8007c32:	2201      	movs	r2, #1
 8007c34:	f040 0101 	orr.w	r1, r0, #1
 8007c38:	6059      	str	r1, [r3, #4]
 8007c3a:	5018      	str	r0, [r3, r0]
 8007c3c:	2a00      	cmp	r2, #0
 8007c3e:	d1d3      	bne.n	8007be8 <_free_r+0x60>
 8007c40:	f5b0 7f00 	cmp.w	r0, #512	; 0x200
 8007c44:	d21a      	bcs.n	8007c7c <_free_r+0xf4>
 8007c46:	08c0      	lsrs	r0, r0, #3
 8007c48:	1081      	asrs	r1, r0, #2
 8007c4a:	2201      	movs	r2, #1
 8007c4c:	408a      	lsls	r2, r1
 8007c4e:	6869      	ldr	r1, [r5, #4]
 8007c50:	3001      	adds	r0, #1
 8007c52:	430a      	orrs	r2, r1
 8007c54:	606a      	str	r2, [r5, #4]
 8007c56:	f855 1030 	ldr.w	r1, [r5, r0, lsl #3]
 8007c5a:	eb05 02c0 	add.w	r2, r5, r0, lsl #3
 8007c5e:	3a08      	subs	r2, #8
 8007c60:	e9c3 1202 	strd	r1, r2, [r3, #8]
 8007c64:	f845 3030 	str.w	r3, [r5, r0, lsl #3]
 8007c68:	60cb      	str	r3, [r1, #12]
 8007c6a:	e7bd      	b.n	8007be8 <_free_r+0x60>
 8007c6c:	2200      	movs	r2, #0
 8007c6e:	e7d2      	b.n	8007c16 <_free_r+0x8e>
 8007c70:	2201      	movs	r2, #1
 8007c72:	e7d0      	b.n	8007c16 <_free_r+0x8e>
 8007c74:	68fe      	ldr	r6, [r7, #12]
 8007c76:	60ce      	str	r6, [r1, #12]
 8007c78:	60b1      	str	r1, [r6, #8]
 8007c7a:	e7db      	b.n	8007c34 <_free_r+0xac>
 8007c7c:	0a42      	lsrs	r2, r0, #9
 8007c7e:	2a04      	cmp	r2, #4
 8007c80:	d813      	bhi.n	8007caa <_free_r+0x122>
 8007c82:	0982      	lsrs	r2, r0, #6
 8007c84:	3238      	adds	r2, #56	; 0x38
 8007c86:	1c51      	adds	r1, r2, #1
 8007c88:	eb05 06c2 	add.w	r6, r5, r2, lsl #3
 8007c8c:	f855 1031 	ldr.w	r1, [r5, r1, lsl #3]
 8007c90:	428e      	cmp	r6, r1
 8007c92:	d124      	bne.n	8007cde <_free_r+0x156>
 8007c94:	2001      	movs	r0, #1
 8007c96:	1092      	asrs	r2, r2, #2
 8007c98:	fa00 f202 	lsl.w	r2, r0, r2
 8007c9c:	6868      	ldr	r0, [r5, #4]
 8007c9e:	4302      	orrs	r2, r0
 8007ca0:	606a      	str	r2, [r5, #4]
 8007ca2:	e9c3 1602 	strd	r1, r6, [r3, #8]
 8007ca6:	60b3      	str	r3, [r6, #8]
 8007ca8:	e7de      	b.n	8007c68 <_free_r+0xe0>
 8007caa:	2a14      	cmp	r2, #20
 8007cac:	d801      	bhi.n	8007cb2 <_free_r+0x12a>
 8007cae:	325b      	adds	r2, #91	; 0x5b
 8007cb0:	e7e9      	b.n	8007c86 <_free_r+0xfe>
 8007cb2:	2a54      	cmp	r2, #84	; 0x54
 8007cb4:	d802      	bhi.n	8007cbc <_free_r+0x134>
 8007cb6:	0b02      	lsrs	r2, r0, #12
 8007cb8:	326e      	adds	r2, #110	; 0x6e
 8007cba:	e7e4      	b.n	8007c86 <_free_r+0xfe>
 8007cbc:	f5b2 7faa 	cmp.w	r2, #340	; 0x154
 8007cc0:	d802      	bhi.n	8007cc8 <_free_r+0x140>
 8007cc2:	0bc2      	lsrs	r2, r0, #15
 8007cc4:	3277      	adds	r2, #119	; 0x77
 8007cc6:	e7de      	b.n	8007c86 <_free_r+0xfe>
 8007cc8:	f240 5154 	movw	r1, #1364	; 0x554
 8007ccc:	428a      	cmp	r2, r1
 8007cce:	bf9a      	itte	ls
 8007cd0:	0c82      	lsrls	r2, r0, #18
 8007cd2:	327c      	addls	r2, #124	; 0x7c
 8007cd4:	227e      	movhi	r2, #126	; 0x7e
 8007cd6:	e7d6      	b.n	8007c86 <_free_r+0xfe>
 8007cd8:	6889      	ldr	r1, [r1, #8]
 8007cda:	428e      	cmp	r6, r1
 8007cdc:	d004      	beq.n	8007ce8 <_free_r+0x160>
 8007cde:	684a      	ldr	r2, [r1, #4]
 8007ce0:	f022 0203 	bic.w	r2, r2, #3
 8007ce4:	4282      	cmp	r2, r0
 8007ce6:	d8f7      	bhi.n	8007cd8 <_free_r+0x150>
 8007ce8:	68ce      	ldr	r6, [r1, #12]
 8007cea:	e7da      	b.n	8007ca2 <_free_r+0x11a>
 8007cec:	e8bd 81f0 	ldmia.w	sp!, {r4, r5, r6, r7, r8, pc}
 8007cf0:	24000440 	.word	0x24000440
 8007cf4:	2400084c 	.word	0x2400084c
 8007cf8:	24000a78 	.word	0x24000a78
 8007cfc:	24000448 	.word	0x24000448

08007d00 <_localeconv_r>:
 8007d00:	4b04      	ldr	r3, [pc, #16]	; (8007d14 <_localeconv_r+0x14>)
 8007d02:	681b      	ldr	r3, [r3, #0]
 8007d04:	6b58      	ldr	r0, [r3, #52]	; 0x34
 8007d06:	4b04      	ldr	r3, [pc, #16]	; (8007d18 <_localeconv_r+0x18>)
 8007d08:	2800      	cmp	r0, #0
 8007d0a:	bf08      	it	eq
 8007d0c:	4618      	moveq	r0, r3
 8007d0e:	30f0      	adds	r0, #240	; 0xf0
 8007d10:	4770      	bx	lr
 8007d12:	bf00      	nop
 8007d14:	24000014 	.word	0x24000014
 8007d18:	24000854 	.word	0x24000854

08007d1c <__retarget_lock_acquire_recursive>:
 8007d1c:	4770      	bx	lr

08007d1e <__retarget_lock_release_recursive>:
 8007d1e:	4770      	bx	lr

08007d20 <_Balloc>:
 8007d20:	6cc3      	ldr	r3, [r0, #76]	; 0x4c
 8007d22:	b570      	push	{r4, r5, r6, lr}
 8007d24:	4605      	mov	r5, r0
 8007d26:	460c      	mov	r4, r1
 8007d28:	b17b      	cbz	r3, 8007d4a <_Balloc+0x2a>
 8007d2a:	6ceb      	ldr	r3, [r5, #76]	; 0x4c
 8007d2c:	f853 0024 	ldr.w	r0, [r3, r4, lsl #2]
 8007d30:	b9a0      	cbnz	r0, 8007d5c <_Balloc+0x3c>
 8007d32:	2101      	movs	r1, #1
 8007d34:	fa01 f604 	lsl.w	r6, r1, r4
 8007d38:	1d72      	adds	r2, r6, #5
 8007d3a:	0092      	lsls	r2, r2, #2
 8007d3c:	4628      	mov	r0, r5
 8007d3e:	f000 fbbd 	bl	80084bc <_calloc_r>
 8007d42:	b148      	cbz	r0, 8007d58 <_Balloc+0x38>
 8007d44:	e9c0 4601 	strd	r4, r6, [r0, #4]
 8007d48:	e00b      	b.n	8007d62 <_Balloc+0x42>
 8007d4a:	2221      	movs	r2, #33	; 0x21
 8007d4c:	2104      	movs	r1, #4
 8007d4e:	f000 fbb5 	bl	80084bc <_calloc_r>
 8007d52:	64e8      	str	r0, [r5, #76]	; 0x4c
 8007d54:	2800      	cmp	r0, #0
 8007d56:	d1e8      	bne.n	8007d2a <_Balloc+0xa>
 8007d58:	2000      	movs	r0, #0
 8007d5a:	bd70      	pop	{r4, r5, r6, pc}
 8007d5c:	6802      	ldr	r2, [r0, #0]
 8007d5e:	f843 2024 	str.w	r2, [r3, r4, lsl #2]
 8007d62:	2300      	movs	r3, #0
 8007d64:	e9c0 3303 	strd	r3, r3, [r0, #12]
 8007d68:	e7f7      	b.n	8007d5a <_Balloc+0x3a>

08007d6a <_Bfree>:
 8007d6a:	b131      	cbz	r1, 8007d7a <_Bfree+0x10>
 8007d6c:	6cc3      	ldr	r3, [r0, #76]	; 0x4c
 8007d6e:	684a      	ldr	r2, [r1, #4]
 8007d70:	f853 0022 	ldr.w	r0, [r3, r2, lsl #2]
 8007d74:	6008      	str	r0, [r1, #0]
 8007d76:	f843 1022 	str.w	r1, [r3, r2, lsl #2]
 8007d7a:	4770      	bx	lr

08007d7c <__multadd>:
 8007d7c:	e92d 41f0 	stmdb	sp!, {r4, r5, r6, r7, r8, lr}
 8007d80:	690d      	ldr	r5, [r1, #16]
 8007d82:	461f      	mov	r7, r3
 8007d84:	4606      	mov	r6, r0
 8007d86:	460c      	mov	r4, r1
 8007d88:	f101 0c14 	add.w	ip, r1, #20
 8007d8c:	2300      	movs	r3, #0
 8007d8e:	f8dc 0000 	ldr.w	r0, [ip]
 8007d92:	b281      	uxth	r1, r0
 8007d94:	fb02 7101 	mla	r1, r2, r1, r7
 8007d98:	0c0f      	lsrs	r7, r1, #16
 8007d9a:	0c00      	lsrs	r0, r0, #16
 8007d9c:	fb02 7000 	mla	r0, r2, r0, r7
 8007da0:	b289      	uxth	r1, r1
 8007da2:	3301      	adds	r3, #1
 8007da4:	eb01 4100 	add.w	r1, r1, r0, lsl #16
 8007da8:	429d      	cmp	r5, r3
 8007daa:	ea4f 4710 	mov.w	r7, r0, lsr #16
 8007dae:	f84c 1b04 	str.w	r1, [ip], #4
 8007db2:	dcec      	bgt.n	8007d8e <__multadd+0x12>
 8007db4:	b1d7      	cbz	r7, 8007dec <__multadd+0x70>
 8007db6:	68a3      	ldr	r3, [r4, #8]
 8007db8:	42ab      	cmp	r3, r5
 8007dba:	dc12      	bgt.n	8007de2 <__multadd+0x66>
 8007dbc:	6861      	ldr	r1, [r4, #4]
 8007dbe:	4630      	mov	r0, r6
 8007dc0:	3101      	adds	r1, #1
 8007dc2:	f7ff ffad 	bl	8007d20 <_Balloc>
 8007dc6:	6922      	ldr	r2, [r4, #16]
 8007dc8:	3202      	adds	r2, #2
 8007dca:	f104 010c 	add.w	r1, r4, #12
 8007dce:	4680      	mov	r8, r0
 8007dd0:	0092      	lsls	r2, r2, #2
 8007dd2:	300c      	adds	r0, #12
 8007dd4:	f7fd fe5a 	bl	8005a8c <memcpy>
 8007dd8:	4621      	mov	r1, r4
 8007dda:	4630      	mov	r0, r6
 8007ddc:	f7ff ffc5 	bl	8007d6a <_Bfree>
 8007de0:	4644      	mov	r4, r8
 8007de2:	eb04 0385 	add.w	r3, r4, r5, lsl #2
 8007de6:	3501      	adds	r5, #1
 8007de8:	615f      	str	r7, [r3, #20]
 8007dea:	6125      	str	r5, [r4, #16]
 8007dec:	4620      	mov	r0, r4
 8007dee:	e8bd 81f0 	ldmia.w	sp!, {r4, r5, r6, r7, r8, pc}

08007df2 <__hi0bits>:
 8007df2:	0c02      	lsrs	r2, r0, #16
 8007df4:	0412      	lsls	r2, r2, #16
 8007df6:	4603      	mov	r3, r0
 8007df8:	b9b2      	cbnz	r2, 8007e28 <__hi0bits+0x36>
 8007dfa:	0403      	lsls	r3, r0, #16
 8007dfc:	2010      	movs	r0, #16
 8007dfe:	f013 4f7f 	tst.w	r3, #4278190080	; 0xff000000
 8007e02:	bf04      	itt	eq
 8007e04:	021b      	lsleq	r3, r3, #8
 8007e06:	3008      	addeq	r0, #8
 8007e08:	f013 4f70 	tst.w	r3, #4026531840	; 0xf0000000
 8007e0c:	bf04      	itt	eq
 8007e0e:	011b      	lsleq	r3, r3, #4
 8007e10:	3004      	addeq	r0, #4
 8007e12:	f013 4f40 	tst.w	r3, #3221225472	; 0xc0000000
 8007e16:	bf04      	itt	eq
 8007e18:	009b      	lsleq	r3, r3, #2
 8007e1a:	3002      	addeq	r0, #2
 8007e1c:	2b00      	cmp	r3, #0
 8007e1e:	db06      	blt.n	8007e2e <__hi0bits+0x3c>
 8007e20:	005b      	lsls	r3, r3, #1
 8007e22:	d503      	bpl.n	8007e2c <__hi0bits+0x3a>
 8007e24:	3001      	adds	r0, #1
 8007e26:	4770      	bx	lr
 8007e28:	2000      	movs	r0, #0
 8007e2a:	e7e8      	b.n	8007dfe <__hi0bits+0xc>
 8007e2c:	2020      	movs	r0, #32
 8007e2e:	4770      	bx	lr

08007e30 <__lo0bits>:
 8007e30:	6803      	ldr	r3, [r0, #0]
 8007e32:	f013 0207 	ands.w	r2, r3, #7
 8007e36:	4601      	mov	r1, r0
 8007e38:	d00b      	beq.n	8007e52 <__lo0bits+0x22>
 8007e3a:	07da      	lsls	r2, r3, #31
 8007e3c:	d423      	bmi.n	8007e86 <__lo0bits+0x56>
 8007e3e:	0798      	lsls	r0, r3, #30
 8007e40:	bf49      	itett	mi
 8007e42:	085b      	lsrmi	r3, r3, #1
 8007e44:	089b      	lsrpl	r3, r3, #2
 8007e46:	2001      	movmi	r0, #1
 8007e48:	600b      	strmi	r3, [r1, #0]
 8007e4a:	bf5c      	itt	pl
 8007e4c:	600b      	strpl	r3, [r1, #0]
 8007e4e:	2002      	movpl	r0, #2
 8007e50:	4770      	bx	lr
 8007e52:	b298      	uxth	r0, r3
 8007e54:	b9a8      	cbnz	r0, 8007e82 <__lo0bits+0x52>
 8007e56:	0c1b      	lsrs	r3, r3, #16
 8007e58:	2010      	movs	r0, #16
 8007e5a:	f013 0fff 	tst.w	r3, #255	; 0xff
 8007e5e:	bf04      	itt	eq
 8007e60:	0a1b      	lsreq	r3, r3, #8
 8007e62:	3008      	addeq	r0, #8
 8007e64:	071a      	lsls	r2, r3, #28
 8007e66:	bf04      	itt	eq
 8007e68:	091b      	lsreq	r3, r3, #4
 8007e6a:	3004      	addeq	r0, #4
 8007e6c:	079a      	lsls	r2, r3, #30
 8007e6e:	bf04      	itt	eq
 8007e70:	089b      	lsreq	r3, r3, #2
 8007e72:	3002      	addeq	r0, #2
 8007e74:	07da      	lsls	r2, r3, #31
 8007e76:	d402      	bmi.n	8007e7e <__lo0bits+0x4e>
 8007e78:	085b      	lsrs	r3, r3, #1
 8007e7a:	d006      	beq.n	8007e8a <__lo0bits+0x5a>
 8007e7c:	3001      	adds	r0, #1
 8007e7e:	600b      	str	r3, [r1, #0]
 8007e80:	4770      	bx	lr
 8007e82:	4610      	mov	r0, r2
 8007e84:	e7e9      	b.n	8007e5a <__lo0bits+0x2a>
 8007e86:	2000      	movs	r0, #0
 8007e88:	4770      	bx	lr
 8007e8a:	2020      	movs	r0, #32
 8007e8c:	4770      	bx	lr

08007e8e <__i2b>:
 8007e8e:	b510      	push	{r4, lr}
 8007e90:	460c      	mov	r4, r1
 8007e92:	2101      	movs	r1, #1
 8007e94:	f7ff ff44 	bl	8007d20 <_Balloc>
 8007e98:	2201      	movs	r2, #1
 8007e9a:	6144      	str	r4, [r0, #20]
 8007e9c:	6102      	str	r2, [r0, #16]
 8007e9e:	bd10      	pop	{r4, pc}

08007ea0 <__multiply>:
 8007ea0:	e92d 4ff7 	stmdb	sp!, {r0, r1, r2, r4, r5, r6, r7, r8, r9, sl, fp, lr}
 8007ea4:	4614      	mov	r4, r2
 8007ea6:	690a      	ldr	r2, [r1, #16]
 8007ea8:	6923      	ldr	r3, [r4, #16]
 8007eaa:	429a      	cmp	r2, r3
 8007eac:	bfb8      	it	lt
 8007eae:	460b      	movlt	r3, r1
 8007eb0:	4688      	mov	r8, r1
 8007eb2:	bfbc      	itt	lt
 8007eb4:	46a0      	movlt	r8, r4
 8007eb6:	461c      	movlt	r4, r3
 8007eb8:	f8d8 7010 	ldr.w	r7, [r8, #16]
 8007ebc:	f8d4 9010 	ldr.w	r9, [r4, #16]
 8007ec0:	f8d8 3008 	ldr.w	r3, [r8, #8]
 8007ec4:	f8d8 1004 	ldr.w	r1, [r8, #4]
 8007ec8:	eb07 0609 	add.w	r6, r7, r9
 8007ecc:	42b3      	cmp	r3, r6
 8007ece:	bfb8      	it	lt
 8007ed0:	3101      	addlt	r1, #1
 8007ed2:	f7ff ff25 	bl	8007d20 <_Balloc>
 8007ed6:	f100 0514 	add.w	r5, r0, #20
 8007eda:	eb05 0e86 	add.w	lr, r5, r6, lsl #2
 8007ede:	462b      	mov	r3, r5
 8007ee0:	2200      	movs	r2, #0
 8007ee2:	4573      	cmp	r3, lr
 8007ee4:	d316      	bcc.n	8007f14 <__multiply+0x74>
 8007ee6:	f104 0214 	add.w	r2, r4, #20
 8007eea:	f108 0114 	add.w	r1, r8, #20
 8007eee:	eb02 0389 	add.w	r3, r2, r9, lsl #2
 8007ef2:	eb01 0787 	add.w	r7, r1, r7, lsl #2
 8007ef6:	9300      	str	r3, [sp, #0]
 8007ef8:	9b00      	ldr	r3, [sp, #0]
 8007efa:	9201      	str	r2, [sp, #4]
 8007efc:	4293      	cmp	r3, r2
 8007efe:	d80c      	bhi.n	8007f1a <__multiply+0x7a>
 8007f00:	2e00      	cmp	r6, #0
 8007f02:	dd03      	ble.n	8007f0c <__multiply+0x6c>
 8007f04:	f85e 3d04 	ldr.w	r3, [lr, #-4]!
 8007f08:	2b00      	cmp	r3, #0
 8007f0a:	d05d      	beq.n	8007fc8 <__multiply+0x128>
 8007f0c:	6106      	str	r6, [r0, #16]
 8007f0e:	b003      	add	sp, #12
 8007f10:	e8bd 8ff0 	ldmia.w	sp!, {r4, r5, r6, r7, r8, r9, sl, fp, pc}
 8007f14:	f843 2b04 	str.w	r2, [r3], #4
 8007f18:	e7e3      	b.n	8007ee2 <__multiply+0x42>
 8007f1a:	f8b2 b000 	ldrh.w	fp, [r2]
 8007f1e:	f1bb 0f00 	cmp.w	fp, #0
 8007f22:	d023      	beq.n	8007f6c <__multiply+0xcc>
 8007f24:	4689      	mov	r9, r1
 8007f26:	46ac      	mov	ip, r5
 8007f28:	f04f 0800 	mov.w	r8, #0
 8007f2c:	f859 4b04 	ldr.w	r4, [r9], #4
 8007f30:	f8dc a000 	ldr.w	sl, [ip]
 8007f34:	b2a3      	uxth	r3, r4
 8007f36:	fa1f fa8a 	uxth.w	sl, sl
 8007f3a:	fb0b a303 	mla	r3, fp, r3, sl
 8007f3e:	ea4f 4a14 	mov.w	sl, r4, lsr #16
 8007f42:	f8dc 4000 	ldr.w	r4, [ip]
 8007f46:	4443      	add	r3, r8
 8007f48:	ea4f 4814 	mov.w	r8, r4, lsr #16
 8007f4c:	fb0b 840a 	mla	r4, fp, sl, r8
 8007f50:	eb04 4413 	add.w	r4, r4, r3, lsr #16
 8007f54:	46e2      	mov	sl, ip
 8007f56:	b29b      	uxth	r3, r3
 8007f58:	ea43 4304 	orr.w	r3, r3, r4, lsl #16
 8007f5c:	454f      	cmp	r7, r9
 8007f5e:	ea4f 4814 	mov.w	r8, r4, lsr #16
 8007f62:	f84a 3b04 	str.w	r3, [sl], #4
 8007f66:	d82b      	bhi.n	8007fc0 <__multiply+0x120>
 8007f68:	f8cc 8004 	str.w	r8, [ip, #4]
 8007f6c:	9b01      	ldr	r3, [sp, #4]
 8007f6e:	f8b3 a002 	ldrh.w	sl, [r3, #2]
 8007f72:	3204      	adds	r2, #4
 8007f74:	f1ba 0f00 	cmp.w	sl, #0
 8007f78:	d020      	beq.n	8007fbc <__multiply+0x11c>
 8007f7a:	682b      	ldr	r3, [r5, #0]
 8007f7c:	4689      	mov	r9, r1
 8007f7e:	46a8      	mov	r8, r5
 8007f80:	f04f 0b00 	mov.w	fp, #0
 8007f84:	f8b9 c000 	ldrh.w	ip, [r9]
 8007f88:	f8b8 4002 	ldrh.w	r4, [r8, #2]
 8007f8c:	fb0a 440c 	mla	r4, sl, ip, r4
 8007f90:	445c      	add	r4, fp
 8007f92:	46c4      	mov	ip, r8
 8007f94:	b29b      	uxth	r3, r3
 8007f96:	ea43 4304 	orr.w	r3, r3, r4, lsl #16
 8007f9a:	f84c 3b04 	str.w	r3, [ip], #4
 8007f9e:	f859 3b04 	ldr.w	r3, [r9], #4
 8007fa2:	f8b8 b004 	ldrh.w	fp, [r8, #4]
 8007fa6:	0c1b      	lsrs	r3, r3, #16
 8007fa8:	fb0a b303 	mla	r3, sl, r3, fp
 8007fac:	eb03 4314 	add.w	r3, r3, r4, lsr #16
 8007fb0:	454f      	cmp	r7, r9
 8007fb2:	ea4f 4b13 	mov.w	fp, r3, lsr #16
 8007fb6:	d805      	bhi.n	8007fc4 <__multiply+0x124>
 8007fb8:	f8c8 3004 	str.w	r3, [r8, #4]
 8007fbc:	3504      	adds	r5, #4
 8007fbe:	e79b      	b.n	8007ef8 <__multiply+0x58>
 8007fc0:	46d4      	mov	ip, sl
 8007fc2:	e7b3      	b.n	8007f2c <__multiply+0x8c>
 8007fc4:	46e0      	mov	r8, ip
 8007fc6:	e7dd      	b.n	8007f84 <__multiply+0xe4>
 8007fc8:	3e01      	subs	r6, #1
 8007fca:	e799      	b.n	8007f00 <__multiply+0x60>

08007fcc <__pow5mult>:
 8007fcc:	e92d 43f8 	stmdb	sp!, {r3, r4, r5, r6, r7, r8, r9, lr}
 8007fd0:	4615      	mov	r5, r2
 8007fd2:	f012 0203 	ands.w	r2, r2, #3
 8007fd6:	4606      	mov	r6, r0
 8007fd8:	460f      	mov	r7, r1
 8007fda:	d007      	beq.n	8007fec <__pow5mult+0x20>
 8007fdc:	3a01      	subs	r2, #1
 8007fde:	4c1a      	ldr	r4, [pc, #104]	; (8008048 <__pow5mult+0x7c>)
 8007fe0:	2300      	movs	r3, #0
 8007fe2:	f854 2022 	ldr.w	r2, [r4, r2, lsl #2]
 8007fe6:	f7ff fec9 	bl	8007d7c <__multadd>
 8007fea:	4607      	mov	r7, r0
 8007fec:	10ad      	asrs	r5, r5, #2
 8007fee:	d027      	beq.n	8008040 <__pow5mult+0x74>
 8007ff0:	6cb4      	ldr	r4, [r6, #72]	; 0x48
 8007ff2:	b944      	cbnz	r4, 8008006 <__pow5mult+0x3a>
 8007ff4:	f240 2171 	movw	r1, #625	; 0x271
 8007ff8:	4630      	mov	r0, r6
 8007ffa:	f7ff ff48 	bl	8007e8e <__i2b>
 8007ffe:	2300      	movs	r3, #0
 8008000:	64b0      	str	r0, [r6, #72]	; 0x48
 8008002:	4604      	mov	r4, r0
 8008004:	6003      	str	r3, [r0, #0]
 8008006:	f04f 0800 	mov.w	r8, #0
 800800a:	07eb      	lsls	r3, r5, #31
 800800c:	d50a      	bpl.n	8008024 <__pow5mult+0x58>
 800800e:	4639      	mov	r1, r7
 8008010:	4622      	mov	r2, r4
 8008012:	4630      	mov	r0, r6
 8008014:	f7ff ff44 	bl	8007ea0 <__multiply>
 8008018:	4639      	mov	r1, r7
 800801a:	4681      	mov	r9, r0
 800801c:	4630      	mov	r0, r6
 800801e:	f7ff fea4 	bl	8007d6a <_Bfree>
 8008022:	464f      	mov	r7, r9
 8008024:	106d      	asrs	r5, r5, #1
 8008026:	d00b      	beq.n	8008040 <__pow5mult+0x74>
 8008028:	6820      	ldr	r0, [r4, #0]
 800802a:	b938      	cbnz	r0, 800803c <__pow5mult+0x70>
 800802c:	4622      	mov	r2, r4
 800802e:	4621      	mov	r1, r4
 8008030:	4630      	mov	r0, r6
 8008032:	f7ff ff35 	bl	8007ea0 <__multiply>
 8008036:	6020      	str	r0, [r4, #0]
 8008038:	f8c0 8000 	str.w	r8, [r0]
 800803c:	4604      	mov	r4, r0
 800803e:	e7e4      	b.n	800800a <__pow5mult+0x3e>
 8008040:	4638      	mov	r0, r7
 8008042:	e8bd 83f8 	ldmia.w	sp!, {r3, r4, r5, r6, r7, r8, r9, pc}
 8008046:	bf00      	nop
 8008048:	08008b80 	.word	0x08008b80

0800804c <__lshift>:
 800804c:	e92d 47f0 	stmdb	sp!, {r4, r5, r6, r7, r8, r9, sl, lr}
 8008050:	460c      	mov	r4, r1
 8008052:	ea4f 1a62 	mov.w	sl, r2, asr #5
 8008056:	6923      	ldr	r3, [r4, #16]
 8008058:	6849      	ldr	r1, [r1, #4]
 800805a:	eb0a 0903 	add.w	r9, sl, r3
 800805e:	68a3      	ldr	r3, [r4, #8]
 8008060:	4607      	mov	r7, r0
 8008062:	4616      	mov	r6, r2
 8008064:	f109 0501 	add.w	r5, r9, #1
 8008068:	42ab      	cmp	r3, r5
 800806a:	db32      	blt.n	80080d2 <__lshift+0x86>
 800806c:	4638      	mov	r0, r7
 800806e:	f7ff fe57 	bl	8007d20 <_Balloc>
 8008072:	2300      	movs	r3, #0
 8008074:	4680      	mov	r8, r0
 8008076:	f100 0114 	add.w	r1, r0, #20
 800807a:	461a      	mov	r2, r3
 800807c:	4553      	cmp	r3, sl
 800807e:	db2b      	blt.n	80080d8 <__lshift+0x8c>
 8008080:	6920      	ldr	r0, [r4, #16]
 8008082:	ea2a 7aea 	bic.w	sl, sl, sl, asr #31
 8008086:	f104 0314 	add.w	r3, r4, #20
 800808a:	f016 021f 	ands.w	r2, r6, #31
 800808e:	eb01 018a 	add.w	r1, r1, sl, lsl #2
 8008092:	eb03 0c80 	add.w	ip, r3, r0, lsl #2
 8008096:	d025      	beq.n	80080e4 <__lshift+0x98>
 8008098:	f1c2 0e20 	rsb	lr, r2, #32
 800809c:	2000      	movs	r0, #0
 800809e:	681e      	ldr	r6, [r3, #0]
 80080a0:	468a      	mov	sl, r1
 80080a2:	4096      	lsls	r6, r2
 80080a4:	4330      	orrs	r0, r6
 80080a6:	f84a 0b04 	str.w	r0, [sl], #4
 80080aa:	f853 0b04 	ldr.w	r0, [r3], #4
 80080ae:	459c      	cmp	ip, r3
 80080b0:	fa20 f00e 	lsr.w	r0, r0, lr
 80080b4:	d814      	bhi.n	80080e0 <__lshift+0x94>
 80080b6:	6048      	str	r0, [r1, #4]
 80080b8:	b108      	cbz	r0, 80080be <__lshift+0x72>
 80080ba:	f109 0502 	add.w	r5, r9, #2
 80080be:	3d01      	subs	r5, #1
 80080c0:	4638      	mov	r0, r7
 80080c2:	f8c8 5010 	str.w	r5, [r8, #16]
 80080c6:	4621      	mov	r1, r4
 80080c8:	f7ff fe4f 	bl	8007d6a <_Bfree>
 80080cc:	4640      	mov	r0, r8
 80080ce:	e8bd 87f0 	ldmia.w	sp!, {r4, r5, r6, r7, r8, r9, sl, pc}
 80080d2:	3101      	adds	r1, #1
 80080d4:	005b      	lsls	r3, r3, #1
 80080d6:	e7c7      	b.n	8008068 <__lshift+0x1c>
 80080d8:	f841 2023 	str.w	r2, [r1, r3, lsl #2]
 80080dc:	3301      	adds	r3, #1
 80080de:	e7cd      	b.n	800807c <__lshift+0x30>
 80080e0:	4651      	mov	r1, sl
 80080e2:	e7dc      	b.n	800809e <__lshift+0x52>
 80080e4:	3904      	subs	r1, #4
 80080e6:	f853 2b04 	ldr.w	r2, [r3], #4
 80080ea:	f841 2f04 	str.w	r2, [r1, #4]!
 80080ee:	459c      	cmp	ip, r3
 80080f0:	d8f9      	bhi.n	80080e6 <__lshift+0x9a>
 80080f2:	e7e4      	b.n	80080be <__lshift+0x72>

080080f4 <__mcmp>:
 80080f4:	6903      	ldr	r3, [r0, #16]
 80080f6:	690a      	ldr	r2, [r1, #16]
 80080f8:	1a9b      	subs	r3, r3, r2
 80080fa:	b530      	push	{r4, r5, lr}
 80080fc:	d10c      	bne.n	8008118 <__mcmp+0x24>
 80080fe:	0092      	lsls	r2, r2, #2
 8008100:	3014      	adds	r0, #20
 8008102:	3114      	adds	r1, #20
 8008104:	1884      	adds	r4, r0, r2
 8008106:	4411      	add	r1, r2
 8008108:	f854 5d04 	ldr.w	r5, [r4, #-4]!
 800810c:	f851 2d04 	ldr.w	r2, [r1, #-4]!
 8008110:	4295      	cmp	r5, r2
 8008112:	d003      	beq.n	800811c <__mcmp+0x28>
 8008114:	d305      	bcc.n	8008122 <__mcmp+0x2e>
 8008116:	2301      	movs	r3, #1
 8008118:	4618      	mov	r0, r3
 800811a:	bd30      	pop	{r4, r5, pc}
 800811c:	42a0      	cmp	r0, r4
 800811e:	d3f3      	bcc.n	8008108 <__mcmp+0x14>
 8008120:	e7fa      	b.n	8008118 <__mcmp+0x24>
 8008122:	f04f 33ff 	mov.w	r3, #4294967295
 8008126:	e7f7      	b.n	8008118 <__mcmp+0x24>

08008128 <__mdiff>:
 8008128:	e92d 47f0 	stmdb	sp!, {r4, r5, r6, r7, r8, r9, sl, lr}
 800812c:	460d      	mov	r5, r1
 800812e:	4607      	mov	r7, r0
 8008130:	4611      	mov	r1, r2
 8008132:	4628      	mov	r0, r5
 8008134:	4614      	mov	r4, r2
 8008136:	f7ff ffdd 	bl	80080f4 <__mcmp>
 800813a:	1e06      	subs	r6, r0, #0
 800813c:	d108      	bne.n	8008150 <__mdiff+0x28>
 800813e:	4631      	mov	r1, r6
 8008140:	4638      	mov	r0, r7
 8008142:	f7ff fded 	bl	8007d20 <_Balloc>
 8008146:	2301      	movs	r3, #1
 8008148:	e9c0 3604 	strd	r3, r6, [r0, #16]
 800814c:	e8bd 87f0 	ldmia.w	sp!, {r4, r5, r6, r7, r8, r9, sl, pc}
 8008150:	bfa4      	itt	ge
 8008152:	4623      	movge	r3, r4
 8008154:	462c      	movge	r4, r5
 8008156:	4638      	mov	r0, r7
 8008158:	6861      	ldr	r1, [r4, #4]
 800815a:	bfa6      	itte	ge
 800815c:	461d      	movge	r5, r3
 800815e:	2600      	movge	r6, #0
 8008160:	2601      	movlt	r6, #1
 8008162:	f7ff fddd 	bl	8007d20 <_Balloc>
 8008166:	692b      	ldr	r3, [r5, #16]
 8008168:	60c6      	str	r6, [r0, #12]
 800816a:	6926      	ldr	r6, [r4, #16]
 800816c:	f105 0914 	add.w	r9, r5, #20
 8008170:	f104 0214 	add.w	r2, r4, #20
 8008174:	eb02 0786 	add.w	r7, r2, r6, lsl #2
 8008178:	eb09 0883 	add.w	r8, r9, r3, lsl #2
 800817c:	f100 0514 	add.w	r5, r0, #20
 8008180:	f04f 0e00 	mov.w	lr, #0
 8008184:	f852 ab04 	ldr.w	sl, [r2], #4
 8008188:	f859 4b04 	ldr.w	r4, [r9], #4
 800818c:	fa1e f18a 	uxtah	r1, lr, sl
 8008190:	b2a3      	uxth	r3, r4
 8008192:	1ac9      	subs	r1, r1, r3
 8008194:	0c23      	lsrs	r3, r4, #16
 8008196:	ebc3 431a 	rsb	r3, r3, sl, lsr #16
 800819a:	eb03 4321 	add.w	r3, r3, r1, asr #16
 800819e:	b289      	uxth	r1, r1
 80081a0:	ea4f 4e23 	mov.w	lr, r3, asr #16
 80081a4:	45c8      	cmp	r8, r9
 80081a6:	ea41 4303 	orr.w	r3, r1, r3, lsl #16
 80081aa:	4694      	mov	ip, r2
 80081ac:	f845 3b04 	str.w	r3, [r5], #4
 80081b0:	d8e8      	bhi.n	8008184 <__mdiff+0x5c>
 80081b2:	45bc      	cmp	ip, r7
 80081b4:	d304      	bcc.n	80081c0 <__mdiff+0x98>
 80081b6:	f855 3d04 	ldr.w	r3, [r5, #-4]!
 80081ba:	b183      	cbz	r3, 80081de <__mdiff+0xb6>
 80081bc:	6106      	str	r6, [r0, #16]
 80081be:	e7c5      	b.n	800814c <__mdiff+0x24>
 80081c0:	f85c 1b04 	ldr.w	r1, [ip], #4
 80081c4:	fa1e f381 	uxtah	r3, lr, r1
 80081c8:	141a      	asrs	r2, r3, #16
 80081ca:	eb02 4211 	add.w	r2, r2, r1, lsr #16
 80081ce:	b29b      	uxth	r3, r3
 80081d0:	ea43 4302 	orr.w	r3, r3, r2, lsl #16
 80081d4:	ea4f 4e22 	mov.w	lr, r2, asr #16
 80081d8:	f845 3b04 	str.w	r3, [r5], #4
 80081dc:	e7e9      	b.n	80081b2 <__mdiff+0x8a>
 80081de:	3e01      	subs	r6, #1
 80081e0:	e7e9      	b.n	80081b6 <__mdiff+0x8e>

080081e2 <__d2b>:
 80081e2:	e92d 43f7 	stmdb	sp!, {r0, r1, r2, r4, r5, r6, r7, r8, r9, lr}
 80081e6:	460e      	mov	r6, r1
 80081e8:	2101      	movs	r1, #1
 80081ea:	ec59 8b10 	vmov	r8, r9, d0
 80081ee:	4615      	mov	r5, r2
 80081f0:	f7ff fd96 	bl	8007d20 <_Balloc>
 80081f4:	f3c9 540a 	ubfx	r4, r9, #20, #11
 80081f8:	4607      	mov	r7, r0
 80081fa:	f3c9 0313 	ubfx	r3, r9, #0, #20
 80081fe:	bb34      	cbnz	r4, 800824e <__d2b+0x6c>
 8008200:	9301      	str	r3, [sp, #4]
 8008202:	f1b8 0300 	subs.w	r3, r8, #0
 8008206:	d027      	beq.n	8008258 <__d2b+0x76>
 8008208:	a802      	add	r0, sp, #8
 800820a:	f840 3d08 	str.w	r3, [r0, #-8]!
 800820e:	f7ff fe0f 	bl	8007e30 <__lo0bits>
 8008212:	9900      	ldr	r1, [sp, #0]
 8008214:	b1f0      	cbz	r0, 8008254 <__d2b+0x72>
 8008216:	9a01      	ldr	r2, [sp, #4]
 8008218:	f1c0 0320 	rsb	r3, r0, #32
 800821c:	fa02 f303 	lsl.w	r3, r2, r3
 8008220:	430b      	orrs	r3, r1
 8008222:	40c2      	lsrs	r2, r0
 8008224:	617b      	str	r3, [r7, #20]
 8008226:	9201      	str	r2, [sp, #4]
 8008228:	9b01      	ldr	r3, [sp, #4]
 800822a:	61bb      	str	r3, [r7, #24]
 800822c:	2b00      	cmp	r3, #0
 800822e:	bf14      	ite	ne
 8008230:	2102      	movne	r1, #2
 8008232:	2101      	moveq	r1, #1
 8008234:	6139      	str	r1, [r7, #16]
 8008236:	b1c4      	cbz	r4, 800826a <__d2b+0x88>
 8008238:	f2a4 4433 	subw	r4, r4, #1075	; 0x433
 800823c:	4404      	add	r4, r0
 800823e:	6034      	str	r4, [r6, #0]
 8008240:	f1c0 0035 	rsb	r0, r0, #53	; 0x35
 8008244:	6028      	str	r0, [r5, #0]
 8008246:	4638      	mov	r0, r7
 8008248:	b003      	add	sp, #12
 800824a:	e8bd 83f0 	ldmia.w	sp!, {r4, r5, r6, r7, r8, r9, pc}
 800824e:	f443 1380 	orr.w	r3, r3, #1048576	; 0x100000
 8008252:	e7d5      	b.n	8008200 <__d2b+0x1e>
 8008254:	6179      	str	r1, [r7, #20]
 8008256:	e7e7      	b.n	8008228 <__d2b+0x46>
 8008258:	a801      	add	r0, sp, #4
 800825a:	f7ff fde9 	bl	8007e30 <__lo0bits>
 800825e:	9b01      	ldr	r3, [sp, #4]
 8008260:	617b      	str	r3, [r7, #20]
 8008262:	2101      	movs	r1, #1
 8008264:	6139      	str	r1, [r7, #16]
 8008266:	3020      	adds	r0, #32
 8008268:	e7e5      	b.n	8008236 <__d2b+0x54>
 800826a:	eb07 0381 	add.w	r3, r7, r1, lsl #2
 800826e:	f2a0 4032 	subw	r0, r0, #1074	; 0x432
 8008272:	6030      	str	r0, [r6, #0]
 8008274:	6918      	ldr	r0, [r3, #16]
 8008276:	f7ff fdbc 	bl	8007df2 <__hi0bits>
 800827a:	ebc0 1041 	rsb	r0, r0, r1, lsl #5
 800827e:	e7e1      	b.n	8008244 <__d2b+0x62>

08008280 <frexp>:
 8008280:	b082      	sub	sp, #8
 8008282:	ed8d 0b00 	vstr	d0, [sp]
 8008286:	2100      	movs	r1, #0
 8008288:	9a01      	ldr	r2, [sp, #4]
 800828a:	6001      	str	r1, [r0, #0]
 800828c:	4918      	ldr	r1, [pc, #96]	; (80082f0 <frexp+0x70>)
 800828e:	f022 4300 	bic.w	r3, r2, #2147483648	; 0x80000000
 8008292:	428b      	cmp	r3, r1
 8008294:	dc23      	bgt.n	80082de <frexp+0x5e>
 8008296:	9900      	ldr	r1, [sp, #0]
 8008298:	4319      	orrs	r1, r3
 800829a:	d020      	beq.n	80082de <frexp+0x5e>
 800829c:	f5b3 1f80 	cmp.w	r3, #1048576	; 0x100000
 80082a0:	da0b      	bge.n	80082ba <frexp+0x3a>
 80082a2:	ed9f 7b11 	vldr	d7, [pc, #68]	; 80082e8 <frexp+0x68>
 80082a6:	ee20 7b07 	vmul.f64	d7, d0, d7
 80082aa:	ed8d 7b00 	vstr	d7, [sp]
 80082ae:	9a01      	ldr	r2, [sp, #4]
 80082b0:	f06f 0135 	mvn.w	r1, #53	; 0x35
 80082b4:	f022 4300 	bic.w	r3, r2, #2147483648	; 0x80000000
 80082b8:	6001      	str	r1, [r0, #0]
 80082ba:	6801      	ldr	r1, [r0, #0]
 80082bc:	151b      	asrs	r3, r3, #20
 80082be:	f2a3 33fe 	subw	r3, r3, #1022	; 0x3fe
 80082c2:	440b      	add	r3, r1
 80082c4:	f022 42ff 	bic.w	r2, r2, #2139095040	; 0x7f800000
 80082c8:	6003      	str	r3, [r0, #0]
 80082ca:	f422 02e0 	bic.w	r2, r2, #7340032	; 0x700000
 80082ce:	e9dd 0100 	ldrd	r0, r1, [sp]
 80082d2:	f042 517f 	orr.w	r1, r2, #1069547520	; 0x3fc00000
 80082d6:	f441 1100 	orr.w	r1, r1, #2097152	; 0x200000
 80082da:	e9cd 0100 	strd	r0, r1, [sp]
 80082de:	ed9d 0b00 	vldr	d0, [sp]
 80082e2:	b002      	add	sp, #8
 80082e4:	4770      	bx	lr
 80082e6:	bf00      	nop
 80082e8:	00000000 	.word	0x00000000
 80082ec:	43500000 	.word	0x43500000
 80082f0:	7fefffff 	.word	0x7fefffff

080082f4 <strncpy>:
 80082f4:	b570      	push	{r4, r5, r6, lr}
 80082f6:	3901      	subs	r1, #1
 80082f8:	4604      	mov	r4, r0
 80082fa:	b902      	cbnz	r2, 80082fe <strncpy+0xa>
 80082fc:	bd70      	pop	{r4, r5, r6, pc}
 80082fe:	4623      	mov	r3, r4
 8008300:	f811 5f01 	ldrb.w	r5, [r1, #1]!
 8008304:	f803 5b01 	strb.w	r5, [r3], #1
 8008308:	1e56      	subs	r6, r2, #1
 800830a:	b92d      	cbnz	r5, 8008318 <strncpy+0x24>
 800830c:	4414      	add	r4, r2
 800830e:	42a3      	cmp	r3, r4
 8008310:	d0f4      	beq.n	80082fc <strncpy+0x8>
 8008312:	f803 5b01 	strb.w	r5, [r3], #1
 8008316:	e7fa      	b.n	800830e <strncpy+0x1a>
 8008318:	461c      	mov	r4, r3
 800831a:	4632      	mov	r2, r6
 800831c:	e7ed      	b.n	80082fa <strncpy+0x6>

0800831e <__ssprint_r>:
 800831e:	6893      	ldr	r3, [r2, #8]
 8008320:	e92d 4ff7 	stmdb	sp!, {r0, r1, r2, r4, r5, r6, r7, r8, r9, sl, fp, lr}
 8008324:	4681      	mov	r9, r0
 8008326:	460c      	mov	r4, r1
 8008328:	4616      	mov	r6, r2
 800832a:	2b00      	cmp	r3, #0
 800832c:	d05e      	beq.n	80083ec <__ssprint_r+0xce>
 800832e:	f04f 0b00 	mov.w	fp, #0
 8008332:	f8d2 a000 	ldr.w	sl, [r2]
 8008336:	465f      	mov	r7, fp
 8008338:	b357      	cbz	r7, 8008390 <__ssprint_r+0x72>
 800833a:	68a3      	ldr	r3, [r4, #8]
 800833c:	429f      	cmp	r7, r3
 800833e:	d340      	bcc.n	80083c2 <__ssprint_r+0xa4>
 8008340:	89a2      	ldrh	r2, [r4, #12]
 8008342:	f412 6f90 	tst.w	r2, #1152	; 0x480
 8008346:	d03c      	beq.n	80083c2 <__ssprint_r+0xa4>
 8008348:	6825      	ldr	r5, [r4, #0]
 800834a:	6921      	ldr	r1, [r4, #16]
 800834c:	eba5 0801 	sub.w	r8, r5, r1
 8008350:	6965      	ldr	r5, [r4, #20]
 8008352:	2302      	movs	r3, #2
 8008354:	eb05 0545 	add.w	r5, r5, r5, lsl #1
 8008358:	fb95 f5f3 	sdiv	r5, r5, r3
 800835c:	f108 0301 	add.w	r3, r8, #1
 8008360:	443b      	add	r3, r7
 8008362:	429d      	cmp	r5, r3
 8008364:	bf38      	it	cc
 8008366:	461d      	movcc	r5, r3
 8008368:	0553      	lsls	r3, r2, #21
 800836a:	d544      	bpl.n	80083f6 <__ssprint_r+0xd8>
 800836c:	4629      	mov	r1, r5
 800836e:	4648      	mov	r0, r9
 8008370:	f7fd f956 	bl	8005620 <_malloc_r>
 8008374:	b988      	cbnz	r0, 800839a <__ssprint_r+0x7c>
 8008376:	230c      	movs	r3, #12
 8008378:	f8c9 3000 	str.w	r3, [r9]
 800837c:	89a3      	ldrh	r3, [r4, #12]
 800837e:	f043 0340 	orr.w	r3, r3, #64	; 0x40
 8008382:	81a3      	strh	r3, [r4, #12]
 8008384:	2300      	movs	r3, #0
 8008386:	e9c6 3301 	strd	r3, r3, [r6, #4]
 800838a:	f04f 30ff 	mov.w	r0, #4294967295
 800838e:	e02f      	b.n	80083f0 <__ssprint_r+0xd2>
 8008390:	e9da b700 	ldrd	fp, r7, [sl]
 8008394:	f10a 0a08 	add.w	sl, sl, #8
 8008398:	e7ce      	b.n	8008338 <__ssprint_r+0x1a>
 800839a:	4642      	mov	r2, r8
 800839c:	6921      	ldr	r1, [r4, #16]
 800839e:	9001      	str	r0, [sp, #4]
 80083a0:	f7fd fb74 	bl	8005a8c <memcpy>
 80083a4:	89a2      	ldrh	r2, [r4, #12]
 80083a6:	9b01      	ldr	r3, [sp, #4]
 80083a8:	f422 6290 	bic.w	r2, r2, #1152	; 0x480
 80083ac:	f042 0280 	orr.w	r2, r2, #128	; 0x80
 80083b0:	81a2      	strh	r2, [r4, #12]
 80083b2:	6123      	str	r3, [r4, #16]
 80083b4:	6165      	str	r5, [r4, #20]
 80083b6:	4443      	add	r3, r8
 80083b8:	eba5 0508 	sub.w	r5, r5, r8
 80083bc:	6023      	str	r3, [r4, #0]
 80083be:	60a5      	str	r5, [r4, #8]
 80083c0:	463b      	mov	r3, r7
 80083c2:	42bb      	cmp	r3, r7
 80083c4:	bf28      	it	cs
 80083c6:	463b      	movcs	r3, r7
 80083c8:	461a      	mov	r2, r3
 80083ca:	4659      	mov	r1, fp
 80083cc:	6820      	ldr	r0, [r4, #0]
 80083ce:	9301      	str	r3, [sp, #4]
 80083d0:	f000 f8b3 	bl	800853a <memmove>
 80083d4:	68a2      	ldr	r2, [r4, #8]
 80083d6:	9b01      	ldr	r3, [sp, #4]
 80083d8:	1ad2      	subs	r2, r2, r3
 80083da:	60a2      	str	r2, [r4, #8]
 80083dc:	6822      	ldr	r2, [r4, #0]
 80083de:	4413      	add	r3, r2
 80083e0:	6023      	str	r3, [r4, #0]
 80083e2:	68b3      	ldr	r3, [r6, #8]
 80083e4:	1bdf      	subs	r7, r3, r7
 80083e6:	60b7      	str	r7, [r6, #8]
 80083e8:	2f00      	cmp	r7, #0
 80083ea:	d1d1      	bne.n	8008390 <__ssprint_r+0x72>
 80083ec:	2000      	movs	r0, #0
 80083ee:	6070      	str	r0, [r6, #4]
 80083f0:	b003      	add	sp, #12
 80083f2:	e8bd 8ff0 	ldmia.w	sp!, {r4, r5, r6, r7, r8, r9, sl, fp, pc}
 80083f6:	462a      	mov	r2, r5
 80083f8:	4648      	mov	r0, r9
 80083fa:	f000 f8b7 	bl	800856c <_realloc_r>
 80083fe:	4603      	mov	r3, r0
 8008400:	2800      	cmp	r0, #0
 8008402:	d1d6      	bne.n	80083b2 <__ssprint_r+0x94>
 8008404:	6921      	ldr	r1, [r4, #16]
 8008406:	4648      	mov	r0, r9
 8008408:	f7ff fbbe 	bl	8007b88 <_free_r>
 800840c:	e7b3      	b.n	8008376 <__ssprint_r+0x58>
	...

08008410 <__register_exitproc>:
 8008410:	e92d 43f8 	stmdb	sp!, {r3, r4, r5, r6, r7, r8, r9, lr}
 8008414:	4c26      	ldr	r4, [pc, #152]	; (80084b0 <__register_exitproc+0xa0>)
 8008416:	4606      	mov	r6, r0
 8008418:	6820      	ldr	r0, [r4, #0]
 800841a:	4698      	mov	r8, r3
 800841c:	460f      	mov	r7, r1
 800841e:	4691      	mov	r9, r2
 8008420:	f7ff fc7c 	bl	8007d1c <__retarget_lock_acquire_recursive>
 8008424:	4b23      	ldr	r3, [pc, #140]	; (80084b4 <__register_exitproc+0xa4>)
 8008426:	681d      	ldr	r5, [r3, #0]
 8008428:	f8d5 0148 	ldr.w	r0, [r5, #328]	; 0x148
 800842c:	b918      	cbnz	r0, 8008436 <__register_exitproc+0x26>
 800842e:	f505 70a6 	add.w	r0, r5, #332	; 0x14c
 8008432:	f8c5 0148 	str.w	r0, [r5, #328]	; 0x148
 8008436:	6843      	ldr	r3, [r0, #4]
 8008438:	2b1f      	cmp	r3, #31
 800843a:	dd19      	ble.n	8008470 <__register_exitproc+0x60>
 800843c:	4b1e      	ldr	r3, [pc, #120]	; (80084b8 <__register_exitproc+0xa8>)
 800843e:	b933      	cbnz	r3, 800844e <__register_exitproc+0x3e>
 8008440:	6820      	ldr	r0, [r4, #0]
 8008442:	f7ff fc6c 	bl	8007d1e <__retarget_lock_release_recursive>
 8008446:	f04f 30ff 	mov.w	r0, #4294967295
 800844a:	e8bd 83f8 	ldmia.w	sp!, {r3, r4, r5, r6, r7, r8, r9, pc}
 800844e:	f44f 70c8 	mov.w	r0, #400	; 0x190
 8008452:	f7fd f8d5 	bl	8005600 <malloc>
 8008456:	2800      	cmp	r0, #0
 8008458:	d0f2      	beq.n	8008440 <__register_exitproc+0x30>
 800845a:	f8d5 3148 	ldr.w	r3, [r5, #328]	; 0x148
 800845e:	6003      	str	r3, [r0, #0]
 8008460:	2200      	movs	r2, #0
 8008462:	6042      	str	r2, [r0, #4]
 8008464:	f8c5 0148 	str.w	r0, [r5, #328]	; 0x148
 8008468:	f8c0 2188 	str.w	r2, [r0, #392]	; 0x188
 800846c:	f8c0 218c 	str.w	r2, [r0, #396]	; 0x18c
 8008470:	6843      	ldr	r3, [r0, #4]
 8008472:	b19e      	cbz	r6, 800849c <__register_exitproc+0x8c>
 8008474:	eb00 0583 	add.w	r5, r0, r3, lsl #2
 8008478:	2201      	movs	r2, #1
 800847a:	f8c5 9088 	str.w	r9, [r5, #136]	; 0x88
 800847e:	f8d0 1188 	ldr.w	r1, [r0, #392]	; 0x188
 8008482:	409a      	lsls	r2, r3
 8008484:	4311      	orrs	r1, r2
 8008486:	2e02      	cmp	r6, #2
 8008488:	f8c0 1188 	str.w	r1, [r0, #392]	; 0x188
 800848c:	f8c5 8108 	str.w	r8, [r5, #264]	; 0x108
 8008490:	bf02      	ittt	eq
 8008492:	f8d0 118c 	ldreq.w	r1, [r0, #396]	; 0x18c
 8008496:	430a      	orreq	r2, r1
 8008498:	f8c0 218c 	streq.w	r2, [r0, #396]	; 0x18c
 800849c:	1c5a      	adds	r2, r3, #1
 800849e:	3302      	adds	r3, #2
 80084a0:	6042      	str	r2, [r0, #4]
 80084a2:	f840 7023 	str.w	r7, [r0, r3, lsl #2]
 80084a6:	6820      	ldr	r0, [r4, #0]
 80084a8:	f7ff fc39 	bl	8007d1e <__retarget_lock_release_recursive>
 80084ac:	2000      	movs	r0, #0
 80084ae:	e7cc      	b.n	800844a <__register_exitproc+0x3a>
 80084b0:	24000850 	.word	0x24000850
 80084b4:	08008a24 	.word	0x08008a24
 80084b8:	08005601 	.word	0x08005601

080084bc <_calloc_r>:
 80084bc:	b510      	push	{r4, lr}
 80084be:	4351      	muls	r1, r2
 80084c0:	f7fd f8ae 	bl	8005620 <_malloc_r>
 80084c4:	4604      	mov	r4, r0
 80084c6:	b198      	cbz	r0, 80084f0 <_calloc_r+0x34>
 80084c8:	f850 2c04 	ldr.w	r2, [r0, #-4]
 80084cc:	f022 0203 	bic.w	r2, r2, #3
 80084d0:	3a04      	subs	r2, #4
 80084d2:	2a24      	cmp	r2, #36	; 0x24
 80084d4:	d81b      	bhi.n	800850e <_calloc_r+0x52>
 80084d6:	2a13      	cmp	r2, #19
 80084d8:	d917      	bls.n	800850a <_calloc_r+0x4e>
 80084da:	2100      	movs	r1, #0
 80084dc:	2a1b      	cmp	r2, #27
 80084de:	e9c0 1100 	strd	r1, r1, [r0]
 80084e2:	d807      	bhi.n	80084f4 <_calloc_r+0x38>
 80084e4:	f100 0308 	add.w	r3, r0, #8
 80084e8:	2200      	movs	r2, #0
 80084ea:	e9c3 2200 	strd	r2, r2, [r3]
 80084ee:	609a      	str	r2, [r3, #8]
 80084f0:	4620      	mov	r0, r4
 80084f2:	bd10      	pop	{r4, pc}
 80084f4:	2a24      	cmp	r2, #36	; 0x24
 80084f6:	e9c0 1102 	strd	r1, r1, [r0, #8]
 80084fa:	bf11      	iteee	ne
 80084fc:	f100 0310 	addne.w	r3, r0, #16
 8008500:	6101      	streq	r1, [r0, #16]
 8008502:	f100 0318 	addeq.w	r3, r0, #24
 8008506:	6141      	streq	r1, [r0, #20]
 8008508:	e7ee      	b.n	80084e8 <_calloc_r+0x2c>
 800850a:	4603      	mov	r3, r0
 800850c:	e7ec      	b.n	80084e8 <_calloc_r+0x2c>
 800850e:	2100      	movs	r1, #0
 8008510:	f7fd fac7 	bl	8005aa2 <memset>
 8008514:	e7ec      	b.n	80084f0 <_calloc_r+0x34>

08008516 <__ascii_mbtowc>:
 8008516:	b082      	sub	sp, #8
 8008518:	b901      	cbnz	r1, 800851c <__ascii_mbtowc+0x6>
 800851a:	a901      	add	r1, sp, #4
 800851c:	b142      	cbz	r2, 8008530 <__ascii_mbtowc+0x1a>
 800851e:	b14b      	cbz	r3, 8008534 <__ascii_mbtowc+0x1e>
 8008520:	7813      	ldrb	r3, [r2, #0]
 8008522:	600b      	str	r3, [r1, #0]
 8008524:	7812      	ldrb	r2, [r2, #0]
 8008526:	1c10      	adds	r0, r2, #0
 8008528:	bf18      	it	ne
 800852a:	2001      	movne	r0, #1
 800852c:	b002      	add	sp, #8
 800852e:	4770      	bx	lr
 8008530:	4610      	mov	r0, r2
 8008532:	e7fb      	b.n	800852c <__ascii_mbtowc+0x16>
 8008534:	f06f 0001 	mvn.w	r0, #1
 8008538:	e7f8      	b.n	800852c <__ascii_mbtowc+0x16>

0800853a <memmove>:
 800853a:	4288      	cmp	r0, r1
 800853c:	b510      	push	{r4, lr}
 800853e:	eb01 0302 	add.w	r3, r1, r2
 8008542:	d807      	bhi.n	8008554 <memmove+0x1a>
 8008544:	1e42      	subs	r2, r0, #1
 8008546:	4299      	cmp	r1, r3
 8008548:	d00a      	beq.n	8008560 <memmove+0x26>
 800854a:	f811 4b01 	ldrb.w	r4, [r1], #1
 800854e:	f802 4f01 	strb.w	r4, [r2, #1]!
 8008552:	e7f8      	b.n	8008546 <memmove+0xc>
 8008554:	4283      	cmp	r3, r0
 8008556:	d9f5      	bls.n	8008544 <memmove+0xa>
 8008558:	1881      	adds	r1, r0, r2
 800855a:	1ad2      	subs	r2, r2, r3
 800855c:	42d3      	cmn	r3, r2
 800855e:	d100      	bne.n	8008562 <memmove+0x28>
 8008560:	bd10      	pop	{r4, pc}
 8008562:	f813 4d01 	ldrb.w	r4, [r3, #-1]!
 8008566:	f801 4d01 	strb.w	r4, [r1, #-1]!
 800856a:	e7f7      	b.n	800855c <memmove+0x22>

0800856c <_realloc_r>:
 800856c:	e92d 4ff7 	stmdb	sp!, {r0, r1, r2, r4, r5, r6, r7, r8, r9, sl, fp, lr}
 8008570:	4682      	mov	sl, r0
 8008572:	460c      	mov	r4, r1
 8008574:	b929      	cbnz	r1, 8008582 <_realloc_r+0x16>
 8008576:	4611      	mov	r1, r2
 8008578:	b003      	add	sp, #12
 800857a:	e8bd 4ff0 	ldmia.w	sp!, {r4, r5, r6, r7, r8, r9, sl, fp, lr}
 800857e:	f7fd b84f 	b.w	8005620 <_malloc_r>
 8008582:	9201      	str	r2, [sp, #4]
 8008584:	f7fd fa96 	bl	8005ab4 <__malloc_lock>
 8008588:	9a01      	ldr	r2, [sp, #4]
 800858a:	f854 5c04 	ldr.w	r5, [r4, #-4]
 800858e:	f102 080b 	add.w	r8, r2, #11
 8008592:	f1b8 0f16 	cmp.w	r8, #22
 8008596:	f1a4 0908 	sub.w	r9, r4, #8
 800859a:	f025 0603 	bic.w	r6, r5, #3
 800859e:	d90b      	bls.n	80085b8 <_realloc_r+0x4c>
 80085a0:	f038 0807 	bics.w	r8, r8, #7
 80085a4:	d50a      	bpl.n	80085bc <_realloc_r+0x50>
 80085a6:	230c      	movs	r3, #12
 80085a8:	f8ca 3000 	str.w	r3, [sl]
 80085ac:	f04f 0b00 	mov.w	fp, #0
 80085b0:	4658      	mov	r0, fp
 80085b2:	b003      	add	sp, #12
 80085b4:	e8bd 8ff0 	ldmia.w	sp!, {r4, r5, r6, r7, r8, r9, sl, fp, pc}
 80085b8:	f04f 0810 	mov.w	r8, #16
 80085bc:	4590      	cmp	r8, r2
 80085be:	d3f2      	bcc.n	80085a6 <_realloc_r+0x3a>
 80085c0:	45b0      	cmp	r8, r6
 80085c2:	f340 8170 	ble.w	80088a6 <_realloc_r+0x33a>
 80085c6:	49a9      	ldr	r1, [pc, #676]	; (800886c <_realloc_r+0x300>)
 80085c8:	9101      	str	r1, [sp, #4]
 80085ca:	f8d1 c008 	ldr.w	ip, [r1, #8]
 80085ce:	eb09 0306 	add.w	r3, r9, r6
 80085d2:	459c      	cmp	ip, r3
 80085d4:	6858      	ldr	r0, [r3, #4]
 80085d6:	d005      	beq.n	80085e4 <_realloc_r+0x78>
 80085d8:	f020 0101 	bic.w	r1, r0, #1
 80085dc:	4419      	add	r1, r3
 80085de:	6849      	ldr	r1, [r1, #4]
 80085e0:	07cf      	lsls	r7, r1, #31
 80085e2:	d447      	bmi.n	8008674 <_realloc_r+0x108>
 80085e4:	f020 0003 	bic.w	r0, r0, #3
 80085e8:	459c      	cmp	ip, r3
 80085ea:	eb06 0700 	add.w	r7, r6, r0
 80085ee:	d119      	bne.n	8008624 <_realloc_r+0xb8>
 80085f0:	f108 0110 	add.w	r1, r8, #16
 80085f4:	42b9      	cmp	r1, r7
 80085f6:	dc3f      	bgt.n	8008678 <_realloc_r+0x10c>
 80085f8:	eb09 0308 	add.w	r3, r9, r8
 80085fc:	9a01      	ldr	r2, [sp, #4]
 80085fe:	eba7 0708 	sub.w	r7, r7, r8
 8008602:	f047 0701 	orr.w	r7, r7, #1
 8008606:	6093      	str	r3, [r2, #8]
 8008608:	605f      	str	r7, [r3, #4]
 800860a:	f854 3c04 	ldr.w	r3, [r4, #-4]
 800860e:	f003 0301 	and.w	r3, r3, #1
 8008612:	ea43 0308 	orr.w	r3, r3, r8
 8008616:	f844 3c04 	str.w	r3, [r4, #-4]
 800861a:	4650      	mov	r0, sl
 800861c:	f7fd fa50 	bl	8005ac0 <__malloc_unlock>
 8008620:	46a3      	mov	fp, r4
 8008622:	e7c5      	b.n	80085b0 <_realloc_r+0x44>
 8008624:	45b8      	cmp	r8, r7
 8008626:	dc27      	bgt.n	8008678 <_realloc_r+0x10c>
 8008628:	e9d3 3202 	ldrd	r3, r2, [r3, #8]
 800862c:	60da      	str	r2, [r3, #12]
 800862e:	6093      	str	r3, [r2, #8]
 8008630:	eba7 0008 	sub.w	r0, r7, r8
 8008634:	f8d9 2004 	ldr.w	r2, [r9, #4]
 8008638:	280f      	cmp	r0, #15
 800863a:	f002 0201 	and.w	r2, r2, #1
 800863e:	eb09 0307 	add.w	r3, r9, r7
 8008642:	f240 8132 	bls.w	80088aa <_realloc_r+0x33e>
 8008646:	eb09 0108 	add.w	r1, r9, r8
 800864a:	ea48 0202 	orr.w	r2, r8, r2
 800864e:	f040 0001 	orr.w	r0, r0, #1
 8008652:	f8c9 2004 	str.w	r2, [r9, #4]
 8008656:	6048      	str	r0, [r1, #4]
 8008658:	685a      	ldr	r2, [r3, #4]
 800865a:	f042 0201 	orr.w	r2, r2, #1
 800865e:	605a      	str	r2, [r3, #4]
 8008660:	3108      	adds	r1, #8
 8008662:	4650      	mov	r0, sl
 8008664:	f7ff fa90 	bl	8007b88 <_free_r>
 8008668:	4650      	mov	r0, sl
 800866a:	f7fd fa29 	bl	8005ac0 <__malloc_unlock>
 800866e:	f109 0b08 	add.w	fp, r9, #8
 8008672:	e79d      	b.n	80085b0 <_realloc_r+0x44>
 8008674:	2000      	movs	r0, #0
 8008676:	4603      	mov	r3, r0
 8008678:	07e9      	lsls	r1, r5, #31
 800867a:	f100 80c6 	bmi.w	800880a <_realloc_r+0x29e>
 800867e:	f854 5c08 	ldr.w	r5, [r4, #-8]
 8008682:	eba9 0505 	sub.w	r5, r9, r5
 8008686:	6869      	ldr	r1, [r5, #4]
 8008688:	f021 0103 	bic.w	r1, r1, #3
 800868c:	eb01 0b06 	add.w	fp, r1, r6
 8008690:	2b00      	cmp	r3, #0
 8008692:	f000 8086 	beq.w	80087a2 <_realloc_r+0x236>
 8008696:	459c      	cmp	ip, r3
 8008698:	eb00 070b 	add.w	r7, r0, fp
 800869c:	d149      	bne.n	8008732 <_realloc_r+0x1c6>
 800869e:	f108 0310 	add.w	r3, r8, #16
 80086a2:	42bb      	cmp	r3, r7
 80086a4:	dc7d      	bgt.n	80087a2 <_realloc_r+0x236>
 80086a6:	46ab      	mov	fp, r5
 80086a8:	68eb      	ldr	r3, [r5, #12]
 80086aa:	f85b 2f08 	ldr.w	r2, [fp, #8]!
 80086ae:	60d3      	str	r3, [r2, #12]
 80086b0:	609a      	str	r2, [r3, #8]
 80086b2:	1f32      	subs	r2, r6, #4
 80086b4:	2a24      	cmp	r2, #36	; 0x24
 80086b6:	d837      	bhi.n	8008728 <_realloc_r+0x1bc>
 80086b8:	2a13      	cmp	r2, #19
 80086ba:	d933      	bls.n	8008724 <_realloc_r+0x1b8>
 80086bc:	6823      	ldr	r3, [r4, #0]
 80086be:	60ab      	str	r3, [r5, #8]
 80086c0:	6863      	ldr	r3, [r4, #4]
 80086c2:	60eb      	str	r3, [r5, #12]
 80086c4:	2a1b      	cmp	r2, #27
 80086c6:	d81b      	bhi.n	8008700 <_realloc_r+0x194>
 80086c8:	3408      	adds	r4, #8
 80086ca:	f105 0310 	add.w	r3, r5, #16
 80086ce:	6822      	ldr	r2, [r4, #0]
 80086d0:	601a      	str	r2, [r3, #0]
 80086d2:	6862      	ldr	r2, [r4, #4]
 80086d4:	605a      	str	r2, [r3, #4]
 80086d6:	68a2      	ldr	r2, [r4, #8]
 80086d8:	609a      	str	r2, [r3, #8]
 80086da:	eb05 0308 	add.w	r3, r5, r8
 80086de:	9a01      	ldr	r2, [sp, #4]
 80086e0:	eba7 0708 	sub.w	r7, r7, r8
 80086e4:	f047 0701 	orr.w	r7, r7, #1
 80086e8:	6093      	str	r3, [r2, #8]
 80086ea:	605f      	str	r7, [r3, #4]
 80086ec:	686b      	ldr	r3, [r5, #4]
 80086ee:	f003 0301 	and.w	r3, r3, #1
 80086f2:	ea43 0308 	orr.w	r3, r3, r8
 80086f6:	606b      	str	r3, [r5, #4]
 80086f8:	4650      	mov	r0, sl
 80086fa:	f7fd f9e1 	bl	8005ac0 <__malloc_unlock>
 80086fe:	e757      	b.n	80085b0 <_realloc_r+0x44>
 8008700:	68a3      	ldr	r3, [r4, #8]
 8008702:	612b      	str	r3, [r5, #16]
 8008704:	68e3      	ldr	r3, [r4, #12]
 8008706:	616b      	str	r3, [r5, #20]
 8008708:	2a24      	cmp	r2, #36	; 0x24
 800870a:	bf01      	itttt	eq
 800870c:	6923      	ldreq	r3, [r4, #16]
 800870e:	61ab      	streq	r3, [r5, #24]
 8008710:	6962      	ldreq	r2, [r4, #20]
 8008712:	61ea      	streq	r2, [r5, #28]
 8008714:	bf19      	ittee	ne
 8008716:	3410      	addne	r4, #16
 8008718:	f105 0318 	addne.w	r3, r5, #24
 800871c:	f105 0320 	addeq.w	r3, r5, #32
 8008720:	3418      	addeq	r4, #24
 8008722:	e7d4      	b.n	80086ce <_realloc_r+0x162>
 8008724:	465b      	mov	r3, fp
 8008726:	e7d2      	b.n	80086ce <_realloc_r+0x162>
 8008728:	4621      	mov	r1, r4
 800872a:	4658      	mov	r0, fp
 800872c:	f7ff ff05 	bl	800853a <memmove>
 8008730:	e7d3      	b.n	80086da <_realloc_r+0x16e>
 8008732:	45b8      	cmp	r8, r7
 8008734:	dc35      	bgt.n	80087a2 <_realloc_r+0x236>
 8008736:	e9d3 3202 	ldrd	r3, r2, [r3, #8]
 800873a:	4628      	mov	r0, r5
 800873c:	60da      	str	r2, [r3, #12]
 800873e:	6093      	str	r3, [r2, #8]
 8008740:	f850 2f08 	ldr.w	r2, [r0, #8]!
 8008744:	68eb      	ldr	r3, [r5, #12]
 8008746:	60d3      	str	r3, [r2, #12]
 8008748:	609a      	str	r2, [r3, #8]
 800874a:	1f32      	subs	r2, r6, #4
 800874c:	2a24      	cmp	r2, #36	; 0x24
 800874e:	d824      	bhi.n	800879a <_realloc_r+0x22e>
 8008750:	2a13      	cmp	r2, #19
 8008752:	d908      	bls.n	8008766 <_realloc_r+0x1fa>
 8008754:	6823      	ldr	r3, [r4, #0]
 8008756:	60ab      	str	r3, [r5, #8]
 8008758:	6863      	ldr	r3, [r4, #4]
 800875a:	60eb      	str	r3, [r5, #12]
 800875c:	2a1b      	cmp	r2, #27
 800875e:	d80a      	bhi.n	8008776 <_realloc_r+0x20a>
 8008760:	3408      	adds	r4, #8
 8008762:	f105 0010 	add.w	r0, r5, #16
 8008766:	6823      	ldr	r3, [r4, #0]
 8008768:	6003      	str	r3, [r0, #0]
 800876a:	6863      	ldr	r3, [r4, #4]
 800876c:	6043      	str	r3, [r0, #4]
 800876e:	68a3      	ldr	r3, [r4, #8]
 8008770:	6083      	str	r3, [r0, #8]
 8008772:	46a9      	mov	r9, r5
 8008774:	e75c      	b.n	8008630 <_realloc_r+0xc4>
 8008776:	68a3      	ldr	r3, [r4, #8]
 8008778:	612b      	str	r3, [r5, #16]
 800877a:	68e3      	ldr	r3, [r4, #12]
 800877c:	616b      	str	r3, [r5, #20]
 800877e:	2a24      	cmp	r2, #36	; 0x24
 8008780:	bf01      	itttt	eq
 8008782:	6923      	ldreq	r3, [r4, #16]
 8008784:	61ab      	streq	r3, [r5, #24]
 8008786:	6963      	ldreq	r3, [r4, #20]
 8008788:	61eb      	streq	r3, [r5, #28]
 800878a:	bf19      	ittee	ne
 800878c:	3410      	addne	r4, #16
 800878e:	f105 0018 	addne.w	r0, r5, #24
 8008792:	f105 0020 	addeq.w	r0, r5, #32
 8008796:	3418      	addeq	r4, #24
 8008798:	e7e5      	b.n	8008766 <_realloc_r+0x1fa>
 800879a:	4621      	mov	r1, r4
 800879c:	f7ff fecd 	bl	800853a <memmove>
 80087a0:	e7e7      	b.n	8008772 <_realloc_r+0x206>
 80087a2:	45d8      	cmp	r8, fp
 80087a4:	dc31      	bgt.n	800880a <_realloc_r+0x29e>
 80087a6:	4628      	mov	r0, r5
 80087a8:	68eb      	ldr	r3, [r5, #12]
 80087aa:	f850 2f08 	ldr.w	r2, [r0, #8]!
 80087ae:	60d3      	str	r3, [r2, #12]
 80087b0:	609a      	str	r2, [r3, #8]
 80087b2:	1f32      	subs	r2, r6, #4
 80087b4:	2a24      	cmp	r2, #36	; 0x24
 80087b6:	d824      	bhi.n	8008802 <_realloc_r+0x296>
 80087b8:	2a13      	cmp	r2, #19
 80087ba:	d908      	bls.n	80087ce <_realloc_r+0x262>
 80087bc:	6823      	ldr	r3, [r4, #0]
 80087be:	60ab      	str	r3, [r5, #8]
 80087c0:	6863      	ldr	r3, [r4, #4]
 80087c2:	60eb      	str	r3, [r5, #12]
 80087c4:	2a1b      	cmp	r2, #27
 80087c6:	d80a      	bhi.n	80087de <_realloc_r+0x272>
 80087c8:	3408      	adds	r4, #8
 80087ca:	f105 0010 	add.w	r0, r5, #16
 80087ce:	6823      	ldr	r3, [r4, #0]
 80087d0:	6003      	str	r3, [r0, #0]
 80087d2:	6863      	ldr	r3, [r4, #4]
 80087d4:	6043      	str	r3, [r0, #4]
 80087d6:	68a3      	ldr	r3, [r4, #8]
 80087d8:	6083      	str	r3, [r0, #8]
 80087da:	465f      	mov	r7, fp
 80087dc:	e7c9      	b.n	8008772 <_realloc_r+0x206>
 80087de:	68a3      	ldr	r3, [r4, #8]
 80087e0:	612b      	str	r3, [r5, #16]
 80087e2:	68e3      	ldr	r3, [r4, #12]
 80087e4:	616b      	str	r3, [r5, #20]
 80087e6:	2a24      	cmp	r2, #36	; 0x24
 80087e8:	bf01      	itttt	eq
 80087ea:	6923      	ldreq	r3, [r4, #16]
 80087ec:	61ab      	streq	r3, [r5, #24]
 80087ee:	6963      	ldreq	r3, [r4, #20]
 80087f0:	61eb      	streq	r3, [r5, #28]
 80087f2:	bf19      	ittee	ne
 80087f4:	3410      	addne	r4, #16
 80087f6:	f105 0018 	addne.w	r0, r5, #24
 80087fa:	f105 0020 	addeq.w	r0, r5, #32
 80087fe:	3418      	addeq	r4, #24
 8008800:	e7e5      	b.n	80087ce <_realloc_r+0x262>
 8008802:	4621      	mov	r1, r4
 8008804:	f7ff fe99 	bl	800853a <memmove>
 8008808:	e7e7      	b.n	80087da <_realloc_r+0x26e>
 800880a:	4611      	mov	r1, r2
 800880c:	4650      	mov	r0, sl
 800880e:	f7fc ff07 	bl	8005620 <_malloc_r>
 8008812:	4683      	mov	fp, r0
 8008814:	2800      	cmp	r0, #0
 8008816:	f43f af6f 	beq.w	80086f8 <_realloc_r+0x18c>
 800881a:	f854 3c04 	ldr.w	r3, [r4, #-4]
 800881e:	f023 0301 	bic.w	r3, r3, #1
 8008822:	444b      	add	r3, r9
 8008824:	f1a0 0208 	sub.w	r2, r0, #8
 8008828:	4293      	cmp	r3, r2
 800882a:	d105      	bne.n	8008838 <_realloc_r+0x2cc>
 800882c:	f850 7c04 	ldr.w	r7, [r0, #-4]
 8008830:	f027 0703 	bic.w	r7, r7, #3
 8008834:	4437      	add	r7, r6
 8008836:	e6fb      	b.n	8008630 <_realloc_r+0xc4>
 8008838:	1f32      	subs	r2, r6, #4
 800883a:	2a24      	cmp	r2, #36	; 0x24
 800883c:	d82f      	bhi.n	800889e <_realloc_r+0x332>
 800883e:	2a13      	cmp	r2, #19
 8008840:	d92a      	bls.n	8008898 <_realloc_r+0x32c>
 8008842:	6823      	ldr	r3, [r4, #0]
 8008844:	6003      	str	r3, [r0, #0]
 8008846:	6863      	ldr	r3, [r4, #4]
 8008848:	6043      	str	r3, [r0, #4]
 800884a:	2a1b      	cmp	r2, #27
 800884c:	d810      	bhi.n	8008870 <_realloc_r+0x304>
 800884e:	f104 0208 	add.w	r2, r4, #8
 8008852:	f100 0308 	add.w	r3, r0, #8
 8008856:	6811      	ldr	r1, [r2, #0]
 8008858:	6019      	str	r1, [r3, #0]
 800885a:	6851      	ldr	r1, [r2, #4]
 800885c:	6059      	str	r1, [r3, #4]
 800885e:	6892      	ldr	r2, [r2, #8]
 8008860:	609a      	str	r2, [r3, #8]
 8008862:	4621      	mov	r1, r4
 8008864:	4650      	mov	r0, sl
 8008866:	f7ff f98f 	bl	8007b88 <_free_r>
 800886a:	e745      	b.n	80086f8 <_realloc_r+0x18c>
 800886c:	24000440 	.word	0x24000440
 8008870:	68a3      	ldr	r3, [r4, #8]
 8008872:	6083      	str	r3, [r0, #8]
 8008874:	68e3      	ldr	r3, [r4, #12]
 8008876:	60c3      	str	r3, [r0, #12]
 8008878:	2a24      	cmp	r2, #36	; 0x24
 800887a:	bf01      	itttt	eq
 800887c:	6923      	ldreq	r3, [r4, #16]
 800887e:	6103      	streq	r3, [r0, #16]
 8008880:	6961      	ldreq	r1, [r4, #20]
 8008882:	6141      	streq	r1, [r0, #20]
 8008884:	bf19      	ittee	ne
 8008886:	f104 0210 	addne.w	r2, r4, #16
 800888a:	f100 0310 	addne.w	r3, r0, #16
 800888e:	f104 0218 	addeq.w	r2, r4, #24
 8008892:	f100 0318 	addeq.w	r3, r0, #24
 8008896:	e7de      	b.n	8008856 <_realloc_r+0x2ea>
 8008898:	4603      	mov	r3, r0
 800889a:	4622      	mov	r2, r4
 800889c:	e7db      	b.n	8008856 <_realloc_r+0x2ea>
 800889e:	4621      	mov	r1, r4
 80088a0:	f7ff fe4b 	bl	800853a <memmove>
 80088a4:	e7dd      	b.n	8008862 <_realloc_r+0x2f6>
 80088a6:	4637      	mov	r7, r6
 80088a8:	e6c2      	b.n	8008630 <_realloc_r+0xc4>
 80088aa:	4317      	orrs	r7, r2
 80088ac:	f8c9 7004 	str.w	r7, [r9, #4]
 80088b0:	685a      	ldr	r2, [r3, #4]
 80088b2:	f042 0201 	orr.w	r2, r2, #1
 80088b6:	605a      	str	r2, [r3, #4]
 80088b8:	e6d6      	b.n	8008668 <_realloc_r+0xfc>
 80088ba:	bf00      	nop

080088bc <__ascii_wctomb>:
 80088bc:	b149      	cbz	r1, 80088d2 <__ascii_wctomb+0x16>
 80088be:	2aff      	cmp	r2, #255	; 0xff
 80088c0:	bf85      	ittet	hi
 80088c2:	238a      	movhi	r3, #138	; 0x8a
 80088c4:	6003      	strhi	r3, [r0, #0]
 80088c6:	700a      	strbls	r2, [r1, #0]
 80088c8:	f04f 30ff 	movhi.w	r0, #4294967295
 80088cc:	bf98      	it	ls
 80088ce:	2001      	movls	r0, #1
 80088d0:	4770      	bx	lr
 80088d2:	4608      	mov	r0, r1
 80088d4:	4770      	bx	lr
	...

080088d8 <_init>:
 80088d8:	b5f8      	push	{r3, r4, r5, r6, r7, lr}
 80088da:	bf00      	nop
 80088dc:	bcf8      	pop	{r3, r4, r5, r6, r7}
 80088de:	bc08      	pop	{r3}
 80088e0:	469e      	mov	lr, r3
 80088e2:	4770      	bx	lr

080088e4 <_fini>:
 80088e4:	b5f8      	push	{r3, r4, r5, r6, r7, lr}
 80088e6:	bf00      	nop
 80088e8:	bcf8      	pop	{r3, r4, r5, r6, r7}
 80088ea:	bc08      	pop	{r3}
 80088ec:	469e      	mov	lr, r3
 80088ee:	4770      	bx	lr
